
SLAVE-hui.elf:     file format elf32-littleriscv
SLAVE-hui.elf
architecture: riscv:rv32, flags 0x00000112:
EXEC_P, HAS_SYMS, D_PAGED
start address 0x00000000

Program Header:
    LOAD off    0x00001000 vaddr 0x00000000 paddr 0x00000000 align 2**12
         filesz 0x000056ec memsz 0x000056ec flags r-x
    LOAD off    0x00007000 vaddr 0x20000000 paddr 0x000056ec align 2**12
         filesz 0x000000d0 memsz 0x000026a0 flags rw-
    LOAD off    0x00007800 vaddr 0x20004800 paddr 0x20004800 align 2**12
         filesz 0x00000000 memsz 0x00000800 flags rw-

Sections:
Idx Name           Size      VMA       LMA       File off  Algn  Flags
  0 .init          00000038  00000000  00000000  00001000  2**1  CONTENTS, ALLOC, LOAD, READONLY, CODE
  1 .vector        00000108  00000038  00000038  00001038  2**1  CONTENTS, ALLOC, LOAD, READONLY, CODE
  2 .text          000055ac  00000140  00000140  00001140  2**2  CONTENTS, ALLOC, LOAD, READONLY, CODE
  3 .fini          00000000  000056ec  000056ec  000070d0  2**0  CONTENTS, ALLOC, LOAD, CODE
  4 .dalign        00000000  20000000  20000000  000070d0  2**0  CONTENTS
  5 .dlalign       00000000  000056ec  000056ec  000070d0  2**0  CONTENTS
  6 .data          000000d0  20000000  000056ec  00007000  2**2  CONTENTS, ALLOC, LOAD, DATA
  7 .bss           000025d0  200000d0  000057bc  000070d0  2**2  ALLOC
  8 .stack         00000800  20004800  20004800  00007800  2**0  ALLOC
  9 .debug_info    000136ee  00000000  00000000  000070d0  2**0  CONTENTS, READONLY, DEBUGGING
 10 .debug_abbrev  00003274  00000000  00000000  0001a7be  2**0  CONTENTS, READONLY, DEBUGGING
 11 .debug_aranges 00000b58  00000000  00000000  0001da38  2**3  CONTENTS, READONLY, DEBUGGING
 12 .debug_ranges  000009e8  00000000  00000000  0001e590  2**3  CONTENTS, READONLY, DEBUGGING
 13 .debug_line    0000b1a1  00000000  00000000  0001ef78  2**0  CONTENTS, READONLY, DEBUGGING
 14 .debug_str     000038aa  00000000  00000000  0002a119  2**0  CONTENTS, READONLY, DEBUGGING
 15 .comment       00000033  00000000  00000000  0002d9c3  2**0  CONTENTS, READONLY
 16 .debug_frame   00003234  00000000  00000000  0002d9f8  2**2  CONTENTS, READONLY, DEBUGGING
 17 .stab          000000b4  00000000  00000000  00030c2c  2**2  CONTENTS, READONLY, DEBUGGING
 18 .stabstr       00000183  00000000  00000000  00030ce0  2**0  CONTENTS, READONLY, DEBUGGING
SYMBOL TABLE:
00000000 l    d  .init	00000000 .init
00000038 l    d  .vector	00000000 .vector
00000140 l    d  .text	00000000 .text
000056ec l    d  .fini	00000000 .fini
20000000 l    d  .dalign	00000000 .dalign
000056ec l    d  .dlalign	00000000 .dlalign
20000000 l    d  .data	00000000 .data
200000d0 l    d  .bss	00000000 .bss
20004800 l    d  .stack	00000000 .stack
00000000 l    d  .debug_info	00000000 .debug_info
00000000 l    d  .debug_abbrev	00000000 .debug_abbrev
00000000 l    d  .debug_aranges	00000000 .debug_aranges
00000000 l    d  .debug_ranges	00000000 .debug_ranges
00000000 l    d  .debug_line	00000000 .debug_line
00000000 l    d  .debug_str	00000000 .debug_str
00000000 l    d  .comment	00000000 .comment
00000000 l    d  .debug_frame	00000000 .debug_frame
00000000 l    d  .stab	00000000 .stab
00000000 l    d  .stabstr	00000000 .stabstr
00000000 l    df *ABS*	00000000 ./Libraries/wch_libraries/Startup/startup_ch32v10x.o
00000038 l       .vector	00000000 _vector_base
00000000 l    df *ABS*	00000000 isr.c
00000000 l    df *ABS*	00000000 main.c
00000000 l    df *ABS*	00000000 ch32v10x_dma.c
00000000 l    df *ABS*	00000000 ch32v10x_exti.c
00000000 l    df *ABS*	00000000 ch32v10x_gpio.c
00000000 l    df *ABS*	00000000 ch32v10x_misc.c
0000175e l     F .text	00000032 NVIC_EnableIRQ
00001790 l     F .text	00000032 NVIC_DisableIRQ
000017c2 l     F .text	0000002a NVIC_SetPriority
00000000 l    df *ABS*	00000000 ch32v10x_rcc.c
20000000 l     O .data	00000010 APBAHBPrescTable
200000bc l     O .data	00000004 ADCPrescTable
00000000 l    df *ABS*	00000000 ch32v10x_tim.c
00000000 l    df *ABS*	00000000 ch32v10x_usart.c
00000000 l    df *ABS*	00000000 SEEKFREE_MT9V03X.c
00000000 l    df *ABS*	00000000 SEEKFREE_UART_7725.c
00000000 l    df *ABS*	00000000 zf_camera.c
00000000 l    df *ABS*	00000000 zf_gpio.c
00000000 l    df *ABS*	00000000 zf_nvic.c
00000000 l    df *ABS*	00000000 zf_pit.c
000055c0 l     O .text	00000017 __func__.3548
00000000 l    df *ABS*	00000000 zf_qtimer.c
00000000 l    df *ABS*	00000000 zf_systick.c
00000000 l    df *ABS*	00000000 zf_uart.c
00000000 l    df *ABS*	00000000 board.c
00000000 l    df *ABS*	00000000 clock_config.c
00003b1e l     F .text	00000140 SetSysClock
00000000 l    df *ABS*	00000000 multi_button.c
200000f8 l     O .bss	00000004 head_handle
00000000 l    df *ABS*	00000000 assert.c
00000000 l    df *ABS*	00000000 fprintf.c
00000000 l    df *ABS*	00000000 nano-vfprintf.c
00004340 l     F .text	00000028 __sfputc_r
00000000 l    df *ABS*	00000000 nano-vfprintf_i.c
00000000 l    df *ABS*	00000000 wbuf.c
00000000 l    df *ABS*	00000000 wsetup.c
00000000 l    df *ABS*	00000000 abort.c
00000000 l    df *ABS*	00000000 fflush.c
00000000 l    df *ABS*	00000000 findfp.c
00004d74 l     F .text	0000006a std
00000000 l    df *ABS*	00000000 fwalk.c
00000000 l    df *ABS*	00000000 makebuf.c
00000000 l    df *ABS*	00000000 memchr.c
00000000 l    df *ABS*	00000000 nano-mallocr.c
00000000 l    df *ABS*	00000000 nano-mallocr.c
00000000 l    df *ABS*	00000000 sbrkr.c
00000000 l    df *ABS*	00000000 signal.c
00000000 l    df *ABS*	00000000 signalr.c
00000000 l    df *ABS*	00000000 stdio.c
00000000 l    df *ABS*	00000000 writer.c
00000000 l    df *ABS*	00000000 closer.c
00000000 l    df *ABS*	00000000 fstatr.c
00000000 l    df *ABS*	00000000 isattyr.c
00000000 l    df *ABS*	00000000 lseekr.c
00000000 l    df *ABS*	00000000 mlock.c
00000000 l    df *ABS*	00000000 readr.c
00000000 l    df *ABS*	00000000 close.c
00000000 l    df *ABS*	00000000 fstat.c
00000000 l    df *ABS*	00000000 getpid.c
00000000 l    df *ABS*	00000000 isatty.c
00000000 l    df *ABS*	00000000 kill.c
00000000 l    df *ABS*	00000000 lseek.c
00000000 l    df *ABS*	00000000 read.c
00000000 l    df *ABS*	00000000 sbrk.c
20000104 l     O .bss	00000004 heap_end.1518
00000000 l    df *ABS*	00000000 _exit.c
00000000 l    df *ABS*	00000000 impure.c
20000054 l     O .data	00000060 impure_data
00000000 l    df *ABS*	00000000 common.c
00000000 l    df *ABS*	00000000 reent.c
00001c96 g     F .text	0000003c TIM_TimeBaseStructInit
0000024e g     F .text	00000016 EXTI2_IRQHandler
000006c2 g     F .text	0000055a whu
00005448 g     F .text	00000030 _isatty_r
00005504 g     F .text	00000010 _getpid
00005478 g     F .text	00000034 _lseek_r
0000101a g     F .text	00000040 DMA_Cmd
0000304a g     F .text	00000080 gpio_interrupt_init
000052c2 g     F .text	00000032 _kill_r
200008b8 g       .data	00000000 __global_pointer$
00000370 g     F .text	00000090 TIM1_CC_IRQHandler
00005374 g     F .text	00000036 __sseek
00004e2e g     F .text	0000006c __sinit
000049f8 g     F .text	000000c0 __swbuf_r
0000051c g     F .text	00000008 HardFault_Handler
00004de8 g     F .text	00000046 __sfmoreglue
000054ae g     F .text	00000002 __malloc_unlock
00000524 g     F .text	0000001c read_c14gpio
000017ec g     F .text	000000c4 NVIC_Init
200000f0 g     O .bss	00000004 sys_clk
0000050c g     F .text	00000010 NMI_Handler
00003cdc g     F .text	000000a0 button_init
00000264 g     F .text	00000010 EXTI3_IRQHandler
200000c0 g     O .data	00000004 camera_type
00001d9a g     F .text	00000070 TIM_DMACmd
00001e0a g     F .text	0000008a TIM_ETRClockMode1Config
00002508 g     F .text	00000046 USART_GetFlagStatus
00005416 g     F .text	00000032 _fstat_r
000055d8 g     O .text	00000010 TIMERN
2000269c g     O .bss	00000004 errno
200000d0 g     O .bss	00000002 slave_encoder_RB
20000034 g     O .data	00000020 GET_CFG
200000d0 g       .bss	00000000 _sbss
00000800 g       *ABS*	00000000 __stack_size
20000108 g     O .bss	0000000c temp_buff
00000f72 g     F .text	000000a8 DMA_Init
200000ed g     O .bss	00000001 ov7725_uart_finish_flag
00000540 g     F .text	00000024 btn1_press_up_Handler
200001d8 g     O .bss	000024b8 mt9v03x_image
00004dde g     F .text	0000000a _cleanup_r
00001580 g     F .text	0000013c GPIO_PinRemapConfig
000001e8 g     F .text	00000024 EXTI0_IRQHandler
00001cd2 g     F .text	00000058 TIM_Cmd
20000010 g     O .data	00000024 MT9V03X_CFG
000039c0 g     F .text	00000046 uart_putbuff
200000d5 g     O .bss	00000001 tag6
00005254 g     F .text	00000062 _raise_r
000054f4 g     F .text	00000010 _fstat
000042e0 g     F .text	0000003a __assert_func
00000038 g       .init	00000000 _einit
00003198 g     F .text	00000030 sys_recover_irq
00002154 g     F .text	0000002e TIM_ClearITPendingBit
00001b10 g     F .text	00000046 RCC_APB2PeriphClockCmd
000029f6 g     F .text	00000036 mt9v03x_vsync
000002a4 g     F .text	00000010 ADC1_2_IRQHandler
000052f4 g     F .text	00000002 _getpid_r
0000131e g     F .text	0000022a GPIO_Init
000030ca g     F .text	000000ac nvic_init
200000da g     O .bss	00000002 w
000023b6 g     F .text	00000060 USART_Cmd
00005224 g     F .text	00000030 _sbrk_r
000054b0 g     F .text	00000034 _read_r
00002650 g     F .text	0000004e USART_ClearITPendingBit
00001b56 g     F .text	00000046 RCC_APB1PeriphClockCmd
00005514 g     F .text	00000010 _isatty
20000114 g     O .bss	00000032 tag1
000033c2 g     F .text	00000170 timer_gpio_quad_init
200000c8 g     O .data	00000004 _global_impure_ptr
000027fe g     F .text	000000c8 get_config
00001aca g     F .text	00000046 RCC_AHBPeriphClockCmd
000004ca g     F .text	00000042 DMA1_Channel4_IRQHandler
00004bc4 g     F .text	0000000e abort
0000323c g     F .text	00000186 timer_pit_interrupt_ms
00005554 g     F .text	00000024 _sbrk
200000d4 g     O .bss	00000001 tag5
000010a4 g     F .text	0000005c DMA_GetFlagStatus
000004ba g     F .text	00000010 USART3_IRQHandler
000012fe g     F .text	00000020 EXTI_ClearITPendingBit
200026a0 g       .bss	00000000 _ebss
0000254e g     F .text	00000102 USART_GetITStatus
000036e6 g     F .text	00000094 systick_delay
00002a5a g     F .text	00000070 ov7725_cof_uart_interrupt
000055e8 g     O .text	00000010 UARTN
0000431a g     F .text	00000026 fprintf
0000066a g     F .text	00000058 TIM4_IRQHandler
00001548 g     F .text	00000038 GPIO_WriteBit
200000eb g     O .bss	00000001 ov7725_uart_receive_num
200000d7 g     O .bss	00000001 tag9
0000568c g     O .text	00000020 __sf_fake_stderr
200026a0 g       .bss	00000000 end
00003532 g     F .text	0000015c timer_quad_init
000020e4 g     F .text	00000070 TIM_GetITStatus
200000d8 g     O .bss	00000002 i
00003da8 g     F .text	000004b4 button_handler
000018b0 g     F .text	0000021a RCC_GetClocksFreq
00004368 g     F .text	00000042 __sfputs_r
00003866 g     F .text	00000104 uart_init
00005098 g     F .text	0000001a memchr
00000564 g     F .text	0000003a get_sensor_data
00002182 g     F .text	00000234 USART_Init
000050b2 g     F .text	000000a4 _free_r
00002ff4 g     F .text	00000056 gpio_get
00000428 g     F .text	00000030 TIM3_IRQHandler
00003210 g     F .text	0000002c EnableGlobalIRQ
0000377a g     F .text	000000ec uart_gpio_init
00000318 g     F .text	00000058 TIM1_TRG_COM_IRQHandler
00002b00 g     F .text	0000002e ov7725_uart_dma
00000000 g       .init	00000000 _start
00005534 g     F .text	00000010 _lseek
200000ec g     O .bss	00000001 ov7725_uart_receive_flag
00002b2e g     F .text	0000015a camera_dma_init
00001f10 g     F .text	0000004e TIM_SelectInputTrigger
00003176 g     F .text	00000022 close_all_irq
00000294 g     F .text	00000010 EXTI15_10_IRQHandler
000055b0 g     O .text	00000010 GPION
00001d2a g     F .text	00000070 TIM_ITConfig
00002416 g     F .text	000000c4 USART_ITConfig
00001138 g     F .text	00000170 EXTI_Init
000028c6 g     F .text	0000002a mt9v03x_vsync_init
000053e6 g     F .text	00000030 _close_r
20000000 g       .dalign	00000000 _data_vma
00002908 g     F .text	00000072 mt9v03x_dma_init
00004ab8 g     F .text	0000010c __swsetup_r
00000284 g     F .text	00000010 EXTI9_5_IRQHandler
00004e9a g     F .text	0000009e __sfp
000016bc g     F .text	000000a2 GPIO_EXTILineConfig
00003a56 g     F .text	0000004c board_init
000052f6 g     F .text	00000030 __sread
0000270e g     F .text	000000f0 set_config
20000148 g     O .bss	00000032 tag2
200000d6 g     O .bss	00000001 tag7
000054ac g     F .text	00000002 __malloc_lock
00004d0e g     F .text	00000066 _fflush_r
0000425c g     F .text	00000050 button_start
000012a8 g     F .text	00000056 EXTI_GetITStatus
000056ac g     O .text	00000020 __sf_fake_stdin
00002a2c g     F .text	0000002e mt9v03x_dma
00000140 g     F .text	000000a8 memset
00000c1c g     F .text	000000ca main
0000297a g     F .text	0000007c mt9v03x_init
000053aa g     F .text	00000006 __sclose
00005156 g     F .text	000000ce _malloc_r
00000274 g     F .text	00000010 EXTI4_IRQHandler
000031c8 g     F .text	00000048 DisableGlobalIRQ
200000f4 g     O .bss	00000004 camera_buffer_addr
00003c5e g     F .text	0000007e SystemInit
00000000 g       .init	00000000 _sinit
000053b0 g     F .text	00000036 _write_r
200000e3 g     O .bss	00000001 receive_num
20002690 g     O .bss	0000000c irq_status
200000dc g     O .bss	00000001 buflag
000028f0 g     F .text	00000018 mt9v03x_tim1_etr_init
00004648 g     F .text	0000010c _printf_common
200000c4 g     O .data	00000004 _impure_ptr
000002e8 g     F .text	00000030 TIM1_UP_IRQHandler
200000e0 g     O .bss	00000003 receive
00004bd2 g     F .text	0000013c __sflush_r
00002aca g     F .text	00000036 ov7725_uart_vsync
00002c88 g     F .text	0000014a camera_tim_etr_init
200000b8 g     O .data	00000001 tag8
0000105a g     F .text	0000004a DMA_ITConfig
00000400 g     F .text	00000028 TIM2_IRQHandler
20005000 g       .stack	00000000 _eusrstack
200000e4 g     O .bss	00000001 uart_receive_flag
0000269e g     F .text	00000070 mt9v03x_uart_callback
200000e5 g     O .bss	00000001 mt9v03x_finish_flag
000002b4 g     F .text	00000034 TIM1_BRK_IRQHandler
00004fa4 g     F .text	00000058 __swhatbuf_r
000024da g     F .text	0000002e USART_SendData
0000020c g     F .text	00000042 EXTI1_IRQHandler
0000208c g     F .text	00000058 TIM_SelectMasterSlaveMode
200001b0 g     O .bss	00000028 button1
00003aa2 g     F .text	0000007c _write
200000d0 g       .data	00000000 _edata
00003d7c g     F .text	0000002c button_attach
00001b9c g     F .text	000000fa TIM_TimeBaseInit
000056ec g       .dlalign	00000000 _data_lma
00000468 g     F .text	00000052 USART2_IRQHandler
00005326 g     F .text	0000004e __swrite
0000431a g     F .text	00000026 fiprintf
000043aa g     F .text	0000029e _vfiprintf_r
200000d2 g     O .bss	00000002 slave_encoder_LB
00004f38 g     F .text	0000006c _fwalk_reent
00005524 g     F .text	00000010 _kill
000056cc g     O .text	00000020 __sf_fake_stdout
00001100 g     F .text	00000038 DMA_ClearFlag
00005544 g     F .text	00000010 _read
00000ce6  w      .text	00000000 handle_reset
00005578 g     F .text	00000002 _exit
0000059e g     F .text	000000cc process_data
0000368e g     F .text	00000032 timer_quad_get
00000458 g     F .text	00000010 USART1_IRQHandler
00004ffc g     F .text	0000009c __smakebuf_r
00004754 g     F .text	000002a4 _printf_i
00001e94 g     F .text	0000007c TIM_ETRConfig
20000100 g     O .bss	00000004 __malloc_sbrk_start
00002036 g     F .text	00000056 TIM_SelectSlaveMode
00003a06 g     F .text	00000050 uart_rx_irq
00002f76 g     F .text	0000007e gpio_set
000036c0 g     F .text	00000026 timer_quad_clear
00000d64 g     F .text	0000020e DMA_DeInit
00002dd2 g     F .text	000001a4 gpio_init
200000fc g     O .bss	00000004 __malloc_free_list
00001f5e g     F .text	000000d8 TIM_EncoderInterfaceConfig
000043aa g     F .text	0000029e _vfprintf_r
0000396a g     F .text	00000056 uart_putchar
200000e8 g     O .bss	00000003 ov7725_uart_receive
2000017c g     O .bss	00000032 tag3
000054e4 g     F .text	00000010 _close
000052b6 g     F .text	0000000c raise
000042ac g     F .text	00000034 button_ticks



Disassembly of section .init:

00000000 <_sinit>:
_start():
C:\Users\山东张\Desktop\新建文件夹\新建文件夹 (2)\SLAVE527\SLAVE-hui\obj/../Libraries/wch_libraries/Startup/startup_ch32v10x.S:13

	.section	.init,"ax",@progbits
	.global	_start
	.align	1
_start:
	j	handle_reset
   0:	4e70006f          	j	ce6 <handle_reset>
   4:	00000013          	nop
   8:	00000013          	nop
   c:	00000013          	nop
  10:	00000013          	nop
  14:	00000013          	nop
  18:	00000013          	nop
  1c:	00000013          	nop
  20:	00000013          	nop
  24:	00000013          	nop
  28:	00000013          	nop
  2c:	00000013          	nop
  30:	00000013          	nop
  34:	00100073          	ebreak

Disassembly of section .vector:

00000038 <_vector_base>:
_vector_base():
C:\Users\山东张\Desktop\新建文件夹\新建文件夹 (2)\SLAVE527\SLAVE-hui\obj/../Libraries/wch_libraries/Startup/startup_ch32v10x.S:31
	.word 0x00100073
    .section    .vector,"ax",@progbits
    .align  1
_vector_base:
    .option norvc;
        j   _start
  38:	fc9ff06f          	j	0 <_sinit>
  3c:	0000                	unimp
  3e:	0000                	unimp
C:\Users\山东张\Desktop\新建文件夹\新建文件夹 (2)\SLAVE527\SLAVE-hui\obj/../Libraries/wch_libraries/Startup/startup_ch32v10x.S:33
    .word   0
        j   NMI_Handler                 /* NMI Handler */
  40:	4cc0006f          	j	50c <NMI_Handler>
C:\Users\山东张\Desktop\新建文件夹\新建文件夹 (2)\SLAVE527\SLAVE-hui\obj/../Libraries/wch_libraries/Startup/startup_ch32v10x.S:34
        j   HardFault_Handler           /* Hard Fault Handler */
  44:	4d80006f          	j	51c <HardFault_Handler>
	...
C:\Users\山东张\Desktop\新建文件夹\新建文件夹 (2)\SLAVE527\SLAVE-hui\obj/../Libraries/wch_libraries/Startup/startup_ch32v10x.S:43
    .word   0
    .word   0
    .word   0
    .word   0
    .word   0
        j   SysTick_Handler            /* SysTick Handler */
  68:	f99ff06f          	j	0 <_sinit>
  6c:	0000                	unimp
  6e:	0000                	unimp
C:\Users\山东张\Desktop\新建文件夹\新建文件夹 (2)\SLAVE527\SLAVE-hui\obj/../Libraries/wch_libraries/Startup/startup_ch32v10x.S:45
    .word   0
        j   SW_handler                 /* SW Handler */
  70:	f91ff06f          	j	0 <_sinit>
  74:	0000                	unimp
  76:	0000                	unimp
C:\Users\山东张\Desktop\新建文件夹\新建文件夹 (2)\SLAVE527\SLAVE-hui\obj/../Libraries/wch_libraries/Startup/startup_ch32v10x.S:48
    .word   0
    /* External Interrupts */
        j   WWDG_IRQHandler            /* Window Watchdog */
  78:	f89ff06f          	j	0 <_sinit>
C:\Users\山东张\Desktop\新建文件夹\新建文件夹 (2)\SLAVE527\SLAVE-hui\obj/../Libraries/wch_libraries/Startup/startup_ch32v10x.S:49
        j   PVD_IRQHandler             /* PVD through EXTI Line detect */
  7c:	f85ff06f          	j	0 <_sinit>
C:\Users\山东张\Desktop\新建文件夹\新建文件夹 (2)\SLAVE527\SLAVE-hui\obj/../Libraries/wch_libraries/Startup/startup_ch32v10x.S:50
        j   TAMPER_IRQHandler          /* TAMPER */
  80:	f81ff06f          	j	0 <_sinit>
C:\Users\山东张\Desktop\新建文件夹\新建文件夹 (2)\SLAVE527\SLAVE-hui\obj/../Libraries/wch_libraries/Startup/startup_ch32v10x.S:51
        j   RTC_IRQHandler             /* RTC */
  84:	f7dff06f          	j	0 <_sinit>
C:\Users\山东张\Desktop\新建文件夹\新建文件夹 (2)\SLAVE527\SLAVE-hui\obj/../Libraries/wch_libraries/Startup/startup_ch32v10x.S:52
        j   FLASH_IRQHandler           /* Flash */
  88:	f79ff06f          	j	0 <_sinit>
C:\Users\山东张\Desktop\新建文件夹\新建文件夹 (2)\SLAVE527\SLAVE-hui\obj/../Libraries/wch_libraries/Startup/startup_ch32v10x.S:53
        j   RCC_IRQHandler             /* RCC */
  8c:	f75ff06f          	j	0 <_sinit>
C:\Users\山东张\Desktop\新建文件夹\新建文件夹 (2)\SLAVE527\SLAVE-hui\obj/../Libraries/wch_libraries/Startup/startup_ch32v10x.S:54
        j   EXTI0_IRQHandler           /* EXTI Line 0 */
  90:	1580006f          	j	1e8 <EXTI0_IRQHandler>
C:\Users\山东张\Desktop\新建文件夹\新建文件夹 (2)\SLAVE527\SLAVE-hui\obj/../Libraries/wch_libraries/Startup/startup_ch32v10x.S:55
        j   EXTI1_IRQHandler           /* EXTI Line 1 */
  94:	1780006f          	j	20c <EXTI1_IRQHandler>
C:\Users\山东张\Desktop\新建文件夹\新建文件夹 (2)\SLAVE527\SLAVE-hui\obj/../Libraries/wch_libraries/Startup/startup_ch32v10x.S:56
        j   EXTI2_IRQHandler           /* EXTI Line 2 */
  98:	1b60006f          	j	24e <EXTI2_IRQHandler>
C:\Users\山东张\Desktop\新建文件夹\新建文件夹 (2)\SLAVE527\SLAVE-hui\obj/../Libraries/wch_libraries/Startup/startup_ch32v10x.S:57
        j   EXTI3_IRQHandler           /* EXTI Line 3 */
  9c:	1c80006f          	j	264 <EXTI3_IRQHandler>
C:\Users\山东张\Desktop\新建文件夹\新建文件夹 (2)\SLAVE527\SLAVE-hui\obj/../Libraries/wch_libraries/Startup/startup_ch32v10x.S:58
        j   EXTI4_IRQHandler           /* EXTI Line 4 */
  a0:	1d40006f          	j	274 <EXTI4_IRQHandler>
C:\Users\山东张\Desktop\新建文件夹\新建文件夹 (2)\SLAVE527\SLAVE-hui\obj/../Libraries/wch_libraries/Startup/startup_ch32v10x.S:59
        j   DMA1_Channel1_IRQHandler   /* DMA1 Channel 1 */
  a4:	f5dff06f          	j	0 <_sinit>
C:\Users\山东张\Desktop\新建文件夹\新建文件夹 (2)\SLAVE527\SLAVE-hui\obj/../Libraries/wch_libraries/Startup/startup_ch32v10x.S:60
        j   DMA1_Channel2_IRQHandler   /* DMA1 Channel 2 */
  a8:	f59ff06f          	j	0 <_sinit>
C:\Users\山东张\Desktop\新建文件夹\新建文件夹 (2)\SLAVE527\SLAVE-hui\obj/../Libraries/wch_libraries/Startup/startup_ch32v10x.S:61
        j   DMA1_Channel3_IRQHandler   /* DMA1 Channel 3 */
  ac:	f55ff06f          	j	0 <_sinit>
C:\Users\山东张\Desktop\新建文件夹\新建文件夹 (2)\SLAVE527\SLAVE-hui\obj/../Libraries/wch_libraries/Startup/startup_ch32v10x.S:62
        j   DMA1_Channel4_IRQHandler   /* DMA1 Channel 4 */
  b0:	41a0006f          	j	4ca <DMA1_Channel4_IRQHandler>
C:\Users\山东张\Desktop\新建文件夹\新建文件夹 (2)\SLAVE527\SLAVE-hui\obj/../Libraries/wch_libraries/Startup/startup_ch32v10x.S:63
        j   DMA1_Channel5_IRQHandler   /* DMA1 Channel 5 */
  b4:	f4dff06f          	j	0 <_sinit>
C:\Users\山东张\Desktop\新建文件夹\新建文件夹 (2)\SLAVE527\SLAVE-hui\obj/../Libraries/wch_libraries/Startup/startup_ch32v10x.S:64
        j   DMA1_Channel6_IRQHandler   /* DMA1 Channel 6 */
  b8:	f49ff06f          	j	0 <_sinit>
C:\Users\山东张\Desktop\新建文件夹\新建文件夹 (2)\SLAVE527\SLAVE-hui\obj/../Libraries/wch_libraries/Startup/startup_ch32v10x.S:65
        j   DMA1_Channel7_IRQHandler   /* DMA1 Channel 7 */
  bc:	f45ff06f          	j	0 <_sinit>
C:\Users\山东张\Desktop\新建文件夹\新建文件夹 (2)\SLAVE527\SLAVE-hui\obj/../Libraries/wch_libraries/Startup/startup_ch32v10x.S:66
        j   ADC1_2_IRQHandler          /* ADC1_2 */
  c0:	1e40006f          	j	2a4 <ADC1_2_IRQHandler>
	...
C:\Users\山东张\Desktop\新建文件夹\新建文件夹 (2)\SLAVE527\SLAVE-hui\obj/../Libraries/wch_libraries/Startup/startup_ch32v10x.S:71
        .word   0
        .word   0
        .word   0
        .word   0
        j   EXTI9_5_IRQHandler         /* EXTI Line 9..5 */
  d4:	1b00006f          	j	284 <EXTI9_5_IRQHandler>
C:\Users\山东张\Desktop\新建文件夹\新建文件夹 (2)\SLAVE527\SLAVE-hui\obj/../Libraries/wch_libraries/Startup/startup_ch32v10x.S:72
        j   TIM1_BRK_IRQHandler        /* TIM1 Break */
  d8:	1dc0006f          	j	2b4 <TIM1_BRK_IRQHandler>
C:\Users\山东张\Desktop\新建文件夹\新建文件夹 (2)\SLAVE527\SLAVE-hui\obj/../Libraries/wch_libraries/Startup/startup_ch32v10x.S:73
        j   TIM1_UP_IRQHandler         /* TIM1 Update */
  dc:	20c0006f          	j	2e8 <TIM1_UP_IRQHandler>
C:\Users\山东张\Desktop\新建文件夹\新建文件夹 (2)\SLAVE527\SLAVE-hui\obj/../Libraries/wch_libraries/Startup/startup_ch32v10x.S:74
        j   TIM1_TRG_COM_IRQHandler    /* TIM1 Trigger and Commutation */
  e0:	2380006f          	j	318 <TIM1_TRG_COM_IRQHandler>
C:\Users\山东张\Desktop\新建文件夹\新建文件夹 (2)\SLAVE527\SLAVE-hui\obj/../Libraries/wch_libraries/Startup/startup_ch32v10x.S:75
        j   TIM1_CC_IRQHandler         /* TIM1 Capture Compare */
  e4:	28c0006f          	j	370 <TIM1_CC_IRQHandler>
C:\Users\山东张\Desktop\新建文件夹\新建文件夹 (2)\SLAVE527\SLAVE-hui\obj/../Libraries/wch_libraries/Startup/startup_ch32v10x.S:76
        j   TIM2_IRQHandler            /* TIM2 */
  e8:	3180006f          	j	400 <TIM2_IRQHandler>
C:\Users\山东张\Desktop\新建文件夹\新建文件夹 (2)\SLAVE527\SLAVE-hui\obj/../Libraries/wch_libraries/Startup/startup_ch32v10x.S:77
        j   TIM3_IRQHandler            /* TIM3 */
  ec:	33c0006f          	j	428 <TIM3_IRQHandler>
C:\Users\山东张\Desktop\新建文件夹\新建文件夹 (2)\SLAVE527\SLAVE-hui\obj/../Libraries/wch_libraries/Startup/startup_ch32v10x.S:78
        j   TIM4_IRQHandler            /* TIM4 */
  f0:	57a0006f          	j	66a <TIM4_IRQHandler>
C:\Users\山东张\Desktop\新建文件夹\新建文件夹 (2)\SLAVE527\SLAVE-hui\obj/../Libraries/wch_libraries/Startup/startup_ch32v10x.S:79
        j   I2C1_EV_IRQHandler         /* I2C1 Event */
  f4:	f0dff06f          	j	0 <_sinit>
C:\Users\山东张\Desktop\新建文件夹\新建文件夹 (2)\SLAVE527\SLAVE-hui\obj/../Libraries/wch_libraries/Startup/startup_ch32v10x.S:80
        j   I2C1_ER_IRQHandler         /* I2C1 Error */
  f8:	f09ff06f          	j	0 <_sinit>
C:\Users\山东张\Desktop\新建文件夹\新建文件夹 (2)\SLAVE527\SLAVE-hui\obj/../Libraries/wch_libraries/Startup/startup_ch32v10x.S:81
        j   I2C2_EV_IRQHandler         /* I2C2 Event */
  fc:	f05ff06f          	j	0 <_sinit>
C:\Users\山东张\Desktop\新建文件夹\新建文件夹 (2)\SLAVE527\SLAVE-hui\obj/../Libraries/wch_libraries/Startup/startup_ch32v10x.S:82
        j   I2C2_ER_IRQHandler         /* I2C2 Error */
 100:	f01ff06f          	j	0 <_sinit>
C:\Users\山东张\Desktop\新建文件夹\新建文件夹 (2)\SLAVE527\SLAVE-hui\obj/../Libraries/wch_libraries/Startup/startup_ch32v10x.S:83
        j   SPI1_IRQHandler            /* SPI1 */
 104:	efdff06f          	j	0 <_sinit>
C:\Users\山东张\Desktop\新建文件夹\新建文件夹 (2)\SLAVE527\SLAVE-hui\obj/../Libraries/wch_libraries/Startup/startup_ch32v10x.S:84
        j   SPI2_IRQHandler            /* SPI2 */
 108:	ef9ff06f          	j	0 <_sinit>
C:\Users\山东张\Desktop\新建文件夹\新建文件夹 (2)\SLAVE527\SLAVE-hui\obj/../Libraries/wch_libraries/Startup/startup_ch32v10x.S:85
        j   USART1_IRQHandler          /* USART1 */
 10c:	34c0006f          	j	458 <USART1_IRQHandler>
C:\Users\山东张\Desktop\新建文件夹\新建文件夹 (2)\SLAVE527\SLAVE-hui\obj/../Libraries/wch_libraries/Startup/startup_ch32v10x.S:86
        j   USART2_IRQHandler          /* USART2 */
 110:	3580006f          	j	468 <USART2_IRQHandler>
C:\Users\山东张\Desktop\新建文件夹\新建文件夹 (2)\SLAVE527\SLAVE-hui\obj/../Libraries/wch_libraries/Startup/startup_ch32v10x.S:87
        j   USART3_IRQHandler          /* USART3 */
 114:	3a60006f          	j	4ba <USART3_IRQHandler>
C:\Users\山东张\Desktop\新建文件夹\新建文件夹 (2)\SLAVE527\SLAVE-hui\obj/../Libraries/wch_libraries/Startup/startup_ch32v10x.S:88
        j   EXTI15_10_IRQHandler       /* EXTI Line 15..10 */
 118:	17c0006f          	j	294 <EXTI15_10_IRQHandler>
C:\Users\山东张\Desktop\新建文件夹\新建文件夹 (2)\SLAVE527\SLAVE-hui\obj/../Libraries/wch_libraries/Startup/startup_ch32v10x.S:89
        j   RTCAlarm_IRQHandler        /* RTC Alarm through EXTI Line */
 11c:	ee5ff06f          	j	0 <_sinit>
C:\Users\山东张\Desktop\新建文件夹\新建文件夹 (2)\SLAVE527\SLAVE-hui\obj/../Libraries/wch_libraries/Startup/startup_ch32v10x.S:90
        j   USBWakeUp_IRQHandler       /* USB Wakeup from suspend */
 120:	ee1ff06f          	j	0 <_sinit>
C:\Users\山东张\Desktop\新建文件夹\新建文件夹 (2)\SLAVE527\SLAVE-hui\obj/../Libraries/wch_libraries/Startup/startup_ch32v10x.S:91
        j   USBHD_IRQHandler           /* USBHD */
 124:	eddff06f          	j	0 <_sinit>
	...

Disassembly of section .text:

00000140 <memset>:
memset():
     140:	433d                	li	t1,15
     142:	872a                	mv	a4,a0
     144:	02c37363          	bgeu	t1,a2,16a <memset+0x2a>
     148:	00f77793          	andi	a5,a4,15
     14c:	efbd                	bnez	a5,1ca <memset+0x8a>
     14e:	e5ad                	bnez	a1,1b8 <memset+0x78>
     150:	ff067693          	andi	a3,a2,-16
     154:	8a3d                	andi	a2,a2,15
     156:	96ba                	add	a3,a3,a4
     158:	c30c                	sw	a1,0(a4)
     15a:	c34c                	sw	a1,4(a4)
     15c:	c70c                	sw	a1,8(a4)
     15e:	c74c                	sw	a1,12(a4)
     160:	0741                	addi	a4,a4,16
     162:	fed76be3          	bltu	a4,a3,158 <memset+0x18>
     166:	e211                	bnez	a2,16a <memset+0x2a>
     168:	8082                	ret
     16a:	40c306b3          	sub	a3,t1,a2
     16e:	068a                	slli	a3,a3,0x2
     170:	00000297          	auipc	t0,0x0
     174:	9696                	add	a3,a3,t0
     176:	00a68067          	jr	10(a3)
     17a:	00b70723          	sb	a1,14(a4)
     17e:	00b706a3          	sb	a1,13(a4)
     182:	00b70623          	sb	a1,12(a4)
     186:	00b705a3          	sb	a1,11(a4)
     18a:	00b70523          	sb	a1,10(a4)
     18e:	00b704a3          	sb	a1,9(a4)
     192:	00b70423          	sb	a1,8(a4)
     196:	00b703a3          	sb	a1,7(a4)
     19a:	00b70323          	sb	a1,6(a4)
     19e:	00b702a3          	sb	a1,5(a4)
     1a2:	00b70223          	sb	a1,4(a4)
     1a6:	00b701a3          	sb	a1,3(a4)
     1aa:	00b70123          	sb	a1,2(a4)
     1ae:	00b700a3          	sb	a1,1(a4)
     1b2:	00b70023          	sb	a1,0(a4)
     1b6:	8082                	ret
     1b8:	0ff5f593          	andi	a1,a1,255
     1bc:	00859693          	slli	a3,a1,0x8
     1c0:	8dd5                	or	a1,a1,a3
     1c2:	01059693          	slli	a3,a1,0x10
     1c6:	8dd5                	or	a1,a1,a3
     1c8:	b761                	j	150 <memset+0x10>
     1ca:	00279693          	slli	a3,a5,0x2
     1ce:	00000297          	auipc	t0,0x0
     1d2:	9696                	add	a3,a3,t0
     1d4:	8286                	mv	t0,ra
     1d6:	fa8680e7          	jalr	-88(a3)
     1da:	8096                	mv	ra,t0
     1dc:	17c1                	addi	a5,a5,-16
     1de:	8f1d                	sub	a4,a4,a5
     1e0:	963e                	add	a2,a2,a5
     1e2:	f8c374e3          	bgeu	t1,a2,16a <memset+0x2a>
     1e6:	b7a5                	j	14e <memset+0xe>

000001e8 <EXTI0_IRQHandler>:
EXTI0_IRQHandler():
C:\Users\山东张\Desktop\新建文件夹\新建文件夹 (2)\SLAVE527\SLAVE-hui\obj/../USER/isr.c:61
//void RTCAlarm_IRQHandler(void) __attribute__((interrupt("WCH-Interrupt-fast")));
//void USBWakeUp_IRQHandler(void) __attribute__((interrupt("WCH-Interrupt-fast")));
//void USBHD_IRQHandler(void) __attribute__((interrupt("WCH-Interrupt-fast")));

void EXTI0_IRQHandler(void)
{
     1e8:	1141                	addi	sp,sp,-16
     1ea:	c622                	sw	s0,12(sp)
     1ec:	0800                	addi	s0,sp,16
C:\Users\山东张\Desktop\新建文件夹\新建文件夹 (2)\SLAVE527\SLAVE-hui\obj/../USER/isr.c:62
    if(SET == EXTI_GetITStatus(EXTI_Line0))
     1ee:	4505                	li	a0,1
     1f0:	0b8010ef          	jal	ra,12a8 <EXTI_GetITStatus>
     1f4:	872a                	mv	a4,a0
     1f6:	4785                	li	a5,1
     1f8:	00f71563          	bne	a4,a5,202 <EXTI0_IRQHandler+0x1a>
C:\Users\山东张\Desktop\新建文件夹\新建文件夹 (2)\SLAVE527\SLAVE-hui\obj/../USER/isr.c:65
    {

        EXTI_ClearITPendingBit(EXTI_Line0);
     1fc:	4505                	li	a0,1
     1fe:	100010ef          	jal	ra,12fe <EXTI_ClearITPendingBit>
C:\Users\山东张\Desktop\新建文件夹\新建文件夹 (2)\SLAVE527\SLAVE-hui\obj/../USER/isr.c:68
    }

}
     202:	0001                	nop
     204:	4432                	lw	s0,12(sp)
     206:	0141                	addi	sp,sp,16
     208:	30200073          	mret

0000020c <EXTI1_IRQHandler>:
EXTI1_IRQHandler():
C:\Users\山东张\Desktop\新建文件夹\新建文件夹 (2)\SLAVE527\SLAVE-hui\obj/../USER/isr.c:71

void EXTI1_IRQHandler(void)
{
     20c:	1141                	addi	sp,sp,-16
     20e:	c622                	sw	s0,12(sp)
     210:	0800                	addi	s0,sp,16
C:\Users\山东张\Desktop\新建文件夹\新建文件夹 (2)\SLAVE527\SLAVE-hui\obj/../USER/isr.c:72
    if(SET == EXTI_GetITStatus(EXTI_Line1))
     212:	4509                	li	a0,2
     214:	094010ef          	jal	ra,12a8 <EXTI_GetITStatus>
     218:	872a                	mv	a4,a0
     21a:	4785                	li	a5,1
     21c:	02f71463          	bne	a4,a5,244 <EXTI1_IRQHandler+0x38>
C:\Users\山东张\Desktop\新建文件夹\新建文件夹 (2)\SLAVE527\SLAVE-hui\obj/../USER/isr.c:74
    {
        if(camera_type == CAMERA_BIN_UART)
     220:	8081a703          	lw	a4,-2040(gp) # 200000c0 <camera_type>
     224:	4789                	li	a5,2
     226:	00f71563          	bne	a4,a5,230 <EXTI1_IRQHandler+0x24>
C:\Users\山东张\Desktop\新建文件夹\新建文件夹 (2)\SLAVE527\SLAVE-hui\obj/../USER/isr.c:75
            ov7725_uart_vsync();
     22a:	0a1020ef          	jal	ra,2aca <ov7725_uart_vsync>
     22e:	a801                	j	23e <EXTI1_IRQHandler+0x32>
C:\Users\山东张\Desktop\新建文件夹\新建文件夹 (2)\SLAVE527\SLAVE-hui\obj/../USER/isr.c:76
        else if(camera_type == CAMERA_GRAYSCALE)
     230:	8081a703          	lw	a4,-2040(gp) # 200000c0 <camera_type>
     234:	4785                	li	a5,1
     236:	00f71463          	bne	a4,a5,23e <EXTI1_IRQHandler+0x32>
C:\Users\山东张\Desktop\新建文件夹\新建文件夹 (2)\SLAVE527\SLAVE-hui\obj/../USER/isr.c:77
            mt9v03x_vsync();
     23a:	7bc020ef          	jal	ra,29f6 <mt9v03x_vsync>
C:\Users\山东张\Desktop\新建文件夹\新建文件夹 (2)\SLAVE527\SLAVE-hui\obj/../USER/isr.c:78
        EXTI_ClearITPendingBit(EXTI_Line1);
     23e:	4509                	li	a0,2
     240:	0be010ef          	jal	ra,12fe <EXTI_ClearITPendingBit>
C:\Users\山东张\Desktop\新建文件夹\新建文件夹 (2)\SLAVE527\SLAVE-hui\obj/../USER/isr.c:81
    }

}
     244:	0001                	nop
     246:	4432                	lw	s0,12(sp)
     248:	0141                	addi	sp,sp,16
     24a:	30200073          	mret

0000024e <EXTI2_IRQHandler>:
EXTI2_IRQHandler():
C:\Users\山东张\Desktop\新建文件夹\新建文件夹 (2)\SLAVE527\SLAVE-hui\obj/../USER/isr.c:84

void EXTI2_IRQHandler(void)
{
     24e:	1141                	addi	sp,sp,-16
     250:	c622                	sw	s0,12(sp)
     252:	0800                	addi	s0,sp,16
C:\Users\山东张\Desktop\新建文件夹\新建文件夹 (2)\SLAVE527\SLAVE-hui\obj/../USER/isr.c:85
    EXTI_ClearITPendingBit(EXTI_Line2);
     254:	4511                	li	a0,4
     256:	0a8010ef          	jal	ra,12fe <EXTI_ClearITPendingBit>
C:\Users\山东张\Desktop\新建文件夹\新建文件夹 (2)\SLAVE527\SLAVE-hui\obj/../USER/isr.c:86
}
     25a:	0001                	nop
     25c:	4432                	lw	s0,12(sp)
     25e:	0141                	addi	sp,sp,16
     260:	30200073          	mret

00000264 <EXTI3_IRQHandler>:
EXTI3_IRQHandler():
C:\Users\山东张\Desktop\新建文件夹\新建文件夹 (2)\SLAVE527\SLAVE-hui\obj/../USER/isr.c:89

void EXTI3_IRQHandler(void)
{
     264:	1141                	addi	sp,sp,-16
     266:	c622                	sw	s0,12(sp)
     268:	0800                	addi	s0,sp,16
C:\Users\山东张\Desktop\新建文件夹\新建文件夹 (2)\SLAVE527\SLAVE-hui\obj/../USER/isr.c:92


}
     26a:	0001                	nop
     26c:	4432                	lw	s0,12(sp)
     26e:	0141                	addi	sp,sp,16
     270:	30200073          	mret

00000274 <EXTI4_IRQHandler>:
EXTI4_IRQHandler():
C:\Users\山东张\Desktop\新建文件夹\新建文件夹 (2)\SLAVE527\SLAVE-hui\obj/../USER/isr.c:95

void EXTI4_IRQHandler(void)
{
     274:	1141                	addi	sp,sp,-16
     276:	c622                	sw	s0,12(sp)
     278:	0800                	addi	s0,sp,16
C:\Users\山东张\Desktop\新建文件夹\新建文件夹 (2)\SLAVE527\SLAVE-hui\obj/../USER/isr.c:98


}
     27a:	0001                	nop
     27c:	4432                	lw	s0,12(sp)
     27e:	0141                	addi	sp,sp,16
     280:	30200073          	mret

00000284 <EXTI9_5_IRQHandler>:
EXTI9_5_IRQHandler():
C:\Users\山东张\Desktop\新建文件夹\新建文件夹 (2)\SLAVE527\SLAVE-hui\obj/../USER/isr.c:101

void EXTI9_5_IRQHandler(void)
{
     284:	1141                	addi	sp,sp,-16
     286:	c622                	sw	s0,12(sp)
     288:	0800                	addi	s0,sp,16
C:\Users\山东张\Desktop\新建文件夹\新建文件夹 (2)\SLAVE527\SLAVE-hui\obj/../USER/isr.c:104


}
     28a:	0001                	nop
     28c:	4432                	lw	s0,12(sp)
     28e:	0141                	addi	sp,sp,16
     290:	30200073          	mret

00000294 <EXTI15_10_IRQHandler>:
EXTI15_10_IRQHandler():
C:\Users\山东张\Desktop\新建文件夹\新建文件夹 (2)\SLAVE527\SLAVE-hui\obj/../USER/isr.c:107

void EXTI15_10_IRQHandler(void)
{
     294:	1141                	addi	sp,sp,-16
     296:	c622                	sw	s0,12(sp)
     298:	0800                	addi	s0,sp,16
C:\Users\山东张\Desktop\新建文件夹\新建文件夹 (2)\SLAVE527\SLAVE-hui\obj/../USER/isr.c:109

}
     29a:	0001                	nop
     29c:	4432                	lw	s0,12(sp)
     29e:	0141                	addi	sp,sp,16
     2a0:	30200073          	mret

000002a4 <ADC1_2_IRQHandler>:
ADC1_2_IRQHandler():
C:\Users\山东张\Desktop\新建文件夹\新建文件夹 (2)\SLAVE527\SLAVE-hui\obj/../USER/isr.c:112

void ADC1_2_IRQHandler(void)
{
     2a4:	1141                	addi	sp,sp,-16
     2a6:	c622                	sw	s0,12(sp)
     2a8:	0800                	addi	s0,sp,16
C:\Users\山东张\Desktop\新建文件夹\新建文件夹 (2)\SLAVE527\SLAVE-hui\obj/../USER/isr.c:115


}
     2aa:	0001                	nop
     2ac:	4432                	lw	s0,12(sp)
     2ae:	0141                	addi	sp,sp,16
     2b0:	30200073          	mret

000002b4 <TIM1_BRK_IRQHandler>:
TIM1_BRK_IRQHandler():
C:\Users\山东张\Desktop\新建文件夹\新建文件夹 (2)\SLAVE527\SLAVE-hui\obj/../USER/isr.c:118

void TIM1_BRK_IRQHandler(void)
{
     2b4:	1141                	addi	sp,sp,-16
     2b6:	c622                	sw	s0,12(sp)
     2b8:	0800                	addi	s0,sp,16
C:\Users\山东张\Desktop\新建文件夹\新建文件夹 (2)\SLAVE527\SLAVE-hui\obj/../USER/isr.c:119
    if(TIM_GetITStatus(TIM1, TIM_IT_Break) != RESET)
     2ba:	08000593          	li	a1,128
     2be:	400137b7          	lui	a5,0x40013
     2c2:	c0078513          	addi	a0,a5,-1024 # 40012c00 <_eusrstack+0x2000dc00>
     2c6:	61f010ef          	jal	ra,20e4 <TIM_GetITStatus>
     2ca:	87aa                	mv	a5,a0
     2cc:	cb89                	beqz	a5,2de <TIM1_BRK_IRQHandler+0x2a>
C:\Users\山东张\Desktop\新建文件夹\新建文件夹 (2)\SLAVE527\SLAVE-hui\obj/../USER/isr.c:121
    {
        TIM_ClearITPendingBit(TIM1, TIM_IT_Break);
     2ce:	08000593          	li	a1,128
     2d2:	400137b7          	lui	a5,0x40013
     2d6:	c0078513          	addi	a0,a5,-1024 # 40012c00 <_eusrstack+0x2000dc00>
     2da:	67b010ef          	jal	ra,2154 <TIM_ClearITPendingBit>
C:\Users\山东张\Desktop\新建文件夹\新建文件夹 (2)\SLAVE527\SLAVE-hui\obj/../USER/isr.c:124

    }
}
     2de:	0001                	nop
     2e0:	4432                	lw	s0,12(sp)
     2e2:	0141                	addi	sp,sp,16
     2e4:	30200073          	mret

000002e8 <TIM1_UP_IRQHandler>:
TIM1_UP_IRQHandler():
C:\Users\山东张\Desktop\新建文件夹\新建文件夹 (2)\SLAVE527\SLAVE-hui\obj/../USER/isr.c:127

void TIM1_UP_IRQHandler(void)
{
     2e8:	1141                	addi	sp,sp,-16
     2ea:	c622                	sw	s0,12(sp)
     2ec:	0800                	addi	s0,sp,16
C:\Users\山东张\Desktop\新建文件夹\新建文件夹 (2)\SLAVE527\SLAVE-hui\obj/../USER/isr.c:128
    if(TIM_GetITStatus(TIM1, TIM_IT_Update) != RESET)
     2ee:	4585                	li	a1,1
     2f0:	400137b7          	lui	a5,0x40013
     2f4:	c0078513          	addi	a0,a5,-1024 # 40012c00 <_eusrstack+0x2000dc00>
     2f8:	5ed010ef          	jal	ra,20e4 <TIM_GetITStatus>
     2fc:	87aa                	mv	a5,a0
     2fe:	cb81                	beqz	a5,30e <TIM1_UP_IRQHandler+0x26>
C:\Users\山东张\Desktop\新建文件夹\新建文件夹 (2)\SLAVE527\SLAVE-hui\obj/../USER/isr.c:130
    {
        TIM_ClearITPendingBit(TIM1, TIM_IT_Update);
     300:	4585                	li	a1,1
     302:	400137b7          	lui	a5,0x40013
     306:	c0078513          	addi	a0,a5,-1024 # 40012c00 <_eusrstack+0x2000dc00>
     30a:	64b010ef          	jal	ra,2154 <TIM_ClearITPendingBit>
C:\Users\山东张\Desktop\新建文件夹\新建文件夹 (2)\SLAVE527\SLAVE-hui\obj/../USER/isr.c:133

    }
}
     30e:	0001                	nop
     310:	4432                	lw	s0,12(sp)
     312:	0141                	addi	sp,sp,16
     314:	30200073          	mret

00000318 <TIM1_TRG_COM_IRQHandler>:
TIM1_TRG_COM_IRQHandler():
C:\Users\山东张\Desktop\新建文件夹\新建文件夹 (2)\SLAVE527\SLAVE-hui\obj/../USER/isr.c:136

void TIM1_TRG_COM_IRQHandler(void)
{
     318:	1141                	addi	sp,sp,-16
     31a:	c622                	sw	s0,12(sp)
     31c:	0800                	addi	s0,sp,16
C:\Users\山东张\Desktop\新建文件夹\新建文件夹 (2)\SLAVE527\SLAVE-hui\obj/../USER/isr.c:137
    if(TIM_GetITStatus(TIM1, TIM_IT_Trigger) != RESET)
     31e:	04000593          	li	a1,64
     322:	400137b7          	lui	a5,0x40013
     326:	c0078513          	addi	a0,a5,-1024 # 40012c00 <_eusrstack+0x2000dc00>
     32a:	5bb010ef          	jal	ra,20e4 <TIM_GetITStatus>
     32e:	87aa                	mv	a5,a0
     330:	cb89                	beqz	a5,342 <TIM1_TRG_COM_IRQHandler+0x2a>
C:\Users\山东张\Desktop\新建文件夹\新建文件夹 (2)\SLAVE527\SLAVE-hui\obj/../USER/isr.c:139
    {
        TIM_ClearITPendingBit(TIM1, TIM_IT_Trigger);
     332:	04000593          	li	a1,64
     336:	400137b7          	lui	a5,0x40013
     33a:	c0078513          	addi	a0,a5,-1024 # 40012c00 <_eusrstack+0x2000dc00>
     33e:	617010ef          	jal	ra,2154 <TIM_ClearITPendingBit>
C:\Users\山东张\Desktop\新建文件夹\新建文件夹 (2)\SLAVE527\SLAVE-hui\obj/../USER/isr.c:142

    }
    if(TIM_GetITStatus(TIM1, TIM_IT_COM) != RESET)
     342:	02000593          	li	a1,32
     346:	400137b7          	lui	a5,0x40013
     34a:	c0078513          	addi	a0,a5,-1024 # 40012c00 <_eusrstack+0x2000dc00>
     34e:	597010ef          	jal	ra,20e4 <TIM_GetITStatus>
     352:	87aa                	mv	a5,a0
     354:	cb89                	beqz	a5,366 <TIM1_TRG_COM_IRQHandler+0x4e>
C:\Users\山东张\Desktop\新建文件夹\新建文件夹 (2)\SLAVE527\SLAVE-hui\obj/../USER/isr.c:144
    {
        TIM_ClearITPendingBit(TIM1, TIM_IT_COM);
     356:	02000593          	li	a1,32
     35a:	400137b7          	lui	a5,0x40013
     35e:	c0078513          	addi	a0,a5,-1024 # 40012c00 <_eusrstack+0x2000dc00>
     362:	5f3010ef          	jal	ra,2154 <TIM_ClearITPendingBit>
C:\Users\山东张\Desktop\新建文件夹\新建文件夹 (2)\SLAVE527\SLAVE-hui\obj/../USER/isr.c:147

    }
}
     366:	0001                	nop
     368:	4432                	lw	s0,12(sp)
     36a:	0141                	addi	sp,sp,16
     36c:	30200073          	mret

00000370 <TIM1_CC_IRQHandler>:
TIM1_CC_IRQHandler():
C:\Users\山东张\Desktop\新建文件夹\新建文件夹 (2)\SLAVE527\SLAVE-hui\obj/../USER/isr.c:150

void TIM1_CC_IRQHandler(void)
{
     370:	1141                	addi	sp,sp,-16
     372:	c622                	sw	s0,12(sp)
     374:	0800                	addi	s0,sp,16
C:\Users\山东张\Desktop\新建文件夹\新建文件夹 (2)\SLAVE527\SLAVE-hui\obj/../USER/isr.c:151
    if(TIM_GetITStatus(TIM1, TIM_IT_CC1) != RESET)
     376:	4589                	li	a1,2
     378:	400137b7          	lui	a5,0x40013
     37c:	c0078513          	addi	a0,a5,-1024 # 40012c00 <_eusrstack+0x2000dc00>
     380:	565010ef          	jal	ra,20e4 <TIM_GetITStatus>
     384:	87aa                	mv	a5,a0
     386:	cb81                	beqz	a5,396 <TIM1_CC_IRQHandler+0x26>
C:\Users\山东张\Desktop\新建文件夹\新建文件夹 (2)\SLAVE527\SLAVE-hui\obj/../USER/isr.c:153
    {
        TIM_ClearITPendingBit(TIM1, TIM_IT_CC1);
     388:	4589                	li	a1,2
     38a:	400137b7          	lui	a5,0x40013
     38e:	c0078513          	addi	a0,a5,-1024 # 40012c00 <_eusrstack+0x2000dc00>
     392:	5c3010ef          	jal	ra,2154 <TIM_ClearITPendingBit>
C:\Users\山东张\Desktop\新建文件夹\新建文件夹 (2)\SLAVE527\SLAVE-hui\obj/../USER/isr.c:156

    }
    if(TIM_GetITStatus(TIM1, TIM_IT_CC2) != RESET)
     396:	4591                	li	a1,4
     398:	400137b7          	lui	a5,0x40013
     39c:	c0078513          	addi	a0,a5,-1024 # 40012c00 <_eusrstack+0x2000dc00>
     3a0:	545010ef          	jal	ra,20e4 <TIM_GetITStatus>
     3a4:	87aa                	mv	a5,a0
     3a6:	cb81                	beqz	a5,3b6 <TIM1_CC_IRQHandler+0x46>
C:\Users\山东张\Desktop\新建文件夹\新建文件夹 (2)\SLAVE527\SLAVE-hui\obj/../USER/isr.c:158
    {
        TIM_ClearITPendingBit(TIM1, TIM_IT_CC2);
     3a8:	4591                	li	a1,4
     3aa:	400137b7          	lui	a5,0x40013
     3ae:	c0078513          	addi	a0,a5,-1024 # 40012c00 <_eusrstack+0x2000dc00>
     3b2:	5a3010ef          	jal	ra,2154 <TIM_ClearITPendingBit>
C:\Users\山东张\Desktop\新建文件夹\新建文件夹 (2)\SLAVE527\SLAVE-hui\obj/../USER/isr.c:161

    }
    if(TIM_GetITStatus(TIM1, TIM_IT_CC3) != RESET)
     3b6:	45a1                	li	a1,8
     3b8:	400137b7          	lui	a5,0x40013
     3bc:	c0078513          	addi	a0,a5,-1024 # 40012c00 <_eusrstack+0x2000dc00>
     3c0:	525010ef          	jal	ra,20e4 <TIM_GetITStatus>
     3c4:	87aa                	mv	a5,a0
     3c6:	cb81                	beqz	a5,3d6 <TIM1_CC_IRQHandler+0x66>
C:\Users\山东张\Desktop\新建文件夹\新建文件夹 (2)\SLAVE527\SLAVE-hui\obj/../USER/isr.c:163
    {
        TIM_ClearITPendingBit(TIM1, TIM_IT_CC3);
     3c8:	45a1                	li	a1,8
     3ca:	400137b7          	lui	a5,0x40013
     3ce:	c0078513          	addi	a0,a5,-1024 # 40012c00 <_eusrstack+0x2000dc00>
     3d2:	583010ef          	jal	ra,2154 <TIM_ClearITPendingBit>
C:\Users\山东张\Desktop\新建文件夹\新建文件夹 (2)\SLAVE527\SLAVE-hui\obj/../USER/isr.c:166

    }
    if(TIM_GetITStatus(TIM1, TIM_IT_CC4) != RESET)
     3d6:	45c1                	li	a1,16
     3d8:	400137b7          	lui	a5,0x40013
     3dc:	c0078513          	addi	a0,a5,-1024 # 40012c00 <_eusrstack+0x2000dc00>
     3e0:	505010ef          	jal	ra,20e4 <TIM_GetITStatus>
     3e4:	87aa                	mv	a5,a0
     3e6:	cb81                	beqz	a5,3f6 <TIM1_CC_IRQHandler+0x86>
C:\Users\山东张\Desktop\新建文件夹\新建文件夹 (2)\SLAVE527\SLAVE-hui\obj/../USER/isr.c:168
    {
        TIM_ClearITPendingBit(TIM1, TIM_IT_CC4);
     3e8:	45c1                	li	a1,16
     3ea:	400137b7          	lui	a5,0x40013
     3ee:	c0078513          	addi	a0,a5,-1024 # 40012c00 <_eusrstack+0x2000dc00>
     3f2:	563010ef          	jal	ra,2154 <TIM_ClearITPendingBit>
C:\Users\山东张\Desktop\新建文件夹\新建文件夹 (2)\SLAVE527\SLAVE-hui\obj/../USER/isr.c:171

    }
}
     3f6:	0001                	nop
     3f8:	4432                	lw	s0,12(sp)
     3fa:	0141                	addi	sp,sp,16
     3fc:	30200073          	mret

00000400 <TIM2_IRQHandler>:
TIM2_IRQHandler():
C:\Users\山东张\Desktop\新建文件夹\新建文件夹 (2)\SLAVE527\SLAVE-hui\obj/../USER/isr.c:174

void TIM2_IRQHandler(void)
{
     400:	1141                	addi	sp,sp,-16
     402:	c622                	sw	s0,12(sp)
     404:	0800                	addi	s0,sp,16
C:\Users\山东张\Desktop\新建文件夹\新建文件夹 (2)\SLAVE527\SLAVE-hui\obj/../USER/isr.c:176

    if(TIM_GetITStatus(TIM2, TIM_IT_Update) != RESET)
     406:	4585                	li	a1,1
     408:	40000537          	lui	a0,0x40000
     40c:	4d9010ef          	jal	ra,20e4 <TIM_GetITStatus>
     410:	87aa                	mv	a5,a0
     412:	c791                	beqz	a5,41e <TIM2_IRQHandler+0x1e>
C:\Users\山东张\Desktop\新建文件夹\新建文件夹 (2)\SLAVE527\SLAVE-hui\obj/../USER/isr.c:178
    {
        TIM_ClearITPendingBit(TIM2, TIM_IT_Update );
     414:	4585                	li	a1,1
     416:	40000537          	lui	a0,0x40000
     41a:	53b010ef          	jal	ra,2154 <TIM_ClearITPendingBit>
C:\Users\山东张\Desktop\新建文件夹\新建文件夹 (2)\SLAVE527\SLAVE-hui\obj/../USER/isr.c:184
        //ccd_collect();//CCD数据采集
        //gpio_toggle(B5);
        //GPIO_PIN_RESET(B5);
        //GPIO_PIN_SET(B5);
    }
}
     41e:	0001                	nop
     420:	4432                	lw	s0,12(sp)
     422:	0141                	addi	sp,sp,16
     424:	30200073          	mret

00000428 <TIM3_IRQHandler>:
TIM3_IRQHandler():
C:\Users\山东张\Desktop\新建文件夹\新建文件夹 (2)\SLAVE527\SLAVE-hui\obj/../USER/isr.c:187

void TIM3_IRQHandler(void)
{
     428:	1141                	addi	sp,sp,-16
     42a:	c622                	sw	s0,12(sp)
     42c:	0800                	addi	s0,sp,16
C:\Users\山东张\Desktop\新建文件夹\新建文件夹 (2)\SLAVE527\SLAVE-hui\obj/../USER/isr.c:188
    if(TIM_GetITStatus(TIM3, TIM_IT_Update) != RESET)
     42e:	4585                	li	a1,1
     430:	400007b7          	lui	a5,0x40000
     434:	40078513          	addi	a0,a5,1024 # 40000400 <_eusrstack+0x1fffb400>
     438:	4ad010ef          	jal	ra,20e4 <TIM_GetITStatus>
     43c:	87aa                	mv	a5,a0
     43e:	cb81                	beqz	a5,44e <TIM3_IRQHandler+0x26>
C:\Users\山东张\Desktop\新建文件夹\新建文件夹 (2)\SLAVE527\SLAVE-hui\obj/../USER/isr.c:190
    {
        TIM_ClearITPendingBit(TIM3, TIM_IT_Update );
     440:	4585                	li	a1,1
     442:	400007b7          	lui	a5,0x40000
     446:	40078513          	addi	a0,a5,1024 # 40000400 <_eusrstack+0x1fffb400>
     44a:	50b010ef          	jal	ra,2154 <TIM_ClearITPendingBit>
C:\Users\山东张\Desktop\新建文件夹\新建文件夹 (2)\SLAVE527\SLAVE-hui\obj/../USER/isr.c:193

    }
}
     44e:	0001                	nop
     450:	4432                	lw	s0,12(sp)
     452:	0141                	addi	sp,sp,16
     454:	30200073          	mret

00000458 <USART1_IRQHandler>:
USART1_IRQHandler():
C:\Users\山东张\Desktop\新建文件夹\新建文件夹 (2)\SLAVE527\SLAVE-hui\obj/../USER/isr.c:206
//        gpio_set(B0,0);
//    }
//}

void USART1_IRQHandler(void)
{
     458:	1141                	addi	sp,sp,-16
     45a:	c622                	sw	s0,12(sp)
     45c:	0800                	addi	s0,sp,16
C:\Users\山东张\Desktop\新建文件夹\新建文件夹 (2)\SLAVE527\SLAVE-hui\obj/../USER/isr.c:208

}
     45e:	0001                	nop
     460:	4432                	lw	s0,12(sp)
     462:	0141                	addi	sp,sp,16
     464:	30200073          	mret

00000468 <USART2_IRQHandler>:
USART2_IRQHandler():
C:\Users\山东张\Desktop\新建文件夹\新建文件夹 (2)\SLAVE527\SLAVE-hui\obj/../USER/isr.c:211

void USART2_IRQHandler(void)
{
     468:	1141                	addi	sp,sp,-16
     46a:	c622                	sw	s0,12(sp)
     46c:	0800                	addi	s0,sp,16
C:\Users\山东张\Desktop\新建文件夹\新建文件夹 (2)\SLAVE527\SLAVE-hui\obj/../USER/isr.c:212
    if(USART_GetITStatus(USART2, USART_IT_RXNE) != RESET)
     46e:	52500593          	li	a1,1317
     472:	400047b7          	lui	a5,0x40004
     476:	40078513          	addi	a0,a5,1024 # 40004400 <_eusrstack+0x1ffff400>
     47a:	0d4020ef          	jal	ra,254e <USART_GetITStatus>
     47e:	87aa                	mv	a5,a0
     480:	cb85                	beqz	a5,4b0 <USART2_IRQHandler+0x48>
C:\Users\山东张\Desktop\新建文件夹\新建文件夹 (2)\SLAVE527\SLAVE-hui\obj/../USER/isr.c:214
    {
        USART_ClearITPendingBit(USART2, USART_IT_RXNE);
     482:	52500593          	li	a1,1317
     486:	400047b7          	lui	a5,0x40004
     48a:	40078513          	addi	a0,a5,1024 # 40004400 <_eusrstack+0x1ffff400>
     48e:	1c2020ef          	jal	ra,2650 <USART_ClearITPendingBit>
C:\Users\山东张\Desktop\新建文件夹\新建文件夹 (2)\SLAVE527\SLAVE-hui\obj/../USER/isr.c:215
        if(camera_type == CAMERA_BIN_UART)
     492:	8081a703          	lw	a4,-2040(gp) # 200000c0 <camera_type>
     496:	4789                	li	a5,2
     498:	00f71563          	bne	a4,a5,4a2 <USART2_IRQHandler+0x3a>
C:\Users\山东张\Desktop\新建文件夹\新建文件夹 (2)\SLAVE527\SLAVE-hui\obj/../USER/isr.c:216
            ov7725_cof_uart_interrupt();
     49c:	5be020ef          	jal	ra,2a5a <ov7725_cof_uart_interrupt>
C:\Users\山东张\Desktop\新建文件夹\新建文件夹 (2)\SLAVE527\SLAVE-hui\obj/../USER/isr.c:220
        else if(camera_type == CAMERA_GRAYSCALE)
            mt9v03x_uart_callback();
    }
}
     4a0:	a801                	j	4b0 <USART2_IRQHandler+0x48>
C:\Users\山东张\Desktop\新建文件夹\新建文件夹 (2)\SLAVE527\SLAVE-hui\obj/../USER/isr.c:217
        else if(camera_type == CAMERA_GRAYSCALE)
     4a2:	8081a703          	lw	a4,-2040(gp) # 200000c0 <camera_type>
     4a6:	4785                	li	a5,1
     4a8:	00f71463          	bne	a4,a5,4b0 <USART2_IRQHandler+0x48>
C:\Users\山东张\Desktop\新建文件夹\新建文件夹 (2)\SLAVE527\SLAVE-hui\obj/../USER/isr.c:218
            mt9v03x_uart_callback();
     4ac:	1f2020ef          	jal	ra,269e <mt9v03x_uart_callback>
C:\Users\山东张\Desktop\新建文件夹\新建文件夹 (2)\SLAVE527\SLAVE-hui\obj/../USER/isr.c:220
}
     4b0:	0001                	nop
     4b2:	4432                	lw	s0,12(sp)
     4b4:	0141                	addi	sp,sp,16
     4b6:	30200073          	mret

000004ba <USART3_IRQHandler>:
USART3_IRQHandler():
C:\Users\山东张\Desktop\新建文件夹\新建文件夹 (2)\SLAVE527\SLAVE-hui\obj/../USER/isr.c:223

void USART3_IRQHandler(void)
{
     4ba:	1141                	addi	sp,sp,-16
     4bc:	c622                	sw	s0,12(sp)
     4be:	0800                	addi	s0,sp,16
C:\Users\山东张\Desktop\新建文件夹\新建文件夹 (2)\SLAVE527\SLAVE-hui\obj/../USER/isr.c:225

}
     4c0:	0001                	nop
     4c2:	4432                	lw	s0,12(sp)
     4c4:	0141                	addi	sp,sp,16
     4c6:	30200073          	mret

000004ca <DMA1_Channel4_IRQHandler>:
DMA1_Channel4_IRQHandler():
C:\Users\山东张\Desktop\新建文件夹\新建文件夹 (2)\SLAVE527\SLAVE-hui\obj/../USER/isr.c:228

void DMA1_Channel4_IRQHandler(void)
{
     4ca:	1141                	addi	sp,sp,-16
     4cc:	c622                	sw	s0,12(sp)
     4ce:	0800                	addi	s0,sp,16
C:\Users\山东张\Desktop\新建文件夹\新建文件夹 (2)\SLAVE527\SLAVE-hui\obj/../USER/isr.c:229
    if(SET == DMA_GetFlagStatus(DMA1_FLAG_TC4))
     4d0:	6509                	lui	a0,0x2
     4d2:	3d3000ef          	jal	ra,10a4 <DMA_GetFlagStatus>
     4d6:	872a                	mv	a4,a0
     4d8:	4785                	li	a5,1
     4da:	02f71463          	bne	a4,a5,502 <DMA1_Channel4_IRQHandler+0x38>
C:\Users\山东张\Desktop\新建文件夹\新建文件夹 (2)\SLAVE527\SLAVE-hui\obj/../USER/isr.c:231
    {
        DMA_ClearFlag(DMA1_FLAG_TC4);
     4de:	6509                	lui	a0,0x2
     4e0:	421000ef          	jal	ra,1100 <DMA_ClearFlag>
C:\Users\山东张\Desktop\新建文件夹\新建文件夹 (2)\SLAVE527\SLAVE-hui\obj/../USER/isr.c:232
        if(camera_type == CAMERA_BIN_UART)
     4e4:	8081a703          	lw	a4,-2040(gp) # 200000c0 <camera_type>
     4e8:	4789                	li	a5,2
     4ea:	00f71563          	bne	a4,a5,4f4 <DMA1_Channel4_IRQHandler+0x2a>
C:\Users\山东张\Desktop\新建文件夹\新建文件夹 (2)\SLAVE527\SLAVE-hui\obj/../USER/isr.c:233
            ov7725_uart_dma();
     4ee:	612020ef          	jal	ra,2b00 <ov7725_uart_dma>
C:\Users\山东张\Desktop\新建文件夹\新建文件夹 (2)\SLAVE527\SLAVE-hui\obj/../USER/isr.c:237
        else if(camera_type == CAMERA_GRAYSCALE)
            mt9v03x_dma();
    }
}
     4f2:	a801                	j	502 <DMA1_Channel4_IRQHandler+0x38>
C:\Users\山东张\Desktop\新建文件夹\新建文件夹 (2)\SLAVE527\SLAVE-hui\obj/../USER/isr.c:234
        else if(camera_type == CAMERA_GRAYSCALE)
     4f4:	8081a703          	lw	a4,-2040(gp) # 200000c0 <camera_type>
     4f8:	4785                	li	a5,1
     4fa:	00f71463          	bne	a4,a5,502 <DMA1_Channel4_IRQHandler+0x38>
C:\Users\山东张\Desktop\新建文件夹\新建文件夹 (2)\SLAVE527\SLAVE-hui\obj/../USER/isr.c:235
            mt9v03x_dma();
     4fe:	52e020ef          	jal	ra,2a2c <mt9v03x_dma>
C:\Users\山东张\Desktop\新建文件夹\新建文件夹 (2)\SLAVE527\SLAVE-hui\obj/../USER/isr.c:237
}
     502:	0001                	nop
     504:	4432                	lw	s0,12(sp)
     506:	0141                	addi	sp,sp,16
     508:	30200073          	mret

0000050c <NMI_Handler>:
NMI_Handler():
C:\Users\山东张\Desktop\新建文件夹\新建文件夹 (2)\SLAVE527\SLAVE-hui\obj/../USER/isr.c:246
* Description    : This function handles NMI exception.
* Input          : None
* Return         : None
*******************************************************************************/
void NMI_Handler(void)
{
     50c:	1141                	addi	sp,sp,-16
     50e:	c622                	sw	s0,12(sp)
     510:	0800                	addi	s0,sp,16
C:\Users\山东张\Desktop\新建文件夹\新建文件夹 (2)\SLAVE527\SLAVE-hui\obj/../USER/isr.c:248

}
     512:	0001                	nop
     514:	4432                	lw	s0,12(sp)
     516:	0141                	addi	sp,sp,16
     518:	30200073          	mret

0000051c <HardFault_Handler>:
HardFault_Handler():
C:\Users\山东张\Desktop\新建文件夹\新建文件夹 (2)\SLAVE527\SLAVE-hui\obj/../USER/isr.c:257
* Description    : This function handles Hard Fault exception.
* Input          : None
* Return         : None
*******************************************************************************/
void HardFault_Handler(void)
{
     51c:	1141                	addi	sp,sp,-16
     51e:	c622                	sw	s0,12(sp)
     520:	0800                	addi	s0,sp,16
C:\Users\山东张\Desktop\新建文件夹\新建文件夹 (2)\SLAVE527\SLAVE-hui\obj/../USER/isr.c:259 (discriminator 1)

  while (1)
     522:	a001                	j	522 <HardFault_Handler+0x6>

00000524 <read_c14gpio>:
read_c14gpio():
C:\Users\山东张\Desktop\新建文件夹\新建文件夹 (2)\SLAVE527\SLAVE-hui\obj/../USER/main.c:19
int16 i, w;

struct Button button1;
uint8_t buflag = 0;
uint8_t read_c14gpio(void)
{
     524:	1141                	addi	sp,sp,-16
     526:	c606                	sw	ra,12(sp)
     528:	c422                	sw	s0,8(sp)
     52a:	0800                	addi	s0,sp,16
C:\Users\山东张\Desktop\新建文件夹\新建文件夹 (2)\SLAVE527\SLAVE-hui\obj/../USER/main.c:20
    return gpio_get(C14);
     52c:	04e00513          	li	a0,78
     530:	2c5020ef          	jal	ra,2ff4 <gpio_get>
     534:	87aa                	mv	a5,a0
C:\Users\山东张\Desktop\新建文件夹\新建文件夹 (2)\SLAVE527\SLAVE-hui\obj/../USER/main.c:21
}
     536:	853e                	mv	a0,a5
     538:	40b2                	lw	ra,12(sp)
     53a:	4422                	lw	s0,8(sp)
     53c:	0141                	addi	sp,sp,16
     53e:	8082                	ret

00000540 <btn1_press_up_Handler>:
btn1_press_up_Handler():
C:\Users\山东张\Desktop\新建文件夹\新建文件夹 (2)\SLAVE527\SLAVE-hui\obj/../USER/main.c:23
void btn1_press_up_Handler(void* btn)
{
     540:	1101                	addi	sp,sp,-32
     542:	ce22                	sw	s0,28(sp)
     544:	1000                	addi	s0,sp,32
     546:	fea42623          	sw	a0,-20(s0)
C:\Users\山东张\Desktop\新建文件夹\新建文件夹 (2)\SLAVE527\SLAVE-hui\obj/../USER/main.c:24
   buflag = !buflag;
     54a:	8241c783          	lbu	a5,-2012(gp) # 200000dc <buflag>
     54e:	0017b793          	seqz	a5,a5
     552:	0ff7f793          	andi	a5,a5,255
     556:	873e                	mv	a4,a5
     558:	82e18223          	sb	a4,-2012(gp) # 200000dc <buflag>
C:\Users\山东张\Desktop\新建文件夹\新建文件夹 (2)\SLAVE527\SLAVE-hui\obj/../USER/main.c:25
}
     55c:	0001                	nop
     55e:	4472                	lw	s0,28(sp)
     560:	6105                	addi	sp,sp,32
     562:	8082                	ret

00000564 <get_sensor_data>:
get_sensor_data():
C:\Users\山东张\Desktop\新建文件夹\新建文件夹 (2)\SLAVE527\SLAVE-hui\obj/../USER/main.c:34
//  @return     void
//  @since      v1.0
//  Sample usage:
//-------------------------------------------------------------------------------------------------------------------
void get_sensor_data(void)
{
     564:	1141                	addi	sp,sp,-16
     566:	c606                	sw	ra,12(sp)
     568:	c422                	sw	s0,8(sp)
     56a:	0800                	addi	s0,sp,16
C:\Users\山东张\Desktop\新建文件夹\新建文件夹 (2)\SLAVE527\SLAVE-hui\obj/../USER/main.c:35
    slave_encoder_LB = timer_quad_get(TIMER_3);      //B4-B5编码器取值
     56c:	4509                	li	a0,2
     56e:	120030ef          	jal	ra,368e <timer_quad_get>
     572:	87aa                	mv	a5,a0
     574:	873e                	mv	a4,a5
     576:	80e19d23          	sh	a4,-2022(gp) # 200000d2 <slave_encoder_LB>
C:\Users\山东张\Desktop\新建文件夹\新建文件夹 (2)\SLAVE527\SLAVE-hui\obj/../USER/main.c:36
    slave_encoder_RB = timer_quad_get(TIMER_2);       //A15-B3编码器取值
     57a:	4505                	li	a0,1
     57c:	112030ef          	jal	ra,368e <timer_quad_get>
     580:	87aa                	mv	a5,a0
     582:	873e                	mv	a4,a5
     584:	80e19c23          	sh	a4,-2024(gp) # 200000d0 <_edata>
C:\Users\山东张\Desktop\新建文件夹\新建文件夹 (2)\SLAVE527\SLAVE-hui\obj/../USER/main.c:37
    timer_quad_clear(TIMER_2);                          //清空计数器
     588:	4505                	li	a0,1
     58a:	136030ef          	jal	ra,36c0 <timer_quad_clear>
C:\Users\山东张\Desktop\新建文件夹\新建文件夹 (2)\SLAVE527\SLAVE-hui\obj/../USER/main.c:38
    timer_quad_clear(TIMER_3);                          //清空计数器
     58e:	4509                	li	a0,2
     590:	130030ef          	jal	ra,36c0 <timer_quad_clear>
C:\Users\山东张\Desktop\新建文件夹\新建文件夹 (2)\SLAVE527\SLAVE-hui\obj/../USER/main.c:40

}
     594:	0001                	nop
     596:	40b2                	lw	ra,12(sp)
     598:	4422                	lw	s0,8(sp)
     59a:	0141                	addi	sp,sp,16
     59c:	8082                	ret

0000059e <process_data>:
process_data():
C:\Users\山东张\Desktop\新建文件夹\新建文件夹 (2)\SLAVE527\SLAVE-hui\obj/../USER/main.c:49
//  @return     void
//  @since      v1.0
//  Sample usage:
//-------------------------------------------------------------------------------------------------------------------
void process_data(void)
{
     59e:	1141                	addi	sp,sp,-16
     5a0:	c622                	sw	s0,12(sp)
     5a2:	0800                	addi	s0,sp,16
C:\Users\山东张\Desktop\新建文件夹\新建文件夹 (2)\SLAVE527\SLAVE-hui\obj/../USER/main.c:50
    temp_buff[0] = 0xD8;                         //帧头
     5a4:	fd800713          	li	a4,-40
     5a8:	84e18823          	sb	a4,-1968(gp) # 20000108 <temp_buff>
C:\Users\山东张\Desktop\新建文件夹\新建文件夹 (2)\SLAVE527\SLAVE-hui\obj/../USER/main.c:52

    temp_buff[1] = 0xB0;                         //功能字
     5ac:	85018793          	addi	a5,gp,-1968 # 20000108 <temp_buff>
     5b0:	fb000713          	li	a4,-80
     5b4:	00e780a3          	sb	a4,1(a5)
C:\Users\山东张\Desktop\新建文件夹\新建文件夹 (2)\SLAVE527\SLAVE-hui\obj/../USER/main.c:53
    temp_buff[2] = slave_encoder_RB>>8;        //数据高8位
     5b8:	81819783          	lh	a5,-2024(gp) # 200000d0 <_edata>
     5bc:	87a1                	srai	a5,a5,0x8
     5be:	07c2                	slli	a5,a5,0x10
     5c0:	87c1                	srai	a5,a5,0x10
     5c2:	0ff7f713          	andi	a4,a5,255
     5c6:	85018793          	addi	a5,gp,-1968 # 20000108 <temp_buff>
     5ca:	00e78123          	sb	a4,2(a5)
C:\Users\山东张\Desktop\新建文件夹\新建文件夹 (2)\SLAVE527\SLAVE-hui\obj/../USER/main.c:54
    temp_buff[3] = slave_encoder_RB&0xFF;      //数据低8位
     5ce:	81819783          	lh	a5,-2024(gp) # 200000d0 <_edata>
     5d2:	0ff7f713          	andi	a4,a5,255
     5d6:	85018793          	addi	a5,gp,-1968 # 20000108 <temp_buff>
     5da:	00e781a3          	sb	a4,3(a5)
C:\Users\山东张\Desktop\新建文件夹\新建文件夹 (2)\SLAVE527\SLAVE-hui\obj/../USER/main.c:56

    temp_buff[4] = 0xB1;                         //功能字
     5de:	85018793          	addi	a5,gp,-1968 # 20000108 <temp_buff>
     5e2:	fb100713          	li	a4,-79
     5e6:	00e78223          	sb	a4,4(a5)
C:\Users\山东张\Desktop\新建文件夹\新建文件夹 (2)\SLAVE527\SLAVE-hui\obj/../USER/main.c:57
    temp_buff[5] = slave_encoder_LB>>8;       //数据高8位
     5ea:	81a19783          	lh	a5,-2022(gp) # 200000d2 <slave_encoder_LB>
     5ee:	87a1                	srai	a5,a5,0x8
     5f0:	07c2                	slli	a5,a5,0x10
     5f2:	87c1                	srai	a5,a5,0x10
     5f4:	0ff7f713          	andi	a4,a5,255
     5f8:	85018793          	addi	a5,gp,-1968 # 20000108 <temp_buff>
     5fc:	00e782a3          	sb	a4,5(a5)
C:\Users\山东张\Desktop\新建文件夹\新建文件夹 (2)\SLAVE527\SLAVE-hui\obj/../USER/main.c:58
    temp_buff[6] = slave_encoder_LB&0xFF;     //数据低8位
     600:	81a19783          	lh	a5,-2022(gp) # 200000d2 <slave_encoder_LB>
     604:	0ff7f713          	andi	a4,a5,255
     608:	85018793          	addi	a5,gp,-1968 # 20000108 <temp_buff>
     60c:	00e78323          	sb	a4,6(a5)
C:\Users\山东张\Desktop\新建文件夹\新建文件夹 (2)\SLAVE527\SLAVE-hui\obj/../USER/main.c:60

    temp_buff[7] = 0xB2;                         //功能字
     610:	85018793          	addi	a5,gp,-1968 # 20000108 <temp_buff>
     614:	fb200713          	li	a4,-78
     618:	00e783a3          	sb	a4,7(a5)
C:\Users\山东张\Desktop\新建文件夹\新建文件夹 (2)\SLAVE527\SLAVE-hui\obj/../USER/main.c:61
    temp_buff[8] = tag3[symbals];            //数据1
     61c:	8c418793          	addi	a5,gp,-1852 # 2000017c <tag3>
     620:	0147c703          	lbu	a4,20(a5)
     624:	85018793          	addi	a5,gp,-1968 # 20000108 <temp_buff>
     628:	00e78423          	sb	a4,8(a5)
C:\Users\山东张\Desktop\新建文件夹\新建文件夹 (2)\SLAVE527\SLAVE-hui\obj/../USER/main.c:63
   // temp_buff[8] = 0x05;
    temp_buff[9] = tag5;                     //数据2
     62c:	81c1c703          	lbu	a4,-2020(gp) # 200000d4 <tag5>
     630:	85018793          	addi	a5,gp,-1968 # 20000108 <temp_buff>
     634:	00e784a3          	sb	a4,9(a5)
C:\Users\山东张\Desktop\新建文件夹\新建文件夹 (2)\SLAVE527\SLAVE-hui\obj/../USER/main.c:64
    if (buflag == 0)
     638:	8241c783          	lbu	a5,-2012(gp) # 200000dc <buflag>
     63c:	eb81                	bnez	a5,64c <process_data+0xae>
C:\Users\山东张\Desktop\新建文件夹\新建文件夹 (2)\SLAVE527\SLAVE-hui\obj/../USER/main.c:66
    {
        temp_buff[10] = 0xA1;
     63e:	85018793          	addi	a5,gp,-1968 # 20000108 <temp_buff>
     642:	fa100713          	li	a4,-95
     646:	00e78523          	sb	a4,10(a5)
     64a:	a039                	j	658 <process_data+0xba>
C:\Users\山东张\Desktop\新建文件夹\新建文件夹 (2)\SLAVE527\SLAVE-hui\obj/../USER/main.c:70
    }
    else
    {
        temp_buff[10] = 0xA2;
     64c:	85018793          	addi	a5,gp,-1968 # 20000108 <temp_buff>
     650:	fa200713          	li	a4,-94
     654:	00e78523          	sb	a4,10(a5)
C:\Users\山东张\Desktop\新建文件夹\新建文件夹 (2)\SLAVE527\SLAVE-hui\obj/../USER/main.c:73
    }

    temp_buff[11] = 0xEE;                        //帧尾
     658:	85018793          	addi	a5,gp,-1968 # 20000108 <temp_buff>
     65c:	5739                	li	a4,-18
     65e:	00e785a3          	sb	a4,11(a5)
C:\Users\山东张\Desktop\新建文件夹\新建文件夹 (2)\SLAVE527\SLAVE-hui\obj/../USER/main.c:74
}
     662:	0001                	nop
     664:	4432                	lw	s0,12(sp)
     666:	0141                	addi	sp,sp,16
     668:	8082                	ret

0000066a <TIM4_IRQHandler>:
TIM4_IRQHandler():
C:\Users\山东张\Desktop\新建文件夹\新建文件夹 (2)\SLAVE527\SLAVE-hui\obj/../USER/main.c:85
//  @since      v1.0
//  Sample usage:
//-------------------------------------------------------------------------------------------------------------------
void TIM4_IRQHandler(void) __attribute__((interrupt("WCH-Interrupt-fast")));
void TIM4_IRQHandler(void)
{
     66a:	1141                	addi	sp,sp,-16
     66c:	c622                	sw	s0,12(sp)
     66e:	0800                	addi	s0,sp,16
C:\Users\山东张\Desktop\新建文件夹\新建文件夹 (2)\SLAVE527\SLAVE-hui\obj/../USER/main.c:86
    if(TIM_GetITStatus(TIM4, TIM_IT_Update) != RESET)
     670:	4585                	li	a1,1
     672:	400017b7          	lui	a5,0x40001
     676:	80078513          	addi	a0,a5,-2048 # 40000800 <_eusrstack+0x1fffb800>
     67a:	26b010ef          	jal	ra,20e4 <TIM_GetITStatus>
     67e:	87aa                	mv	a5,a0
     680:	cf85                	beqz	a5,6b8 <TIM4_IRQHandler+0x4e>
C:\Users\山东张\Desktop\新建文件夹\新建文件夹 (2)\SLAVE527\SLAVE-hui\obj/../USER/main.c:88
    {
        TIM_ClearITPendingBit(TIM4, TIM_IT_Update);
     682:	4585                	li	a1,1
     684:	400017b7          	lui	a5,0x40001
     688:	80078513          	addi	a0,a5,-2048 # 40000800 <_eusrstack+0x1fffb800>
     68c:	2c9010ef          	jal	ra,2154 <TIM_ClearITPendingBit>
C:\Users\山东张\Desktop\新建文件夹\新建文件夹 (2)\SLAVE527\SLAVE-hui\obj/../USER/main.c:89
        gpio_set(B0,1);                           //A0引脚拉高
     690:	4585                	li	a1,1
     692:	02000513          	li	a0,32
     696:	0e1020ef          	jal	ra,2f76 <gpio_set>
C:\Users\山东张\Desktop\新建文件夹\新建文件夹 (2)\SLAVE527\SLAVE-hui\obj/../USER/main.c:91

        get_sensor_data();                          //获取传感器数据。
     69a:	35e9                	jal	564 <get_sensor_data>
C:\Users\山东张\Desktop\新建文件夹\新建文件夹 (2)\SLAVE527\SLAVE-hui\obj/../USER/main.c:92
        process_data();                             //根据协议处理数据，并存入temp_buff中。
     69c:	3709                	jal	59e <process_data>
C:\Users\山东张\Desktop\新建文件夹\新建文件夹 (2)\SLAVE527\SLAVE-hui\obj/../USER/main.c:93
        uart_putbuff(UART_1, temp_buff, LINE_LEN);  //通过串口1将数据发送出去。
     69e:	4631                	li	a2,12
     6a0:	85018593          	addi	a1,gp,-1968 # 20000108 <temp_buff>
     6a4:	4501                	li	a0,0
     6a6:	31a030ef          	jal	ra,39c0 <uart_putbuff>
C:\Users\山东张\Desktop\新建文件夹\新建文件夹 (2)\SLAVE527\SLAVE-hui\obj/../USER/main.c:94
        button_ticks();
     6aa:	403030ef          	jal	ra,42ac <button_ticks>
C:\Users\山东张\Desktop\新建文件夹\新建文件夹 (2)\SLAVE527\SLAVE-hui\obj/../USER/main.c:95
        gpio_set(B0, 0);                         //A0引脚拉低
     6ae:	4581                	li	a1,0
     6b0:	02000513          	li	a0,32
     6b4:	0c3020ef          	jal	ra,2f76 <gpio_set>
C:\Users\山东张\Desktop\新建文件夹\新建文件夹 (2)\SLAVE527\SLAVE-hui\obj/../USER/main.c:97
    }
}
     6b8:	0001                	nop
     6ba:	4432                	lw	s0,12(sp)
     6bc:	0141                	addi	sp,sp,16
     6be:	30200073          	mret

000006c2 <whu>:
whu():
C:\Users\山东张\Desktop\新建文件夹\新建文件夹 (2)\SLAVE527\SLAVE-hui\obj/../USER/main.c:187
        else tag8 = 0;
        tag3[i] = (tag1[i] + tag2[i]) / 2;               //取中线，改变后面计算
    }
}
void whu(void)
{
     6c2:	1141                	addi	sp,sp,-16
     6c4:	c622                	sw	s0,12(sp)
     6c6:	0800                	addi	s0,sp,16
C:\Users\山东张\Desktop\新建文件夹\新建文件夹 (2)\SLAVE527\SLAVE-hui\obj/../USER/main.c:188
    tag8 = 1;
     6c8:	200007b7          	lui	a5,0x20000
     6cc:	4705                	li	a4,1
     6ce:	0ae78c23          	sb	a4,184(a5) # 200000b8 <tag8>
C:\Users\山东张\Desktop\新建文件夹\新建文件夹 (2)\SLAVE527\SLAVE-hui\obj/../USER/main.c:189
        tag5 = 0;
     6d2:	80018e23          	sb	zero,-2020(gp) # 200000d4 <tag5>
C:\Users\山东张\Desktop\新建文件夹\新建文件夹 (2)\SLAVE527\SLAVE-hui\obj/../USER/main.c:190
        tag1[49] = 184;
     6d6:	85c18793          	addi	a5,gp,-1956 # 20000114 <tag1>
     6da:	fb800713          	li	a4,-72
     6de:	02e788a3          	sb	a4,49(a5)
C:\Users\山东张\Desktop\新建文件夹\新建文件夹 (2)\SLAVE527\SLAVE-hui\obj/../USER/main.c:191
        tag2[49] = 10;
     6e2:	89018793          	addi	a5,gp,-1904 # 20000148 <tag2>
     6e6:	4729                	li	a4,10
     6e8:	02e788a3          	sb	a4,49(a5)
C:\Users\山东张\Desktop\新建文件夹\新建文件夹 (2)\SLAVE527\SLAVE-hui\obj/../USER/main.c:192
        for (i = MT9V03X_H - 2; i >= 0; i--)      //取左右边界
     6ec:	03000713          	li	a4,48
     6f0:	82e19023          	sh	a4,-2016(gp) # 200000d8 <i>
     6f4:	ab21                	j	c0c <__stack_size+0x40c>
C:\Users\山东张\Desktop\新建文件夹\新建文件夹 (2)\SLAVE527\SLAVE-hui\obj/../USER/main.c:194
        {
            tag3[i] = 97;                          //取中线
     6f6:	82019783          	lh	a5,-2016(gp) # 200000d8 <i>
     6fa:	873e                	mv	a4,a5
     6fc:	8c418793          	addi	a5,gp,-1852 # 2000017c <tag3>
     700:	97ba                	add	a5,a5,a4
     702:	06100713          	li	a4,97
     706:	00e78023          	sb	a4,0(a5)
C:\Users\山东张\Desktop\新建文件夹\新建文件夹 (2)\SLAVE527\SLAVE-hui\obj/../USER/main.c:195
            tag1[i] = 138;
     70a:	82019783          	lh	a5,-2016(gp) # 200000d8 <i>
     70e:	873e                	mv	a4,a5
     710:	85c18793          	addi	a5,gp,-1956 # 20000114 <tag1>
     714:	97ba                	add	a5,a5,a4
     716:	f8a00713          	li	a4,-118
     71a:	00e78023          	sb	a4,0(a5)
C:\Users\山东张\Desktop\新建文件夹\新建文件夹 (2)\SLAVE527\SLAVE-hui\obj/../USER/main.c:196
            tag2[i] = 50;
     71e:	82019783          	lh	a5,-2016(gp) # 200000d8 <i>
     722:	873e                	mv	a4,a5
     724:	89018793          	addi	a5,gp,-1904 # 20000148 <tag2>
     728:	97ba                	add	a5,a5,a4
     72a:	03200713          	li	a4,50
     72e:	00e78023          	sb	a4,0(a5)
C:\Users\山东张\Desktop\新建文件夹\新建文件夹 (2)\SLAVE527\SLAVE-hui\obj/../USER/main.c:197
            tag6 = 0;
     732:	80018ea3          	sb	zero,-2019(gp) # 200000d5 <tag6>
C:\Users\山东张\Desktop\新建文件夹\新建文件夹 (2)\SLAVE527\SLAVE-hui\obj/../USER/main.c:198
            tag7 = 0;
     736:	80018f23          	sb	zero,-2018(gp) # 200000d6 <tag7>
C:\Users\山东张\Desktop\新建文件夹\新建文件夹 (2)\SLAVE527\SLAVE-hui\obj/../USER/main.c:199
            for (w = tag3[i]; w < MT9V03X_W - 1; w++)
     73a:	82019783          	lh	a5,-2016(gp) # 200000d8 <i>
     73e:	873e                	mv	a4,a5
     740:	8c418793          	addi	a5,gp,-1852 # 2000017c <tag3>
     744:	97ba                	add	a5,a5,a4
     746:	0007c783          	lbu	a5,0(a5)
     74a:	01079713          	slli	a4,a5,0x10
     74e:	8741                	srai	a4,a4,0x10
     750:	82e19123          	sh	a4,-2014(gp) # 200000da <w>
     754:	aaad                	j	8ce <__stack_size+0xce>
C:\Users\山东张\Desktop\新建文件夹\新建文件夹 (2)\SLAVE527\SLAVE-hui\obj/../USER/main.c:201
            {
                if ((mt9v03x_image[i][w] - mt9v03x_image[i][w-1] > chazhi && mt9v03x_image[i][w] > mt9v03x_image[i][w-1]) || (mt9v03x_image[i][w-1] - mt9v03x_image[i][w] > chazhi && mt9v03x_image[i][w] < mt9v03x_image[i][w-1]))
     756:	82019783          	lh	a5,-2016(gp) # 200000d8 <i>
     75a:	863e                	mv	a2,a5
     75c:	82219783          	lh	a5,-2014(gp) # 200000da <w>
     760:	86be                	mv	a3,a5
     762:	200007b7          	lui	a5,0x20000
     766:	0bc00713          	li	a4,188
     76a:	02e60733          	mul	a4,a2,a4
     76e:	1d878793          	addi	a5,a5,472 # 200001d8 <mt9v03x_image>
     772:	97ba                	add	a5,a5,a4
     774:	97b6                	add	a5,a5,a3
     776:	0007c783          	lbu	a5,0(a5)
     77a:	863e                	mv	a2,a5
     77c:	82019783          	lh	a5,-2016(gp) # 200000d8 <i>
     780:	85be                	mv	a1,a5
     782:	82219783          	lh	a5,-2014(gp) # 200000da <w>
     786:	17fd                	addi	a5,a5,-1
     788:	20000737          	lui	a4,0x20000
     78c:	0bc00693          	li	a3,188
     790:	02d586b3          	mul	a3,a1,a3
     794:	1d870713          	addi	a4,a4,472 # 200001d8 <mt9v03x_image>
     798:	9736                	add	a4,a4,a3
     79a:	97ba                	add	a5,a5,a4
     79c:	0007c783          	lbu	a5,0(a5)
     7a0:	40f60733          	sub	a4,a2,a5
     7a4:	47f9                	li	a5,30
     7a6:	04e7d863          	bge	a5,a4,7f6 <whu+0x134>
C:\Users\山东张\Desktop\新建文件夹\新建文件夹 (2)\SLAVE527\SLAVE-hui\obj/../USER/main.c:201 (discriminator 1)
     7aa:	82019783          	lh	a5,-2016(gp) # 200000d8 <i>
     7ae:	863e                	mv	a2,a5
     7b0:	82219783          	lh	a5,-2014(gp) # 200000da <w>
     7b4:	86be                	mv	a3,a5
     7b6:	200007b7          	lui	a5,0x20000
     7ba:	0bc00713          	li	a4,188
     7be:	02e60733          	mul	a4,a2,a4
     7c2:	1d878793          	addi	a5,a5,472 # 200001d8 <mt9v03x_image>
     7c6:	97ba                	add	a5,a5,a4
     7c8:	97b6                	add	a5,a5,a3
     7ca:	0007c703          	lbu	a4,0(a5)
     7ce:	82019783          	lh	a5,-2016(gp) # 200000d8 <i>
     7d2:	85be                	mv	a1,a5
     7d4:	82219783          	lh	a5,-2014(gp) # 200000da <w>
     7d8:	17fd                	addi	a5,a5,-1
     7da:	200006b7          	lui	a3,0x20000
     7de:	0bc00613          	li	a2,188
     7e2:	02c58633          	mul	a2,a1,a2
     7e6:	1d868693          	addi	a3,a3,472 # 200001d8 <mt9v03x_image>
     7ea:	96b2                	add	a3,a3,a2
     7ec:	97b6                	add	a5,a5,a3
     7ee:	0007c783          	lbu	a5,0(a5)
     7f2:	0ae7e263          	bltu	a5,a4,896 <__stack_size+0x96>
C:\Users\山东张\Desktop\新建文件夹\新建文件夹 (2)\SLAVE527\SLAVE-hui\obj/../USER/main.c:201 (discriminator 3)
     7f6:	82019783          	lh	a5,-2016(gp) # 200000d8 <i>
     7fa:	863e                	mv	a2,a5
     7fc:	82219783          	lh	a5,-2014(gp) # 200000da <w>
     800:	17fd                	addi	a5,a5,-1
     802:	20000737          	lui	a4,0x20000
     806:	0bc00693          	li	a3,188
     80a:	02d606b3          	mul	a3,a2,a3
     80e:	1d870713          	addi	a4,a4,472 # 200001d8 <mt9v03x_image>
     812:	9736                	add	a4,a4,a3
     814:	97ba                	add	a5,a5,a4
     816:	0007c783          	lbu	a5,0(a5)
     81a:	86be                	mv	a3,a5
     81c:	82019783          	lh	a5,-2016(gp) # 200000d8 <i>
     820:	85be                	mv	a1,a5
     822:	82219783          	lh	a5,-2014(gp) # 200000da <w>
     826:	863e                	mv	a2,a5
     828:	200007b7          	lui	a5,0x20000
     82c:	0bc00713          	li	a4,188
     830:	02e58733          	mul	a4,a1,a4
     834:	1d878793          	addi	a5,a5,472 # 200001d8 <mt9v03x_image>
     838:	97ba                	add	a5,a5,a4
     83a:	97b2                	add	a5,a5,a2
     83c:	0007c783          	lbu	a5,0(a5)
     840:	40f68733          	sub	a4,a3,a5
     844:	47f9                	li	a5,30
     846:	06e7d863          	bge	a5,a4,8b6 <__stack_size+0xb6>
C:\Users\山东张\Desktop\新建文件夹\新建文件夹 (2)\SLAVE527\SLAVE-hui\obj/../USER/main.c:201 (discriminator 4)
     84a:	82019783          	lh	a5,-2016(gp) # 200000d8 <i>
     84e:	863e                	mv	a2,a5
     850:	82219783          	lh	a5,-2014(gp) # 200000da <w>
     854:	86be                	mv	a3,a5
     856:	200007b7          	lui	a5,0x20000
     85a:	0bc00713          	li	a4,188
     85e:	02e60733          	mul	a4,a2,a4
     862:	1d878793          	addi	a5,a5,472 # 200001d8 <mt9v03x_image>
     866:	97ba                	add	a5,a5,a4
     868:	97b6                	add	a5,a5,a3
     86a:	0007c703          	lbu	a4,0(a5)
     86e:	82019783          	lh	a5,-2016(gp) # 200000d8 <i>
     872:	85be                	mv	a1,a5
     874:	82219783          	lh	a5,-2014(gp) # 200000da <w>
     878:	17fd                	addi	a5,a5,-1
     87a:	200006b7          	lui	a3,0x20000
     87e:	0bc00613          	li	a2,188
     882:	02c58633          	mul	a2,a1,a2
     886:	1d868693          	addi	a3,a3,472 # 200001d8 <mt9v03x_image>
     88a:	96b2                	add	a3,a3,a2
     88c:	97b6                	add	a5,a5,a3
     88e:	0007c783          	lbu	a5,0(a5)
     892:	02f77263          	bgeu	a4,a5,8b6 <__stack_size+0xb6>
C:\Users\山东张\Desktop\新建文件夹\新建文件夹 (2)\SLAVE527\SLAVE-hui\obj/../USER/main.c:203
                {
                    tag1[i] = w;
     896:	82219703          	lh	a4,-2014(gp) # 200000da <w>
     89a:	82019783          	lh	a5,-2016(gp) # 200000d8 <i>
     89e:	86be                	mv	a3,a5
     8a0:	0ff77713          	andi	a4,a4,255
     8a4:	85c18793          	addi	a5,gp,-1956 # 20000114 <tag1>
     8a8:	97b6                	add	a5,a5,a3
     8aa:	00e78023          	sb	a4,0(a5)
C:\Users\山东张\Desktop\新建文件夹\新建文件夹 (2)\SLAVE527\SLAVE-hui\obj/../USER/main.c:204
                    tag6 = 1;
     8ae:	4705                	li	a4,1
     8b0:	80e18ea3          	sb	a4,-2019(gp) # 200000d5 <tag6>
C:\Users\山东张\Desktop\新建文件夹\新建文件夹 (2)\SLAVE527\SLAVE-hui\obj/../USER/main.c:205
                    break;
     8b4:	a01d                	j	8da <__stack_size+0xda>
C:\Users\山东张\Desktop\新建文件夹\新建文件夹 (2)\SLAVE527\SLAVE-hui\obj/../USER/main.c:199 (discriminator 2)
            for (w = tag3[i]; w < MT9V03X_W - 1; w++)
     8b6:	82219783          	lh	a5,-2014(gp) # 200000da <w>
     8ba:	07c2                	slli	a5,a5,0x10
     8bc:	83c1                	srli	a5,a5,0x10
     8be:	0785                	addi	a5,a5,1
     8c0:	07c2                	slli	a5,a5,0x10
     8c2:	83c1                	srli	a5,a5,0x10
     8c4:	01079713          	slli	a4,a5,0x10
     8c8:	8741                	srai	a4,a4,0x10
     8ca:	82e19123          	sh	a4,-2014(gp) # 200000da <w>
C:\Users\山东张\Desktop\新建文件夹\新建文件夹 (2)\SLAVE527\SLAVE-hui\obj/../USER/main.c:199 (discriminator 1)
     8ce:	82219703          	lh	a4,-2014(gp) # 200000da <w>
     8d2:	0ba00793          	li	a5,186
     8d6:	e8e7d0e3          	bge	a5,a4,756 <whu+0x94>
C:\Users\山东张\Desktop\新建文件夹\新建文件夹 (2)\SLAVE527\SLAVE-hui\obj/../USER/main.c:208
                }
            }
            for (w = tag3[i]; w >= 0; w--)
     8da:	82019783          	lh	a5,-2016(gp) # 200000d8 <i>
     8de:	873e                	mv	a4,a5
     8e0:	8c418793          	addi	a5,gp,-1852 # 2000017c <tag3>
     8e4:	97ba                	add	a5,a5,a4
     8e6:	0007c783          	lbu	a5,0(a5)
     8ea:	01079713          	slli	a4,a5,0x10
     8ee:	8741                	srai	a4,a4,0x10
     8f0:	82e19123          	sh	a4,-2014(gp) # 200000da <w>
     8f4:	aaad                	j	a6e <__stack_size+0x26e>
C:\Users\山东张\Desktop\新建文件夹\新建文件夹 (2)\SLAVE527\SLAVE-hui\obj/../USER/main.c:210
            {
                if ((mt9v03x_image[i][w] - mt9v03x_image[i][w+1] > chazhi && mt9v03x_image[i][w] > mt9v03x_image[i][w+1]) || (mt9v03x_image[i][w+1] - mt9v03x_image[i][w] > chazhi && mt9v03x_image[i][w] < mt9v03x_image[i][w+1]))
     8f6:	82019783          	lh	a5,-2016(gp) # 200000d8 <i>
     8fa:	863e                	mv	a2,a5
     8fc:	82219783          	lh	a5,-2014(gp) # 200000da <w>
     900:	86be                	mv	a3,a5
     902:	200007b7          	lui	a5,0x20000
     906:	0bc00713          	li	a4,188
     90a:	02e60733          	mul	a4,a2,a4
     90e:	1d878793          	addi	a5,a5,472 # 200001d8 <mt9v03x_image>
     912:	97ba                	add	a5,a5,a4
     914:	97b6                	add	a5,a5,a3
     916:	0007c783          	lbu	a5,0(a5)
     91a:	863e                	mv	a2,a5
     91c:	82019783          	lh	a5,-2016(gp) # 200000d8 <i>
     920:	85be                	mv	a1,a5
     922:	82219783          	lh	a5,-2014(gp) # 200000da <w>
     926:	0785                	addi	a5,a5,1
     928:	20000737          	lui	a4,0x20000
     92c:	0bc00693          	li	a3,188
     930:	02d586b3          	mul	a3,a1,a3
     934:	1d870713          	addi	a4,a4,472 # 200001d8 <mt9v03x_image>
     938:	9736                	add	a4,a4,a3
     93a:	97ba                	add	a5,a5,a4
     93c:	0007c783          	lbu	a5,0(a5)
     940:	40f60733          	sub	a4,a2,a5
     944:	47f9                	li	a5,30
     946:	04e7d863          	bge	a5,a4,996 <__stack_size+0x196>
C:\Users\山东张\Desktop\新建文件夹\新建文件夹 (2)\SLAVE527\SLAVE-hui\obj/../USER/main.c:210 (discriminator 1)
     94a:	82019783          	lh	a5,-2016(gp) # 200000d8 <i>
     94e:	863e                	mv	a2,a5
     950:	82219783          	lh	a5,-2014(gp) # 200000da <w>
     954:	86be                	mv	a3,a5
     956:	200007b7          	lui	a5,0x20000
     95a:	0bc00713          	li	a4,188
     95e:	02e60733          	mul	a4,a2,a4
     962:	1d878793          	addi	a5,a5,472 # 200001d8 <mt9v03x_image>
     966:	97ba                	add	a5,a5,a4
     968:	97b6                	add	a5,a5,a3
     96a:	0007c703          	lbu	a4,0(a5)
     96e:	82019783          	lh	a5,-2016(gp) # 200000d8 <i>
     972:	85be                	mv	a1,a5
     974:	82219783          	lh	a5,-2014(gp) # 200000da <w>
     978:	0785                	addi	a5,a5,1
     97a:	200006b7          	lui	a3,0x20000
     97e:	0bc00613          	li	a2,188
     982:	02c58633          	mul	a2,a1,a2
     986:	1d868693          	addi	a3,a3,472 # 200001d8 <mt9v03x_image>
     98a:	96b2                	add	a3,a3,a2
     98c:	97b6                	add	a5,a5,a3
     98e:	0007c783          	lbu	a5,0(a5)
     992:	0ae7e263          	bltu	a5,a4,a36 <__stack_size+0x236>
C:\Users\山东张\Desktop\新建文件夹\新建文件夹 (2)\SLAVE527\SLAVE-hui\obj/../USER/main.c:210 (discriminator 3)
     996:	82019783          	lh	a5,-2016(gp) # 200000d8 <i>
     99a:	863e                	mv	a2,a5
     99c:	82219783          	lh	a5,-2014(gp) # 200000da <w>
     9a0:	0785                	addi	a5,a5,1
     9a2:	20000737          	lui	a4,0x20000
     9a6:	0bc00693          	li	a3,188
     9aa:	02d606b3          	mul	a3,a2,a3
     9ae:	1d870713          	addi	a4,a4,472 # 200001d8 <mt9v03x_image>
     9b2:	9736                	add	a4,a4,a3
     9b4:	97ba                	add	a5,a5,a4
     9b6:	0007c783          	lbu	a5,0(a5)
     9ba:	86be                	mv	a3,a5
     9bc:	82019783          	lh	a5,-2016(gp) # 200000d8 <i>
     9c0:	85be                	mv	a1,a5
     9c2:	82219783          	lh	a5,-2014(gp) # 200000da <w>
     9c6:	863e                	mv	a2,a5
     9c8:	200007b7          	lui	a5,0x20000
     9cc:	0bc00713          	li	a4,188
     9d0:	02e58733          	mul	a4,a1,a4
     9d4:	1d878793          	addi	a5,a5,472 # 200001d8 <mt9v03x_image>
     9d8:	97ba                	add	a5,a5,a4
     9da:	97b2                	add	a5,a5,a2
     9dc:	0007c783          	lbu	a5,0(a5)
     9e0:	40f68733          	sub	a4,a3,a5
     9e4:	47f9                	li	a5,30
     9e6:	06e7d863          	bge	a5,a4,a56 <__stack_size+0x256>
C:\Users\山东张\Desktop\新建文件夹\新建文件夹 (2)\SLAVE527\SLAVE-hui\obj/../USER/main.c:210 (discriminator 4)
     9ea:	82019783          	lh	a5,-2016(gp) # 200000d8 <i>
     9ee:	863e                	mv	a2,a5
     9f0:	82219783          	lh	a5,-2014(gp) # 200000da <w>
     9f4:	86be                	mv	a3,a5
     9f6:	200007b7          	lui	a5,0x20000
     9fa:	0bc00713          	li	a4,188
     9fe:	02e60733          	mul	a4,a2,a4
     a02:	1d878793          	addi	a5,a5,472 # 200001d8 <mt9v03x_image>
     a06:	97ba                	add	a5,a5,a4
     a08:	97b6                	add	a5,a5,a3
     a0a:	0007c703          	lbu	a4,0(a5)
     a0e:	82019783          	lh	a5,-2016(gp) # 200000d8 <i>
     a12:	85be                	mv	a1,a5
     a14:	82219783          	lh	a5,-2014(gp) # 200000da <w>
     a18:	0785                	addi	a5,a5,1
     a1a:	200006b7          	lui	a3,0x20000
     a1e:	0bc00613          	li	a2,188
     a22:	02c58633          	mul	a2,a1,a2
     a26:	1d868693          	addi	a3,a3,472 # 200001d8 <mt9v03x_image>
     a2a:	96b2                	add	a3,a3,a2
     a2c:	97b6                	add	a5,a5,a3
     a2e:	0007c783          	lbu	a5,0(a5)
     a32:	02f77263          	bgeu	a4,a5,a56 <__stack_size+0x256>
C:\Users\山东张\Desktop\新建文件夹\新建文件夹 (2)\SLAVE527\SLAVE-hui\obj/../USER/main.c:212
                {
                    tag2[i] = w;
     a36:	82219703          	lh	a4,-2014(gp) # 200000da <w>
     a3a:	82019783          	lh	a5,-2016(gp) # 200000d8 <i>
     a3e:	86be                	mv	a3,a5
     a40:	0ff77713          	andi	a4,a4,255
     a44:	89018793          	addi	a5,gp,-1904 # 20000148 <tag2>
     a48:	97b6                	add	a5,a5,a3
     a4a:	00e78023          	sb	a4,0(a5)
C:\Users\山东张\Desktop\新建文件夹\新建文件夹 (2)\SLAVE527\SLAVE-hui\obj/../USER/main.c:213
                    tag7 = 1;
     a4e:	4705                	li	a4,1
     a50:	80e18f23          	sb	a4,-2018(gp) # 200000d6 <tag7>
C:\Users\山东张\Desktop\新建文件夹\新建文件夹 (2)\SLAVE527\SLAVE-hui\obj/../USER/main.c:214
                    break;
     a54:	a00d                	j	a76 <__stack_size+0x276>
C:\Users\山东张\Desktop\新建文件夹\新建文件夹 (2)\SLAVE527\SLAVE-hui\obj/../USER/main.c:208 (discriminator 2)
            for (w = tag3[i]; w >= 0; w--)
     a56:	82219783          	lh	a5,-2014(gp) # 200000da <w>
     a5a:	07c2                	slli	a5,a5,0x10
     a5c:	83c1                	srli	a5,a5,0x10
     a5e:	17fd                	addi	a5,a5,-1
     a60:	07c2                	slli	a5,a5,0x10
     a62:	83c1                	srli	a5,a5,0x10
     a64:	01079713          	slli	a4,a5,0x10
     a68:	8741                	srai	a4,a4,0x10
     a6a:	82e19123          	sh	a4,-2014(gp) # 200000da <w>
C:\Users\山东张\Desktop\新建文件夹\新建文件夹 (2)\SLAVE527\SLAVE-hui\obj/../USER/main.c:208 (discriminator 1)
     a6e:	82219783          	lh	a5,-2014(gp) # 200000da <w>
     a72:	e807d2e3          	bgez	a5,8f6 <__stack_size+0xf6>
C:\Users\山东张\Desktop\新建文件夹\新建文件夹 (2)\SLAVE527\SLAVE-hui\obj/../USER/main.c:217
                }
            }
            if (tag6 == 0 || tag7 == 0)
     a76:	81d1c783          	lbu	a5,-2019(gp) # 200000d5 <tag6>
     a7a:	c789                	beqz	a5,a84 <__stack_size+0x284>
C:\Users\山东张\Desktop\新建文件夹\新建文件夹 (2)\SLAVE527\SLAVE-hui\obj/../USER/main.c:217 (discriminator 1)
     a7c:	81e1c783          	lbu	a5,-2018(gp) # 200000d6 <tag7>
     a80:	0e079363          	bnez	a5,b66 <__stack_size+0x366>
C:\Users\山东张\Desktop\新建文件夹\新建文件夹 (2)\SLAVE527\SLAVE-hui\obj/../USER/main.c:233
                if (i > 35)
                        {
                            tag1[i] = 94;
                            tag2[i] = 94;
                        }*/
                if (i == 30 && tag8 == 0 && (tag6 == 0 && tag7 == 0))
     a84:	82019703          	lh	a4,-2016(gp) # 200000d8 <i>
     a88:	47f9                	li	a5,30
     a8a:	02f71263          	bne	a4,a5,aae <__stack_size+0x2ae>
C:\Users\山东张\Desktop\新建文件夹\新建文件夹 (2)\SLAVE527\SLAVE-hui\obj/../USER/main.c:233 (discriminator 1)
     a8e:	200007b7          	lui	a5,0x20000
     a92:	0b87c783          	lbu	a5,184(a5) # 200000b8 <tag8>
     a96:	ef81                	bnez	a5,aae <__stack_size+0x2ae>
C:\Users\山东张\Desktop\新建文件夹\新建文件夹 (2)\SLAVE527\SLAVE-hui\obj/../USER/main.c:233 (discriminator 2)
     a98:	81d1c783          	lbu	a5,-2019(gp) # 200000d5 <tag6>
     a9c:	eb89                	bnez	a5,aae <__stack_size+0x2ae>
C:\Users\山东张\Desktop\新建文件夹\新建文件夹 (2)\SLAVE527\SLAVE-hui\obj/../USER/main.c:233 (discriminator 3)
     a9e:	81e1c783          	lbu	a5,-2018(gp) # 200000d6 <tag7>
     aa2:	e791                	bnez	a5,aae <__stack_size+0x2ae>
C:\Users\山东张\Desktop\新建文件夹\新建文件夹 (2)\SLAVE527\SLAVE-hui\obj/../USER/main.c:235
                                        {
                                            tag5 = 0xf1;
     aa4:	5745                	li	a4,-15
     aa6:	80e18e23          	sb	a4,-2020(gp) # 200000d4 <tag5>
C:\Users\山东张\Desktop\新建文件夹\新建文件夹 (2)\SLAVE527\SLAVE-hui\obj/../USER/main.c:236
                                            tag9 = 0;
     aaa:	80018fa3          	sb	zero,-2017(gp) # 200000d7 <tag9>
C:\Users\山东张\Desktop\新建文件夹\新建文件夹 (2)\SLAVE527\SLAVE-hui\obj/../USER/main.c:238
                                        }
                                    if (i > 35)
     aae:	82019703          	lh	a4,-2016(gp) # 200000d8 <i>
     ab2:	02300793          	li	a5,35
     ab6:	02e7dc63          	bge	a5,a4,aee <__stack_size+0x2ee>
C:\Users\山东张\Desktop\新建文件夹\新建文件夹 (2)\SLAVE527\SLAVE-hui\obj/../USER/main.c:240
                                    {
                                        if (tag6 == 0) tag1[i] = 184;
     aba:	81d1c783          	lbu	a5,-2019(gp) # 200000d5 <tag6>
     abe:	eb99                	bnez	a5,ad4 <__stack_size+0x2d4>
C:\Users\山东张\Desktop\新建文件夹\新建文件夹 (2)\SLAVE527\SLAVE-hui\obj/../USER/main.c:240 (discriminator 1)
     ac0:	82019783          	lh	a5,-2016(gp) # 200000d8 <i>
     ac4:	873e                	mv	a4,a5
     ac6:	85c18793          	addi	a5,gp,-1956 # 20000114 <tag1>
     aca:	97ba                	add	a5,a5,a4
     acc:	fb800713          	li	a4,-72
     ad0:	00e78023          	sb	a4,0(a5)
C:\Users\山东张\Desktop\新建文件夹\新建文件夹 (2)\SLAVE527\SLAVE-hui\obj/../USER/main.c:241
                                        if (tag7 == 0) tag2[i] = 10;
     ad4:	81e1c783          	lbu	a5,-2018(gp) # 200000d6 <tag7>
     ad8:	efa9                	bnez	a5,b32 <__stack_size+0x332>
C:\Users\山东张\Desktop\新建文件夹\新建文件夹 (2)\SLAVE527\SLAVE-hui\obj/../USER/main.c:241 (discriminator 1)
     ada:	82019783          	lh	a5,-2016(gp) # 200000d8 <i>
     ade:	873e                	mv	a4,a5
     ae0:	89018793          	addi	a5,gp,-1904 # 20000148 <tag2>
     ae4:	97ba                	add	a5,a5,a4
     ae6:	4729                	li	a4,10
     ae8:	00e78023          	sb	a4,0(a5)
     aec:	a099                	j	b32 <__stack_size+0x332>
C:\Users\山东张\Desktop\新建文件夹\新建文件夹 (2)\SLAVE527\SLAVE-hui\obj/../USER/main.c:245
                                    }
                                    else
                                    {
                                        tag1[i] = tag1[i+1];
     aee:	82019783          	lh	a5,-2016(gp) # 200000d8 <i>
     af2:	00178713          	addi	a4,a5,1
     af6:	82019783          	lh	a5,-2016(gp) # 200000d8 <i>
     afa:	86be                	mv	a3,a5
     afc:	85c18793          	addi	a5,gp,-1956 # 20000114 <tag1>
     b00:	97ba                	add	a5,a5,a4
     b02:	0007c703          	lbu	a4,0(a5)
     b06:	85c18793          	addi	a5,gp,-1956 # 20000114 <tag1>
     b0a:	97b6                	add	a5,a5,a3
     b0c:	00e78023          	sb	a4,0(a5)
C:\Users\山东张\Desktop\新建文件夹\新建文件夹 (2)\SLAVE527\SLAVE-hui\obj/../USER/main.c:246
                                        tag2[i] = tag2[i+1];
     b10:	82019783          	lh	a5,-2016(gp) # 200000d8 <i>
     b14:	00178713          	addi	a4,a5,1
     b18:	82019783          	lh	a5,-2016(gp) # 200000d8 <i>
     b1c:	86be                	mv	a3,a5
     b1e:	89018793          	addi	a5,gp,-1904 # 20000148 <tag2>
     b22:	97ba                	add	a5,a5,a4
     b24:	0007c703          	lbu	a4,0(a5)
     b28:	89018793          	addi	a5,gp,-1904 # 20000148 <tag2>
     b2c:	97b6                	add	a5,a5,a3
     b2e:	00e78023          	sb	a4,0(a5)
C:\Users\山东张\Desktop\新建文件夹\新建文件夹 (2)\SLAVE527\SLAVE-hui\obj/../USER/main.c:248
                                    }
                                        if (tag6 == 0 && tag7 == 0)
     b32:	81d1c783          	lbu	a5,-2019(gp) # 200000d5 <tag6>
     b36:	ef8d                	bnez	a5,b70 <__stack_size+0x370>
C:\Users\山东张\Desktop\新建文件夹\新建文件夹 (2)\SLAVE527\SLAVE-hui\obj/../USER/main.c:248 (discriminator 1)
     b38:	81e1c783          	lbu	a5,-2018(gp) # 200000d6 <tag7>
     b3c:	eb95                	bnez	a5,b70 <__stack_size+0x370>
C:\Users\山东张\Desktop\新建文件夹\新建文件夹 (2)\SLAVE527\SLAVE-hui\obj/../USER/main.c:250
                                        {
                                            tag1[i] = 184;
     b3e:	82019783          	lh	a5,-2016(gp) # 200000d8 <i>
     b42:	873e                	mv	a4,a5
     b44:	85c18793          	addi	a5,gp,-1956 # 20000114 <tag1>
     b48:	97ba                	add	a5,a5,a4
     b4a:	fb800713          	li	a4,-72
     b4e:	00e78023          	sb	a4,0(a5)
C:\Users\山东张\Desktop\新建文件夹\新建文件夹 (2)\SLAVE527\SLAVE-hui\obj/../USER/main.c:251
                                            tag2[i] = 10;
     b52:	82019783          	lh	a5,-2016(gp) # 200000d8 <i>
     b56:	873e                	mv	a4,a5
     b58:	89018793          	addi	a5,gp,-1904 # 20000148 <tag2>
     b5c:	97ba                	add	a5,a5,a4
     b5e:	4729                	li	a4,10
     b60:	00e78023          	sb	a4,0(a5)
C:\Users\山东张\Desktop\新建文件夹\新建文件夹 (2)\SLAVE527\SLAVE-hui\obj/../USER/main.c:248
                                        if (tag6 == 0 && tag7 == 0)
     b64:	a031                	j	b70 <__stack_size+0x370>
C:\Users\山东张\Desktop\新建文件夹\新建文件夹 (2)\SLAVE527\SLAVE-hui\obj/../USER/main.c:254
                                        }
            }
            else tag8 = 0;
     b66:	200007b7          	lui	a5,0x20000
     b6a:	0a078c23          	sb	zero,184(a5) # 200000b8 <tag8>
     b6e:	a011                	j	b72 <__stack_size+0x372>
C:\Users\山东张\Desktop\新建文件夹\新建文件夹 (2)\SLAVE527\SLAVE-hui\obj/../USER/main.c:248
                                        if (tag6 == 0 && tag7 == 0)
     b70:	0001                	nop
C:\Users\山东张\Desktop\新建文件夹\新建文件夹 (2)\SLAVE527\SLAVE-hui\obj/../USER/main.c:255
            tag3[i] = (tag1[i] + tag2[i]) / 2;               //取中线，改变后面计算
     b72:	82019783          	lh	a5,-2016(gp) # 200000d8 <i>
     b76:	873e                	mv	a4,a5
     b78:	85c18793          	addi	a5,gp,-1956 # 20000114 <tag1>
     b7c:	97ba                	add	a5,a5,a4
     b7e:	0007c783          	lbu	a5,0(a5)
     b82:	873e                	mv	a4,a5
     b84:	82019783          	lh	a5,-2016(gp) # 200000d8 <i>
     b88:	86be                	mv	a3,a5
     b8a:	89018793          	addi	a5,gp,-1904 # 20000148 <tag2>
     b8e:	97b6                	add	a5,a5,a3
     b90:	0007c783          	lbu	a5,0(a5)
     b94:	97ba                	add	a5,a5,a4
     b96:	01f7d713          	srli	a4,a5,0x1f
     b9a:	97ba                	add	a5,a5,a4
     b9c:	8785                	srai	a5,a5,0x1
     b9e:	873e                	mv	a4,a5
     ba0:	82019783          	lh	a5,-2016(gp) # 200000d8 <i>
     ba4:	86be                	mv	a3,a5
     ba6:	0ff77713          	andi	a4,a4,255
     baa:	8c418793          	addi	a5,gp,-1852 # 2000017c <tag3>
     bae:	97b6                	add	a5,a5,a3
     bb0:	00e78023          	sb	a4,0(a5)
C:\Users\山东张\Desktop\新建文件夹\新建文件夹 (2)\SLAVE527\SLAVE-hui\obj/../USER/main.c:256
            if (i == 30)
     bb4:	82019703          	lh	a4,-2016(gp) # 200000d8 <i>
     bb8:	47f9                	li	a5,30
     bba:	02f71d63          	bne	a4,a5,bf4 <__stack_size+0x3f4>
C:\Users\山东张\Desktop\新建文件夹\新建文件夹 (2)\SLAVE527\SLAVE-hui\obj/../USER/main.c:258
                    {
                    if (tag1[i] < 107 || tag2[i] > 87)
     bbe:	82019783          	lh	a5,-2016(gp) # 200000d8 <i>
     bc2:	873e                	mv	a4,a5
     bc4:	85c18793          	addi	a5,gp,-1956 # 20000114 <tag1>
     bc8:	97ba                	add	a5,a5,a4
     bca:	0007c703          	lbu	a4,0(a5)
     bce:	06a00793          	li	a5,106
     bd2:	00e7fe63          	bgeu	a5,a4,bee <__stack_size+0x3ee>
C:\Users\山东张\Desktop\新建文件夹\新建文件夹 (2)\SLAVE527\SLAVE-hui\obj/../USER/main.c:258 (discriminator 1)
     bd6:	82019783          	lh	a5,-2016(gp) # 200000d8 <i>
     bda:	873e                	mv	a4,a5
     bdc:	89018793          	addi	a5,gp,-1904 # 20000148 <tag2>
     be0:	97ba                	add	a5,a5,a4
     be2:	0007c703          	lbu	a4,0(a5)
     be6:	05700793          	li	a5,87
     bea:	00e7f563          	bgeu	a5,a4,bf4 <__stack_size+0x3f4>
C:\Users\山东张\Desktop\新建文件夹\新建文件夹 (2)\SLAVE527\SLAVE-hui\obj/../USER/main.c:260
                    {
                        tag5 = 0xf4;
     bee:	5751                	li	a4,-12
     bf0:	80e18e23          	sb	a4,-2020(gp) # 200000d4 <tag5>
C:\Users\山东张\Desktop\新建文件夹\新建文件夹 (2)\SLAVE527\SLAVE-hui\obj/../USER/main.c:192 (discriminator 2)
        for (i = MT9V03X_H - 2; i >= 0; i--)      //取左右边界
     bf4:	82019783          	lh	a5,-2016(gp) # 200000d8 <i>
     bf8:	07c2                	slli	a5,a5,0x10
     bfa:	83c1                	srli	a5,a5,0x10
     bfc:	17fd                	addi	a5,a5,-1
     bfe:	07c2                	slli	a5,a5,0x10
     c00:	83c1                	srli	a5,a5,0x10
     c02:	01079713          	slli	a4,a5,0x10
     c06:	8741                	srai	a4,a4,0x10
     c08:	82e19023          	sh	a4,-2016(gp) # 200000d8 <i>
C:\Users\山东张\Desktop\新建文件夹\新建文件夹 (2)\SLAVE527\SLAVE-hui\obj/../USER/main.c:192 (discriminator 1)
     c0c:	82019783          	lh	a5,-2016(gp) # 200000d8 <i>
     c10:	ae07d3e3          	bgez	a5,6f6 <whu+0x34>
C:\Users\山东张\Desktop\新建文件夹\新建文件夹 (2)\SLAVE527\SLAVE-hui\obj/../USER/main.c:264
                    }
                    }
        }
}
     c14:	0001                	nop
     c16:	4432                	lw	s0,12(sp)
     c18:	0141                	addi	sp,sp,16
     c1a:	8082                	ret

00000c1c <main>:
main():
C:\Users\山东张\Desktop\新建文件夹\新建文件夹 (2)\SLAVE527\SLAVE-hui\obj/../USER/main.c:266
int main(void)
{
     c1c:	1141                	addi	sp,sp,-16
     c1e:	c606                	sw	ra,12(sp)
     c20:	c422                	sw	s0,8(sp)
     c22:	c24a                	sw	s2,4(sp)
     c24:	c04e                	sw	s3,0(sp)
     c26:	0800                	addi	s0,sp,16
C:\Users\山东张\Desktop\新建文件夹\新建文件夹 (2)\SLAVE527\SLAVE-hui\obj/../USER/main.c:269
    //uint8 yu1;

    DisableGlobalIRQ();
     c28:	5a0020ef          	jal	ra,31c8 <DisableGlobalIRQ>
C:\Users\山东张\Desktop\新建文件夹\新建文件夹 (2)\SLAVE527\SLAVE-hui\obj/../USER/main.c:270
    board_init();           //务必保留，本函数用于初始化MPU 时钟 调试串口
     c2c:	62b020ef          	jal	ra,3a56 <board_init>
C:\Users\山东张\Desktop\新建文件夹\新建文件夹 (2)\SLAVE527\SLAVE-hui\obj/../USER/main.c:271
    gpio_init(C14, GPI, 1,GPIO_INT_CONFIG);
     c30:	04800693          	li	a3,72
     c34:	4605                	li	a2,1
     c36:	4581                	li	a1,0
     c38:	04e00513          	li	a0,78
     c3c:	196020ef          	jal	ra,2dd2 <gpio_init>
C:\Users\山东张\Desktop\新建文件夹\新建文件夹 (2)\SLAVE527\SLAVE-hui\obj/../USER/main.c:272
    button_init(&button1, read_c14gpio,0);
     c40:	4601                	li	a2,0
     c42:	000007b7          	lui	a5,0x0
     c46:	52478593          	addi	a1,a5,1316 # 524 <read_c14gpio>
     c4a:	8f818513          	addi	a0,gp,-1800 # 200001b0 <button1>
     c4e:	08e030ef          	jal	ra,3cdc <button_init>
C:\Users\山东张\Desktop\新建文件夹\新建文件夹 (2)\SLAVE527\SLAVE-hui\obj/../USER/main.c:273
    button_attach(&button1, PRESS_UP, btn1_press_up_Handler);
     c52:	000007b7          	lui	a5,0x0
     c56:	54078613          	addi	a2,a5,1344 # 540 <btn1_press_up_Handler>
     c5a:	4585                	li	a1,1
     c5c:	8f818513          	addi	a0,gp,-1800 # 200001b0 <button1>
     c60:	11c030ef          	jal	ra,3d7c <button_attach>
C:\Users\山东张\Desktop\新建文件夹\新建文件夹 (2)\SLAVE527\SLAVE-hui\obj/../USER/main.c:274
    timer_quad_init(TIMER_2, TIMER2_CHA_A15, TIMER2_CHB_B3);
     c64:	4615                	li	a2,5
     c66:	4591                	li	a1,4
     c68:	4505                	li	a0,1
     c6a:	0c9020ef          	jal	ra,3532 <timer_quad_init>
C:\Users\山东张\Desktop\新建文件夹\新建文件夹 (2)\SLAVE527\SLAVE-hui\obj/../USER/main.c:275
    timer_quad_init(TIMER_3, TIMER3_CHA_B4, TIMER3_CHB_B5);
     c6e:	462d                	li	a2,11
     c70:	45a9                	li	a1,10
     c72:	4509                	li	a0,2
     c74:	0bf020ef          	jal	ra,3532 <timer_quad_init>
C:\Users\山东张\Desktop\新建文件夹\新建文件夹 (2)\SLAVE527\SLAVE-hui\obj/../USER/main.c:276
    gpio_init(B0, GPO, 0, GPIO_PIN_CONFIG);  //B0为两个板子之间的连接
     c78:	31000693          	li	a3,784
     c7c:	4601                	li	a2,0
     c7e:	4585                	li	a1,1
     c80:	02000513          	li	a0,32
     c84:	14e020ef          	jal	ra,2dd2 <gpio_init>
C:\Users\山东张\Desktop\新建文件夹\新建文件夹 (2)\SLAVE527\SLAVE-hui\obj/../USER/main.c:277
    uart_init(UART_1, 460800, UART1_TX_A9, UART1_RX_A10);
     c88:	4685                	li	a3,1
     c8a:	4601                	li	a2,0
     c8c:	000717b7          	lui	a5,0x71
     c90:	80078593          	addi	a1,a5,-2048 # 70800 <_data_lma+0x6b114>
     c94:	4501                	li	a0,0
     c96:	3d1020ef          	jal	ra,3866 <uart_init>
C:\Users\山东张\Desktop\新建文件夹\新建文件夹 (2)\SLAVE527\SLAVE-hui\obj/../USER/main.c:278
    timer_pit_interrupt_ms(TIMER_4, 5);      //定时器4 5ms定时器中断
     c9a:	4595                	li	a1,5
     c9c:	450d                	li	a0,3
     c9e:	59e020ef          	jal	ra,323c <timer_pit_interrupt_ms>
C:\Users\山东张\Desktop\新建文件夹\新建文件夹 (2)\SLAVE527\SLAVE-hui\obj/../USER/main.c:279
    button_start(&button1);
     ca2:	8f818513          	addi	a0,gp,-1800 # 200001b0 <button1>
     ca6:	5b6030ef          	jal	ra,425c <button_start>
C:\Users\山东张\Desktop\新建文件夹\新建文件夹 (2)\SLAVE527\SLAVE-hui\obj/../USER/main.c:280
    systick_delay_ms(300);  //延时300ms，等待主板其他外设上电成功
     caa:	8381a703          	lw	a4,-1992(gp) # 200000f0 <sys_clk>
     cae:	6789                	lui	a5,0x2
     cb0:	f4078793          	addi	a5,a5,-192 # 1f40 <TIM_SelectInputTrigger+0x30>
     cb4:	02f75733          	divu	a4,a4,a5
     cb8:	12c00793          	li	a5,300
     cbc:	02f707b3          	mul	a5,a4,a5
     cc0:	893e                	mv	s2,a5
     cc2:	4981                	li	s3,0
     cc4:	854a                	mv	a0,s2
     cc6:	85ce                	mv	a1,s3
     cc8:	21f020ef          	jal	ra,36e6 <systick_delay>
C:\Users\山东张\Desktop\新建文件夹\新建文件夹 (2)\SLAVE527\SLAVE-hui\obj/../USER/main.c:281
    mt9v03x_init();
     ccc:	4af010ef          	jal	ra,297a <mt9v03x_init>
C:\Users\山东张\Desktop\新建文件夹\新建文件夹 (2)\SLAVE527\SLAVE-hui\obj/../USER/main.c:282
    EnableGlobalIRQ(0);
     cd0:	4501                	li	a0,0
     cd2:	53e020ef          	jal	ra,3210 <EnableGlobalIRQ>
C:\Users\山东张\Desktop\新建文件夹\新建文件夹 (2)\SLAVE527\SLAVE-hui\obj/../USER/main.c:285
    while(1)
    {
        if(mt9v03x_finish_flag)
     cd6:	82d1c783          	lbu	a5,-2003(gp) # 200000e5 <mt9v03x_finish_flag>
     cda:	dff5                	beqz	a5,cd6 <main+0xba>
C:\Users\山东张\Desktop\新建文件夹\新建文件夹 (2)\SLAVE527\SLAVE-hui\obj/../USER/main.c:287
                {
                    mt9v03x_finish_flag = 0;
     cdc:	820186a3          	sb	zero,-2003(gp) # 200000e5 <mt9v03x_finish_flag>
C:\Users\山东张\Desktop\新建文件夹\新建文件夹 (2)\SLAVE527\SLAVE-hui\obj/../USER/main.c:292
                    //使用缩放显示函数，根据原始图像大小 以及设置需要显示的大小自动进行缩放或者放大显示
                    /*GetHistGram1(mt9v03x_image[0], MT9V03X_W*MT9V03X_H);
                    yu1 = OSTUThreshold1();
                    twwo(yu1);*/
                    whu();
     ce0:	9e3ff0ef          	jal	ra,6c2 <whu>
C:\Users\山东张\Desktop\新建文件夹\新建文件夹 (2)\SLAVE527\SLAVE-hui\obj/../USER/main.c:285
        if(mt9v03x_finish_flag)
     ce4:	bfcd                	j	cd6 <main+0xba>

00000ce6 <handle_reset>:
handle_reset():
C:\Users\山东张\Desktop\新建文件夹\新建文件夹 (2)\SLAVE527\SLAVE-hui\obj/../Libraries/wch_libraries/Startup/startup_ch32v10x.S:147
	.weak	handle_reset
	.align	1
handle_reset:
.option push 
.option	norelax 
	la gp, __global_pointer$
     ce6:	20000197          	auipc	gp,0x20000
     cea:	bd218193          	addi	gp,gp,-1070 # 200008b8 <__global_pointer$>
C:\Users\山东张\Desktop\新建文件夹\新建文件夹 (2)\SLAVE527\SLAVE-hui\obj/../Libraries/wch_libraries/Startup/startup_ch32v10x.S:150
.option	pop 
1:
	la sp, _eusrstack 
     cee:	20004117          	auipc	sp,0x20004
     cf2:	31210113          	addi	sp,sp,786 # 20005000 <_eusrstack>
C:\Users\山东张\Desktop\新建文件夹\新建文件夹 (2)\SLAVE527\SLAVE-hui\obj/../Libraries/wch_libraries/Startup/startup_ch32v10x.S:153
2:
	/* Load data section from flash to RAM */
	la a0, _data_lma
     cf6:	00005517          	auipc	a0,0x5
     cfa:	9f650513          	addi	a0,a0,-1546 # 56ec <_data_lma>
C:\Users\山东张\Desktop\新建文件夹\新建文件夹 (2)\SLAVE527\SLAVE-hui\obj/../Libraries/wch_libraries/Startup/startup_ch32v10x.S:154
	la a1, _data_vma
     cfe:	1ffff597          	auipc	a1,0x1ffff
     d02:	30258593          	addi	a1,a1,770 # 20000000 <_data_vma>
C:\Users\山东张\Desktop\新建文件夹\新建文件夹 (2)\SLAVE527\SLAVE-hui\obj/../Libraries/wch_libraries/Startup/startup_ch32v10x.S:155
	la a2, _edata
     d06:	81818613          	addi	a2,gp,-2024 # 200000d0 <_edata>
C:\Users\山东张\Desktop\新建文件夹\新建文件夹 (2)\SLAVE527\SLAVE-hui\obj/../Libraries/wch_libraries/Startup/startup_ch32v10x.S:156
	bgeu a1, a2, 2f
     d0a:	00c5fa63          	bgeu	a1,a2,d1e <handle_reset+0x38>
C:\Users\山东张\Desktop\新建文件夹\新建文件夹 (2)\SLAVE527\SLAVE-hui\obj/../Libraries/wch_libraries/Startup/startup_ch32v10x.S:158
1:
	lw t0, (a0)
     d0e:	00052283          	lw	t0,0(a0)
C:\Users\山东张\Desktop\新建文件夹\新建文件夹 (2)\SLAVE527\SLAVE-hui\obj/../Libraries/wch_libraries/Startup/startup_ch32v10x.S:159
	sw t0, (a1)
     d12:	0055a023          	sw	t0,0(a1)
C:\Users\山东张\Desktop\新建文件夹\新建文件夹 (2)\SLAVE527\SLAVE-hui\obj/../Libraries/wch_libraries/Startup/startup_ch32v10x.S:160
	addi a0, a0, 4
     d16:	0511                	addi	a0,a0,4
C:\Users\山东张\Desktop\新建文件夹\新建文件夹 (2)\SLAVE527\SLAVE-hui\obj/../Libraries/wch_libraries/Startup/startup_ch32v10x.S:161
	addi a1, a1, 4
     d18:	0591                	addi	a1,a1,4
C:\Users\山东张\Desktop\新建文件夹\新建文件夹 (2)\SLAVE527\SLAVE-hui\obj/../Libraries/wch_libraries/Startup/startup_ch32v10x.S:162
	bltu a1, a2, 1b
     d1a:	fec5eae3          	bltu	a1,a2,d0e <handle_reset+0x28>
C:\Users\山东张\Desktop\新建文件夹\新建文件夹 (2)\SLAVE527\SLAVE-hui\obj/../Libraries/wch_libraries/Startup/startup_ch32v10x.S:165
2:
	/* clear bss section */
	la a0, _sbss
     d1e:	81818513          	addi	a0,gp,-2024 # 200000d0 <_edata>
C:\Users\山东张\Desktop\新建文件夹\新建文件夹 (2)\SLAVE527\SLAVE-hui\obj/../Libraries/wch_libraries/Startup/startup_ch32v10x.S:166
	la a1, _ebss
     d22:	20002597          	auipc	a1,0x20002
     d26:	97e58593          	addi	a1,a1,-1666 # 200026a0 <_ebss>
C:\Users\山东张\Desktop\新建文件夹\新建文件夹 (2)\SLAVE527\SLAVE-hui\obj/../Libraries/wch_libraries/Startup/startup_ch32v10x.S:167
	bgeu a0, a1, 2f
     d2a:	00b57763          	bgeu	a0,a1,d38 <handle_reset+0x52>
C:\Users\山东张\Desktop\新建文件夹\新建文件夹 (2)\SLAVE527\SLAVE-hui\obj/../Libraries/wch_libraries/Startup/startup_ch32v10x.S:169
1:
	sw zero, (a0)
     d2e:	00052023          	sw	zero,0(a0)
C:\Users\山东张\Desktop\新建文件夹\新建文件夹 (2)\SLAVE527\SLAVE-hui\obj/../Libraries/wch_libraries/Startup/startup_ch32v10x.S:170
	addi a0, a0, 4
     d32:	0511                	addi	a0,a0,4
C:\Users\山东张\Desktop\新建文件夹\新建文件夹 (2)\SLAVE527\SLAVE-hui\obj/../Libraries/wch_libraries/Startup/startup_ch32v10x.S:171
	bltu a0, a1, 1b
     d34:	feb56de3          	bltu	a0,a1,d2e <handle_reset+0x48>
C:\Users\山东张\Desktop\新建文件夹\新建文件夹 (2)\SLAVE527\SLAVE-hui\obj/../Libraries/wch_libraries/Startup/startup_ch32v10x.S:174
2:
	/* enable all interrupt */
  li t0, 0x88
     d38:	08800293          	li	t0,136
C:\Users\山东张\Desktop\新建文件夹\新建文件夹 (2)\SLAVE527\SLAVE-hui\obj/../Libraries/wch_libraries/Startup/startup_ch32v10x.S:175
  csrs mstatus, t0
     d3c:	3002a073          	csrs	mstatus,t0
C:\Users\山东张\Desktop\新建文件夹\新建文件夹 (2)\SLAVE527\SLAVE-hui\obj/../Libraries/wch_libraries/Startup/startup_ch32v10x.S:176
	la t0, _vector_base
     d40:	fffff297          	auipc	t0,0xfffff
     d44:	2f828293          	addi	t0,t0,760 # 38 <_einit>
C:\Users\山东张\Desktop\新建文件夹\新建文件夹 (2)\SLAVE527\SLAVE-hui\obj/../Libraries/wch_libraries/Startup/startup_ch32v10x.S:177
  ori t0, t0, 1
     d48:	0012e293          	ori	t0,t0,1
C:\Users\山东张\Desktop\新建文件夹\新建文件夹 (2)\SLAVE527\SLAVE-hui\obj/../Libraries/wch_libraries/Startup/startup_ch32v10x.S:178
	csrw mtvec, t0
     d4c:	30529073          	csrw	mtvec,t0
C:\Users\山东张\Desktop\新建文件夹\新建文件夹 (2)\SLAVE527\SLAVE-hui\obj/../Libraries/wch_libraries/Startup/startup_ch32v10x.S:180

  jal  SystemInit
     d50:	70f020ef          	jal	ra,3c5e <SystemInit>
C:\Users\山东张\Desktop\新建文件夹\新建文件夹 (2)\SLAVE527\SLAVE-hui\obj/../Libraries/wch_libraries/Startup/startup_ch32v10x.S:181
	la t0, main
     d54:	00000297          	auipc	t0,0x0
     d58:	ec828293          	addi	t0,t0,-312 # c1c <main>
C:\Users\山东张\Desktop\新建文件夹\新建文件夹 (2)\SLAVE527\SLAVE-hui\obj/../Libraries/wch_libraries/Startup/startup_ch32v10x.S:182
	csrw mepc, t0
     d5c:	34129073          	csrw	mepc,t0
C:\Users\山东张\Desktop\新建文件夹\新建文件夹 (2)\SLAVE527\SLAVE-hui\obj/../Libraries/wch_libraries/Startup/startup_ch32v10x.S:183
	mret
     d60:	30200073          	mret

00000d64 <DMA_DeInit>:
DMA_DeInit():
C:\Users\山东张\Desktop\新建文件夹\新建文件夹 (2)\SLAVE527\SLAVE-hui\obj/../Libraries/wch_libraries/Peripheral/ch32v10x_dma.c:44
*                                1 to 7 for DMA1 and 1 to 5 for DMA2 to select the 
*                                DMA Channel.
* Return         : None
*********************************************************************************/
void DMA_DeInit(DMA_Channel_TypeDef* DMAy_Channelx)
{
     d64:	1101                	addi	sp,sp,-32
     d66:	ce22                	sw	s0,28(sp)
     d68:	1000                	addi	s0,sp,32
     d6a:	fea42623          	sw	a0,-20(s0)
C:\Users\山东张\Desktop\新建文件夹\新建文件夹 (2)\SLAVE527\SLAVE-hui\obj/../Libraries/wch_libraries/Peripheral/ch32v10x_dma.c:45
  DMAy_Channelx->CFGR &= (uint16_t)(~DMA_CFGR1_EN);  
     d6e:	fec42783          	lw	a5,-20(s0)
     d72:	4398                	lw	a4,0(a5)
     d74:	67c1                	lui	a5,0x10
     d76:	17f9                	addi	a5,a5,-2
     d78:	8f7d                	and	a4,a4,a5
     d7a:	fec42783          	lw	a5,-20(s0)
     d7e:	c398                	sw	a4,0(a5)
C:\Users\山东张\Desktop\新建文件夹\新建文件夹 (2)\SLAVE527\SLAVE-hui\obj/../Libraries/wch_libraries/Peripheral/ch32v10x_dma.c:46
  DMAy_Channelx->CFGR  = 0;
     d80:	fec42783          	lw	a5,-20(s0)
     d84:	0007a023          	sw	zero,0(a5) # 10000 <_data_lma+0xa914>
C:\Users\山东张\Desktop\新建文件夹\新建文件夹 (2)\SLAVE527\SLAVE-hui\obj/../Libraries/wch_libraries/Peripheral/ch32v10x_dma.c:47
  DMAy_Channelx->CNTR = 0;
     d88:	fec42783          	lw	a5,-20(s0)
     d8c:	0007a223          	sw	zero,4(a5)
C:\Users\山东张\Desktop\新建文件夹\新建文件夹 (2)\SLAVE527\SLAVE-hui\obj/../Libraries/wch_libraries/Peripheral/ch32v10x_dma.c:48
  DMAy_Channelx->PADDR  = 0;
     d90:	fec42783          	lw	a5,-20(s0)
     d94:	0007a423          	sw	zero,8(a5)
C:\Users\山东张\Desktop\新建文件夹\新建文件夹 (2)\SLAVE527\SLAVE-hui\obj/../Libraries/wch_libraries/Peripheral/ch32v10x_dma.c:49
  DMAy_Channelx->MADDR = 0;  
     d98:	fec42783          	lw	a5,-20(s0)
     d9c:	0007a623          	sw	zero,12(a5)
C:\Users\山东张\Desktop\新建文件夹\新建文件夹 (2)\SLAVE527\SLAVE-hui\obj/../Libraries/wch_libraries/Peripheral/ch32v10x_dma.c:50
  if (DMAy_Channelx == DMA1_Channel1)
     da0:	fec42703          	lw	a4,-20(s0)
     da4:	400207b7          	lui	a5,0x40020
     da8:	07a1                	addi	a5,a5,8
     daa:	00f71b63          	bne	a4,a5,dc0 <DMA_DeInit+0x5c>
C:\Users\山东张\Desktop\新建文件夹\新建文件夹 (2)\SLAVE527\SLAVE-hui\obj/../Libraries/wch_libraries/Peripheral/ch32v10x_dma.c:52
  {
    DMA1->INTFCR |= DMA1_Channel1_IT_Mask;
     dae:	400207b7          	lui	a5,0x40020
     db2:	43d8                	lw	a4,4(a5)
     db4:	400207b7          	lui	a5,0x40020
     db8:	00f76713          	ori	a4,a4,15
     dbc:	c3d8                	sw	a4,4(a5)
C:\Users\山东张\Desktop\新建文件夹\新建文件夹 (2)\SLAVE527\SLAVE-hui\obj/../Libraries/wch_libraries/Peripheral/ch32v10x_dma.c:101
    if (DMAy_Channelx == DMA2_Channel5)
    {
      DMA2->INTFCR |= DMA2_Channel5_IT_Mask;
    }
  }
}
     dbe:	a275                	j	f6a <DMA_DeInit+0x206>
C:\Users\山东张\Desktop\新建文件夹\新建文件夹 (2)\SLAVE527\SLAVE-hui\obj/../Libraries/wch_libraries/Peripheral/ch32v10x_dma.c:54
  else if (DMAy_Channelx == DMA1_Channel2)
     dc0:	fec42703          	lw	a4,-20(s0)
     dc4:	400207b7          	lui	a5,0x40020
     dc8:	07f1                	addi	a5,a5,28
     dca:	00f71b63          	bne	a4,a5,de0 <DMA_DeInit+0x7c>
C:\Users\山东张\Desktop\新建文件夹\新建文件夹 (2)\SLAVE527\SLAVE-hui\obj/../Libraries/wch_libraries/Peripheral/ch32v10x_dma.c:56
    DMA1->INTFCR |= DMA1_Channel2_IT_Mask;
     dce:	400207b7          	lui	a5,0x40020
     dd2:	43d8                	lw	a4,4(a5)
     dd4:	400207b7          	lui	a5,0x40020
     dd8:	0f076713          	ori	a4,a4,240
     ddc:	c3d8                	sw	a4,4(a5)
C:\Users\山东张\Desktop\新建文件夹\新建文件夹 (2)\SLAVE527\SLAVE-hui\obj/../Libraries/wch_libraries/Peripheral/ch32v10x_dma.c:101
}
     dde:	a271                	j	f6a <DMA_DeInit+0x206>
C:\Users\山东张\Desktop\新建文件夹\新建文件夹 (2)\SLAVE527\SLAVE-hui\obj/../Libraries/wch_libraries/Peripheral/ch32v10x_dma.c:58
  else if (DMAy_Channelx == DMA1_Channel3)
     de0:	fec42703          	lw	a4,-20(s0)
     de4:	400207b7          	lui	a5,0x40020
     de8:	03078793          	addi	a5,a5,48 # 40020030 <_eusrstack+0x2001b030>
     dec:	00f71d63          	bne	a4,a5,e06 <DMA_DeInit+0xa2>
C:\Users\山东张\Desktop\新建文件夹\新建文件夹 (2)\SLAVE527\SLAVE-hui\obj/../Libraries/wch_libraries/Peripheral/ch32v10x_dma.c:60
    DMA1->INTFCR |= DMA1_Channel3_IT_Mask;
     df0:	400207b7          	lui	a5,0x40020
     df4:	43d4                	lw	a3,4(a5)
     df6:	400207b7          	lui	a5,0x40020
     dfa:	6705                	lui	a4,0x1
     dfc:	f0070713          	addi	a4,a4,-256 # f00 <DMA_DeInit+0x19c>
     e00:	8f55                	or	a4,a4,a3
     e02:	c3d8                	sw	a4,4(a5)
C:\Users\山东张\Desktop\新建文件夹\新建文件夹 (2)\SLAVE527\SLAVE-hui\obj/../Libraries/wch_libraries/Peripheral/ch32v10x_dma.c:101
}
     e04:	a29d                	j	f6a <DMA_DeInit+0x206>
C:\Users\山东张\Desktop\新建文件夹\新建文件夹 (2)\SLAVE527\SLAVE-hui\obj/../Libraries/wch_libraries/Peripheral/ch32v10x_dma.c:62
  else if (DMAy_Channelx == DMA1_Channel4)
     e06:	fec42703          	lw	a4,-20(s0)
     e0a:	400207b7          	lui	a5,0x40020
     e0e:	04478793          	addi	a5,a5,68 # 40020044 <_eusrstack+0x2001b044>
     e12:	00f71b63          	bne	a4,a5,e28 <DMA_DeInit+0xc4>
C:\Users\山东张\Desktop\新建文件夹\新建文件夹 (2)\SLAVE527\SLAVE-hui\obj/../Libraries/wch_libraries/Peripheral/ch32v10x_dma.c:64
    DMA1->INTFCR |= DMA1_Channel4_IT_Mask;
     e16:	400207b7          	lui	a5,0x40020
     e1a:	43d4                	lw	a3,4(a5)
     e1c:	400207b7          	lui	a5,0x40020
     e20:	673d                	lui	a4,0xf
     e22:	8f55                	or	a4,a4,a3
     e24:	c3d8                	sw	a4,4(a5)
C:\Users\山东张\Desktop\新建文件夹\新建文件夹 (2)\SLAVE527\SLAVE-hui\obj/../Libraries/wch_libraries/Peripheral/ch32v10x_dma.c:101
}
     e26:	a291                	j	f6a <DMA_DeInit+0x206>
C:\Users\山东张\Desktop\新建文件夹\新建文件夹 (2)\SLAVE527\SLAVE-hui\obj/../Libraries/wch_libraries/Peripheral/ch32v10x_dma.c:66
  else if (DMAy_Channelx == DMA1_Channel5)
     e28:	fec42703          	lw	a4,-20(s0)
     e2c:	400207b7          	lui	a5,0x40020
     e30:	05878793          	addi	a5,a5,88 # 40020058 <_eusrstack+0x2001b058>
     e34:	00f71c63          	bne	a4,a5,e4c <DMA_DeInit+0xe8>
C:\Users\山东张\Desktop\新建文件夹\新建文件夹 (2)\SLAVE527\SLAVE-hui\obj/../Libraries/wch_libraries/Peripheral/ch32v10x_dma.c:68
    DMA1->INTFCR |= DMA1_Channel5_IT_Mask;
     e38:	400207b7          	lui	a5,0x40020
     e3c:	43d4                	lw	a3,4(a5)
     e3e:	400207b7          	lui	a5,0x40020
     e42:	000f0737          	lui	a4,0xf0
     e46:	8f55                	or	a4,a4,a3
     e48:	c3d8                	sw	a4,4(a5)
C:\Users\山东张\Desktop\新建文件夹\新建文件夹 (2)\SLAVE527\SLAVE-hui\obj/../Libraries/wch_libraries/Peripheral/ch32v10x_dma.c:101
}
     e4a:	a205                	j	f6a <DMA_DeInit+0x206>
C:\Users\山东张\Desktop\新建文件夹\新建文件夹 (2)\SLAVE527\SLAVE-hui\obj/../Libraries/wch_libraries/Peripheral/ch32v10x_dma.c:70
  else if (DMAy_Channelx == DMA1_Channel6)
     e4c:	fec42703          	lw	a4,-20(s0)
     e50:	400207b7          	lui	a5,0x40020
     e54:	06c78793          	addi	a5,a5,108 # 4002006c <_eusrstack+0x2001b06c>
     e58:	00f71c63          	bne	a4,a5,e70 <DMA_DeInit+0x10c>
C:\Users\山东张\Desktop\新建文件夹\新建文件夹 (2)\SLAVE527\SLAVE-hui\obj/../Libraries/wch_libraries/Peripheral/ch32v10x_dma.c:72
    DMA1->INTFCR |= DMA1_Channel6_IT_Mask;
     e5c:	400207b7          	lui	a5,0x40020
     e60:	43d4                	lw	a3,4(a5)
     e62:	400207b7          	lui	a5,0x40020
     e66:	00f00737          	lui	a4,0xf00
     e6a:	8f55                	or	a4,a4,a3
     e6c:	c3d8                	sw	a4,4(a5)
C:\Users\山东张\Desktop\新建文件夹\新建文件夹 (2)\SLAVE527\SLAVE-hui\obj/../Libraries/wch_libraries/Peripheral/ch32v10x_dma.c:101
}
     e6e:	a8f5                	j	f6a <DMA_DeInit+0x206>
C:\Users\山东张\Desktop\新建文件夹\新建文件夹 (2)\SLAVE527\SLAVE-hui\obj/../Libraries/wch_libraries/Peripheral/ch32v10x_dma.c:74
  else if (DMAy_Channelx == DMA1_Channel7)
     e70:	fec42703          	lw	a4,-20(s0)
     e74:	400207b7          	lui	a5,0x40020
     e78:	08078793          	addi	a5,a5,128 # 40020080 <_eusrstack+0x2001b080>
     e7c:	00f71c63          	bne	a4,a5,e94 <DMA_DeInit+0x130>
C:\Users\山东张\Desktop\新建文件夹\新建文件夹 (2)\SLAVE527\SLAVE-hui\obj/../Libraries/wch_libraries/Peripheral/ch32v10x_dma.c:76
    DMA1->INTFCR |= DMA1_Channel7_IT_Mask;
     e80:	400207b7          	lui	a5,0x40020
     e84:	43d4                	lw	a3,4(a5)
     e86:	400207b7          	lui	a5,0x40020
     e8a:	0f000737          	lui	a4,0xf000
     e8e:	8f55                	or	a4,a4,a3
     e90:	c3d8                	sw	a4,4(a5)
C:\Users\山东张\Desktop\新建文件夹\新建文件夹 (2)\SLAVE527\SLAVE-hui\obj/../Libraries/wch_libraries/Peripheral/ch32v10x_dma.c:101
}
     e92:	a8e1                	j	f6a <DMA_DeInit+0x206>
C:\Users\山东张\Desktop\新建文件夹\新建文件夹 (2)\SLAVE527\SLAVE-hui\obj/../Libraries/wch_libraries/Peripheral/ch32v10x_dma.c:78
  else if (DMAy_Channelx == DMA2_Channel1)
     e94:	fec42703          	lw	a4,-20(s0)
     e98:	400207b7          	lui	a5,0x40020
     e9c:	40878793          	addi	a5,a5,1032 # 40020408 <_eusrstack+0x2001b408>
     ea0:	00f71f63          	bne	a4,a5,ebe <DMA_DeInit+0x15a>
C:\Users\山东张\Desktop\新建文件夹\新建文件夹 (2)\SLAVE527\SLAVE-hui\obj/../Libraries/wch_libraries/Peripheral/ch32v10x_dma.c:80
    DMA2->INTFCR |= DMA2_Channel1_IT_Mask;
     ea4:	400207b7          	lui	a5,0x40020
     ea8:	40078793          	addi	a5,a5,1024 # 40020400 <_eusrstack+0x2001b400>
     eac:	43d8                	lw	a4,4(a5)
     eae:	400207b7          	lui	a5,0x40020
     eb2:	40078793          	addi	a5,a5,1024 # 40020400 <_eusrstack+0x2001b400>
     eb6:	00f76713          	ori	a4,a4,15
     eba:	c3d8                	sw	a4,4(a5)
C:\Users\山东张\Desktop\新建文件夹\新建文件夹 (2)\SLAVE527\SLAVE-hui\obj/../Libraries/wch_libraries/Peripheral/ch32v10x_dma.c:101
}
     ebc:	a07d                	j	f6a <DMA_DeInit+0x206>
C:\Users\山东张\Desktop\新建文件夹\新建文件夹 (2)\SLAVE527\SLAVE-hui\obj/../Libraries/wch_libraries/Peripheral/ch32v10x_dma.c:82
  else if (DMAy_Channelx == DMA2_Channel2)
     ebe:	fec42703          	lw	a4,-20(s0)
     ec2:	400207b7          	lui	a5,0x40020
     ec6:	41c78793          	addi	a5,a5,1052 # 4002041c <_eusrstack+0x2001b41c>
     eca:	00f71f63          	bne	a4,a5,ee8 <DMA_DeInit+0x184>
C:\Users\山东张\Desktop\新建文件夹\新建文件夹 (2)\SLAVE527\SLAVE-hui\obj/../Libraries/wch_libraries/Peripheral/ch32v10x_dma.c:84
    DMA2->INTFCR |= DMA2_Channel2_IT_Mask;
     ece:	400207b7          	lui	a5,0x40020
     ed2:	40078793          	addi	a5,a5,1024 # 40020400 <_eusrstack+0x2001b400>
     ed6:	43d8                	lw	a4,4(a5)
     ed8:	400207b7          	lui	a5,0x40020
     edc:	40078793          	addi	a5,a5,1024 # 40020400 <_eusrstack+0x2001b400>
     ee0:	0f076713          	ori	a4,a4,240
     ee4:	c3d8                	sw	a4,4(a5)
C:\Users\山东张\Desktop\新建文件夹\新建文件夹 (2)\SLAVE527\SLAVE-hui\obj/../Libraries/wch_libraries/Peripheral/ch32v10x_dma.c:101
}
     ee6:	a051                	j	f6a <DMA_DeInit+0x206>
C:\Users\山东张\Desktop\新建文件夹\新建文件夹 (2)\SLAVE527\SLAVE-hui\obj/../Libraries/wch_libraries/Peripheral/ch32v10x_dma.c:86
  else if (DMAy_Channelx == DMA2_Channel3)
     ee8:	fec42703          	lw	a4,-20(s0)
     eec:	400207b7          	lui	a5,0x40020
     ef0:	43078793          	addi	a5,a5,1072 # 40020430 <_eusrstack+0x2001b430>
     ef4:	02f71163          	bne	a4,a5,f16 <DMA_DeInit+0x1b2>
C:\Users\山东张\Desktop\新建文件夹\新建文件夹 (2)\SLAVE527\SLAVE-hui\obj/../Libraries/wch_libraries/Peripheral/ch32v10x_dma.c:88
    DMA2->INTFCR |= DMA2_Channel3_IT_Mask;
     ef8:	400207b7          	lui	a5,0x40020
     efc:	40078793          	addi	a5,a5,1024 # 40020400 <_eusrstack+0x2001b400>
     f00:	43d4                	lw	a3,4(a5)
     f02:	400207b7          	lui	a5,0x40020
     f06:	40078793          	addi	a5,a5,1024 # 40020400 <_eusrstack+0x2001b400>
     f0a:	6705                	lui	a4,0x1
     f0c:	f0070713          	addi	a4,a4,-256 # f00 <DMA_DeInit+0x19c>
     f10:	8f55                	or	a4,a4,a3
     f12:	c3d8                	sw	a4,4(a5)
C:\Users\山东张\Desktop\新建文件夹\新建文件夹 (2)\SLAVE527\SLAVE-hui\obj/../Libraries/wch_libraries/Peripheral/ch32v10x_dma.c:101
}
     f14:	a899                	j	f6a <DMA_DeInit+0x206>
C:\Users\山东张\Desktop\新建文件夹\新建文件夹 (2)\SLAVE527\SLAVE-hui\obj/../Libraries/wch_libraries/Peripheral/ch32v10x_dma.c:90
  else if (DMAy_Channelx == DMA2_Channel4)
     f16:	fec42703          	lw	a4,-20(s0)
     f1a:	400207b7          	lui	a5,0x40020
     f1e:	44478793          	addi	a5,a5,1092 # 40020444 <_eusrstack+0x2001b444>
     f22:	00f71f63          	bne	a4,a5,f40 <DMA_DeInit+0x1dc>
C:\Users\山东张\Desktop\新建文件夹\新建文件夹 (2)\SLAVE527\SLAVE-hui\obj/../Libraries/wch_libraries/Peripheral/ch32v10x_dma.c:92
    DMA2->INTFCR |= DMA2_Channel4_IT_Mask;
     f26:	400207b7          	lui	a5,0x40020
     f2a:	40078793          	addi	a5,a5,1024 # 40020400 <_eusrstack+0x2001b400>
     f2e:	43d4                	lw	a3,4(a5)
     f30:	400207b7          	lui	a5,0x40020
     f34:	40078793          	addi	a5,a5,1024 # 40020400 <_eusrstack+0x2001b400>
     f38:	673d                	lui	a4,0xf
     f3a:	8f55                	or	a4,a4,a3
     f3c:	c3d8                	sw	a4,4(a5)
C:\Users\山东张\Desktop\新建文件夹\新建文件夹 (2)\SLAVE527\SLAVE-hui\obj/../Libraries/wch_libraries/Peripheral/ch32v10x_dma.c:101
}
     f3e:	a035                	j	f6a <DMA_DeInit+0x206>
C:\Users\山东张\Desktop\新建文件夹\新建文件夹 (2)\SLAVE527\SLAVE-hui\obj/../Libraries/wch_libraries/Peripheral/ch32v10x_dma.c:96
    if (DMAy_Channelx == DMA2_Channel5)
     f40:	fec42703          	lw	a4,-20(s0)
     f44:	400207b7          	lui	a5,0x40020
     f48:	45878793          	addi	a5,a5,1112 # 40020458 <_eusrstack+0x2001b458>
     f4c:	00f71f63          	bne	a4,a5,f6a <DMA_DeInit+0x206>
C:\Users\山东张\Desktop\新建文件夹\新建文件夹 (2)\SLAVE527\SLAVE-hui\obj/../Libraries/wch_libraries/Peripheral/ch32v10x_dma.c:98
      DMA2->INTFCR |= DMA2_Channel5_IT_Mask;
     f50:	400207b7          	lui	a5,0x40020
     f54:	40078793          	addi	a5,a5,1024 # 40020400 <_eusrstack+0x2001b400>
     f58:	43d4                	lw	a3,4(a5)
     f5a:	400207b7          	lui	a5,0x40020
     f5e:	40078793          	addi	a5,a5,1024 # 40020400 <_eusrstack+0x2001b400>
     f62:	000f0737          	lui	a4,0xf0
     f66:	8f55                	or	a4,a4,a3
     f68:	c3d8                	sw	a4,4(a5)
C:\Users\山东张\Desktop\新建文件夹\新建文件夹 (2)\SLAVE527\SLAVE-hui\obj/../Libraries/wch_libraries/Peripheral/ch32v10x_dma.c:101
}
     f6a:	0001                	nop
     f6c:	4472                	lw	s0,28(sp)
     f6e:	6105                	addi	sp,sp,32
     f70:	8082                	ret

00000f72 <DMA_Init>:
DMA_Init():
C:\Users\山东张\Desktop\新建文件夹\新建文件夹 (2)\SLAVE527\SLAVE-hui\obj/../Libraries/wch_libraries/Peripheral/ch32v10x_dma.c:117
*                                 contains the configuration information for the
*                                 specified DMA Channel.
* Return         : None
*********************************************************************************/
void DMA_Init(DMA_Channel_TypeDef* DMAy_Channelx, DMA_InitTypeDef* DMA_InitStruct)
{
     f72:	7179                	addi	sp,sp,-48
     f74:	d622                	sw	s0,44(sp)
     f76:	1800                	addi	s0,sp,48
     f78:	fca42e23          	sw	a0,-36(s0)
     f7c:	fcb42c23          	sw	a1,-40(s0)
C:\Users\山东张\Desktop\新建文件夹\新建文件夹 (2)\SLAVE527\SLAVE-hui\obj/../Libraries/wch_libraries/Peripheral/ch32v10x_dma.c:118
  uint32_t tmpreg = 0;
     f80:	fe042623          	sw	zero,-20(s0)
C:\Users\山东张\Desktop\新建文件夹\新建文件夹 (2)\SLAVE527\SLAVE-hui\obj/../Libraries/wch_libraries/Peripheral/ch32v10x_dma.c:120

  tmpreg = DMAy_Channelx->CFGR;
     f84:	fdc42783          	lw	a5,-36(s0)
     f88:	439c                	lw	a5,0(a5)
     f8a:	fef42623          	sw	a5,-20(s0)
C:\Users\山东张\Desktop\新建文件夹\新建文件夹 (2)\SLAVE527\SLAVE-hui\obj/../Libraries/wch_libraries/Peripheral/ch32v10x_dma.c:121
  tmpreg &= CFGR_CLEAR_Mask;
     f8e:	fec42703          	lw	a4,-20(s0)
     f92:	77e1                	lui	a5,0xffff8
     f94:	07bd                	addi	a5,a5,15
     f96:	8ff9                	and	a5,a5,a4
     f98:	fef42623          	sw	a5,-20(s0)
C:\Users\山东张\Desktop\新建文件夹\新建文件夹 (2)\SLAVE527\SLAVE-hui\obj/../Libraries/wch_libraries/Peripheral/ch32v10x_dma.c:122
  tmpreg |= DMA_InitStruct->DMA_DIR | DMA_InitStruct->DMA_Mode |
     f9c:	fd842783          	lw	a5,-40(s0)
     fa0:	4798                	lw	a4,8(a5)
     fa2:	fd842783          	lw	a5,-40(s0)
     fa6:	539c                	lw	a5,32(a5)
     fa8:	8f5d                	or	a4,a4,a5
C:\Users\山东张\Desktop\新建文件夹\新建文件夹 (2)\SLAVE527\SLAVE-hui\obj/../Libraries/wch_libraries/Peripheral/ch32v10x_dma.c:123
            DMA_InitStruct->DMA_PeripheralInc | DMA_InitStruct->DMA_MemoryInc |
     faa:	fd842783          	lw	a5,-40(s0)
     fae:	4b9c                	lw	a5,16(a5)
C:\Users\山东张\Desktop\新建文件夹\新建文件夹 (2)\SLAVE527\SLAVE-hui\obj/../Libraries/wch_libraries/Peripheral/ch32v10x_dma.c:122
  tmpreg |= DMA_InitStruct->DMA_DIR | DMA_InitStruct->DMA_Mode |
     fb0:	8f5d                	or	a4,a4,a5
C:\Users\山东张\Desktop\新建文件夹\新建文件夹 (2)\SLAVE527\SLAVE-hui\obj/../Libraries/wch_libraries/Peripheral/ch32v10x_dma.c:123
            DMA_InitStruct->DMA_PeripheralInc | DMA_InitStruct->DMA_MemoryInc |
     fb2:	fd842783          	lw	a5,-40(s0)
     fb6:	4bdc                	lw	a5,20(a5)
     fb8:	8f5d                	or	a4,a4,a5
C:\Users\山东张\Desktop\新建文件夹\新建文件夹 (2)\SLAVE527\SLAVE-hui\obj/../Libraries/wch_libraries/Peripheral/ch32v10x_dma.c:124
            DMA_InitStruct->DMA_PeripheralDataSize | DMA_InitStruct->DMA_MemoryDataSize |
     fba:	fd842783          	lw	a5,-40(s0)
     fbe:	4f9c                	lw	a5,24(a5)
C:\Users\山东张\Desktop\新建文件夹\新建文件夹 (2)\SLAVE527\SLAVE-hui\obj/../Libraries/wch_libraries/Peripheral/ch32v10x_dma.c:123
            DMA_InitStruct->DMA_PeripheralInc | DMA_InitStruct->DMA_MemoryInc |
     fc0:	8f5d                	or	a4,a4,a5
C:\Users\山东张\Desktop\新建文件夹\新建文件夹 (2)\SLAVE527\SLAVE-hui\obj/../Libraries/wch_libraries/Peripheral/ch32v10x_dma.c:124
            DMA_InitStruct->DMA_PeripheralDataSize | DMA_InitStruct->DMA_MemoryDataSize |
     fc2:	fd842783          	lw	a5,-40(s0)
     fc6:	4fdc                	lw	a5,28(a5)
     fc8:	8f5d                	or	a4,a4,a5
C:\Users\山东张\Desktop\新建文件夹\新建文件夹 (2)\SLAVE527\SLAVE-hui\obj/../Libraries/wch_libraries/Peripheral/ch32v10x_dma.c:125
            DMA_InitStruct->DMA_Priority | DMA_InitStruct->DMA_M2M;
     fca:	fd842783          	lw	a5,-40(s0)
     fce:	53dc                	lw	a5,36(a5)
C:\Users\山东张\Desktop\新建文件夹\新建文件夹 (2)\SLAVE527\SLAVE-hui\obj/../Libraries/wch_libraries/Peripheral/ch32v10x_dma.c:124
            DMA_InitStruct->DMA_PeripheralDataSize | DMA_InitStruct->DMA_MemoryDataSize |
     fd0:	8f5d                	or	a4,a4,a5
C:\Users\山东张\Desktop\新建文件夹\新建文件夹 (2)\SLAVE527\SLAVE-hui\obj/../Libraries/wch_libraries/Peripheral/ch32v10x_dma.c:125
            DMA_InitStruct->DMA_Priority | DMA_InitStruct->DMA_M2M;
     fd2:	fd842783          	lw	a5,-40(s0)
     fd6:	579c                	lw	a5,40(a5)
     fd8:	8fd9                	or	a5,a5,a4
C:\Users\山东张\Desktop\新建文件夹\新建文件夹 (2)\SLAVE527\SLAVE-hui\obj/../Libraries/wch_libraries/Peripheral/ch32v10x_dma.c:122
  tmpreg |= DMA_InitStruct->DMA_DIR | DMA_InitStruct->DMA_Mode |
     fda:	fec42703          	lw	a4,-20(s0)
     fde:	8fd9                	or	a5,a5,a4
     fe0:	fef42623          	sw	a5,-20(s0)
C:\Users\山东张\Desktop\新建文件夹\新建文件夹 (2)\SLAVE527\SLAVE-hui\obj/../Libraries/wch_libraries/Peripheral/ch32v10x_dma.c:127

  DMAy_Channelx->CFGR = tmpreg;
     fe4:	fdc42783          	lw	a5,-36(s0)
     fe8:	fec42703          	lw	a4,-20(s0)
     fec:	c398                	sw	a4,0(a5)
C:\Users\山东张\Desktop\新建文件夹\新建文件夹 (2)\SLAVE527\SLAVE-hui\obj/../Libraries/wch_libraries/Peripheral/ch32v10x_dma.c:128
  DMAy_Channelx->CNTR = DMA_InitStruct->DMA_BufferSize;
     fee:	fd842783          	lw	a5,-40(s0)
     ff2:	47d8                	lw	a4,12(a5)
     ff4:	fdc42783          	lw	a5,-36(s0)
     ff8:	c3d8                	sw	a4,4(a5)
C:\Users\山东张\Desktop\新建文件夹\新建文件夹 (2)\SLAVE527\SLAVE-hui\obj/../Libraries/wch_libraries/Peripheral/ch32v10x_dma.c:129
  DMAy_Channelx->PADDR = DMA_InitStruct->DMA_PeripheralBaseAddr;
     ffa:	fd842783          	lw	a5,-40(s0)
     ffe:	4398                	lw	a4,0(a5)
    1000:	fdc42783          	lw	a5,-36(s0)
    1004:	c798                	sw	a4,8(a5)
C:\Users\山东张\Desktop\新建文件夹\新建文件夹 (2)\SLAVE527\SLAVE-hui\obj/../Libraries/wch_libraries/Peripheral/ch32v10x_dma.c:130
  DMAy_Channelx->MADDR = DMA_InitStruct->DMA_MemoryBaseAddr;
    1006:	fd842783          	lw	a5,-40(s0)
    100a:	43d8                	lw	a4,4(a5)
    100c:	fdc42783          	lw	a5,-36(s0)
    1010:	c7d8                	sw	a4,12(a5)
C:\Users\山东张\Desktop\新建文件夹\新建文件夹 (2)\SLAVE527\SLAVE-hui\obj/../Libraries/wch_libraries/Peripheral/ch32v10x_dma.c:131
}
    1012:	0001                	nop
    1014:	5432                	lw	s0,44(sp)
    1016:	6145                	addi	sp,sp,48
    1018:	8082                	ret

0000101a <DMA_Cmd>:
DMA_Cmd():
C:\Users\山东张\Desktop\新建文件夹\新建文件夹 (2)\SLAVE527\SLAVE-hui\obj/../Libraries/wch_libraries/Peripheral/ch32v10x_dma.c:168
*                                 the DMA Channel.
*                  NewState     : new state of the DMAy Channelx(ENABLE or DISABLE).
* Return         : None
*********************************************************************************/
void DMA_Cmd(DMA_Channel_TypeDef* DMAy_Channelx, FunctionalState NewState)
{
    101a:	1101                	addi	sp,sp,-32
    101c:	ce22                	sw	s0,28(sp)
    101e:	1000                	addi	s0,sp,32
    1020:	fea42623          	sw	a0,-20(s0)
    1024:	feb42423          	sw	a1,-24(s0)
C:\Users\山东张\Desktop\新建文件夹\新建文件夹 (2)\SLAVE527\SLAVE-hui\obj/../Libraries/wch_libraries/Peripheral/ch32v10x_dma.c:169
  if (NewState != DISABLE)
    1028:	fe842783          	lw	a5,-24(s0)
    102c:	cb91                	beqz	a5,1040 <DMA_Cmd+0x26>
C:\Users\山东张\Desktop\新建文件夹\新建文件夹 (2)\SLAVE527\SLAVE-hui\obj/../Libraries/wch_libraries/Peripheral/ch32v10x_dma.c:171
  {
    DMAy_Channelx->CFGR |= DMA_CFGR1_EN;
    102e:	fec42783          	lw	a5,-20(s0)
    1032:	439c                	lw	a5,0(a5)
    1034:	0017e713          	ori	a4,a5,1
    1038:	fec42783          	lw	a5,-20(s0)
    103c:	c398                	sw	a4,0(a5)
C:\Users\山东张\Desktop\新建文件夹\新建文件夹 (2)\SLAVE527\SLAVE-hui\obj/../Libraries/wch_libraries/Peripheral/ch32v10x_dma.c:177
  }
  else
  {
    DMAy_Channelx->CFGR &= (uint16_t)(~DMA_CFGR1_EN);
  }
}
    103e:	a811                	j	1052 <DMA_Cmd+0x38>
C:\Users\山东张\Desktop\新建文件夹\新建文件夹 (2)\SLAVE527\SLAVE-hui\obj/../Libraries/wch_libraries/Peripheral/ch32v10x_dma.c:175
    DMAy_Channelx->CFGR &= (uint16_t)(~DMA_CFGR1_EN);
    1040:	fec42783          	lw	a5,-20(s0)
    1044:	4398                	lw	a4,0(a5)
    1046:	67c1                	lui	a5,0x10
    1048:	17f9                	addi	a5,a5,-2
    104a:	8f7d                	and	a4,a4,a5
    104c:	fec42783          	lw	a5,-20(s0)
    1050:	c398                	sw	a4,0(a5)
C:\Users\山东张\Desktop\新建文件夹\新建文件夹 (2)\SLAVE527\SLAVE-hui\obj/../Libraries/wch_libraries/Peripheral/ch32v10x_dma.c:177
}
    1052:	0001                	nop
    1054:	4472                	lw	s0,28(sp)
    1056:	6105                	addi	sp,sp,32
    1058:	8082                	ret

0000105a <DMA_ITConfig>:
DMA_ITConfig():
C:\Users\山东张\Desktop\新建文件夹\新建文件夹 (2)\SLAVE527\SLAVE-hui\obj/../Libraries/wch_libraries/Peripheral/ch32v10x_dma.c:194
*                     DMA_IT_TE :  Transfer error interrupt mask
*                  NewState     : new state of the DMAy Channelx(ENABLE or DISABLE).
* Return         : None
*********************************************************************************/
void DMA_ITConfig(DMA_Channel_TypeDef* DMAy_Channelx, uint32_t DMA_IT, FunctionalState NewState)
{
    105a:	1101                	addi	sp,sp,-32
    105c:	ce22                	sw	s0,28(sp)
    105e:	1000                	addi	s0,sp,32
    1060:	fea42623          	sw	a0,-20(s0)
    1064:	feb42423          	sw	a1,-24(s0)
    1068:	fec42223          	sw	a2,-28(s0)
C:\Users\山东张\Desktop\新建文件夹\新建文件夹 (2)\SLAVE527\SLAVE-hui\obj/../Libraries/wch_libraries/Peripheral/ch32v10x_dma.c:195
  if (NewState != DISABLE)
    106c:	fe442783          	lw	a5,-28(s0)
    1070:	cb99                	beqz	a5,1086 <DMA_ITConfig+0x2c>
C:\Users\山东张\Desktop\新建文件夹\新建文件夹 (2)\SLAVE527\SLAVE-hui\obj/../Libraries/wch_libraries/Peripheral/ch32v10x_dma.c:197
  {
    DMAy_Channelx->CFGR |= DMA_IT;
    1072:	fec42783          	lw	a5,-20(s0)
    1076:	4398                	lw	a4,0(a5)
    1078:	fe842783          	lw	a5,-24(s0)
    107c:	8f5d                	or	a4,a4,a5
    107e:	fec42783          	lw	a5,-20(s0)
    1082:	c398                	sw	a4,0(a5)
C:\Users\山东张\Desktop\新建文件夹\新建文件夹 (2)\SLAVE527\SLAVE-hui\obj/../Libraries/wch_libraries/Peripheral/ch32v10x_dma.c:203
  }
  else
  {
    DMAy_Channelx->CFGR &= ~DMA_IT;
  }
}
    1084:	a821                	j	109c <DMA_ITConfig+0x42>
C:\Users\山东张\Desktop\新建文件夹\新建文件夹 (2)\SLAVE527\SLAVE-hui\obj/../Libraries/wch_libraries/Peripheral/ch32v10x_dma.c:201
    DMAy_Channelx->CFGR &= ~DMA_IT;
    1086:	fec42783          	lw	a5,-20(s0)
    108a:	4398                	lw	a4,0(a5)
    108c:	fe842783          	lw	a5,-24(s0)
    1090:	fff7c793          	not	a5,a5
    1094:	8f7d                	and	a4,a4,a5
    1096:	fec42783          	lw	a5,-20(s0)
    109a:	c398                	sw	a4,0(a5)
C:\Users\山东张\Desktop\新建文件夹\新建文件夹 (2)\SLAVE527\SLAVE-hui\obj/../Libraries/wch_libraries/Peripheral/ch32v10x_dma.c:203
}
    109c:	0001                	nop
    109e:	4472                	lw	s0,28(sp)
    10a0:	6105                	addi	sp,sp,32
    10a2:	8082                	ret

000010a4 <DMA_GetFlagStatus>:
DMA_GetFlagStatus():
C:\Users\山东张\Desktop\新建文件夹\新建文件夹 (2)\SLAVE527\SLAVE-hui\obj/../Libraries/wch_libraries/Peripheral/ch32v10x_dma.c:290
*                      DMA2_FLAG_HT5: DMA2 Channel5 half transfer flag.
*                      DMA2_FLAG_TE5: DMA2 Channel5 transfer error flag.
* Return         : The new state of DMAy_FLAG (SET or RESET). 
*********************************************************************************/
FlagStatus DMA_GetFlagStatus(uint32_t DMAy_FLAG)
{
    10a4:	7179                	addi	sp,sp,-48
    10a6:	d622                	sw	s0,44(sp)
    10a8:	1800                	addi	s0,sp,48
    10aa:	fca42e23          	sw	a0,-36(s0)
C:\Users\山东张\Desktop\新建文件夹\新建文件夹 (2)\SLAVE527\SLAVE-hui\obj/../Libraries/wch_libraries/Peripheral/ch32v10x_dma.c:291
  FlagStatus bitstatus = RESET;
    10ae:	fe042623          	sw	zero,-20(s0)
C:\Users\山东张\Desktop\新建文件夹\新建文件夹 (2)\SLAVE527\SLAVE-hui\obj/../Libraries/wch_libraries/Peripheral/ch32v10x_dma.c:292
  uint32_t tmpreg = 0;
    10b2:	fe042423          	sw	zero,-24(s0)
C:\Users\山东张\Desktop\新建文件夹\新建文件夹 (2)\SLAVE527\SLAVE-hui\obj/../Libraries/wch_libraries/Peripheral/ch32v10x_dma.c:294
  
  if ((DMAy_FLAG & FLAG_Mask) != (uint32_t)RESET)
    10b6:	fdc42703          	lw	a4,-36(s0)
    10ba:	100007b7          	lui	a5,0x10000
    10be:	8ff9                	and	a5,a5,a4
    10c0:	cb89                	beqz	a5,10d2 <DMA_GetFlagStatus+0x2e>
C:\Users\山东张\Desktop\新建文件夹\新建文件夹 (2)\SLAVE527\SLAVE-hui\obj/../Libraries/wch_libraries/Peripheral/ch32v10x_dma.c:296
  {
    tmpreg = DMA2->INTFR ;
    10c2:	400207b7          	lui	a5,0x40020
    10c6:	40078793          	addi	a5,a5,1024 # 40020400 <_eusrstack+0x2001b400>
    10ca:	439c                	lw	a5,0(a5)
    10cc:	fef42423          	sw	a5,-24(s0)
    10d0:	a031                	j	10dc <DMA_GetFlagStatus+0x38>
C:\Users\山东张\Desktop\新建文件夹\新建文件夹 (2)\SLAVE527\SLAVE-hui\obj/../Libraries/wch_libraries/Peripheral/ch32v10x_dma.c:300
  }
  else
  {
    tmpreg = DMA1->INTFR ;
    10d2:	400207b7          	lui	a5,0x40020
    10d6:	439c                	lw	a5,0(a5)
    10d8:	fef42423          	sw	a5,-24(s0)
C:\Users\山东张\Desktop\新建文件夹\新建文件夹 (2)\SLAVE527\SLAVE-hui\obj/../Libraries/wch_libraries/Peripheral/ch32v10x_dma.c:303
  }

  if ((tmpreg & DMAy_FLAG) != (uint32_t)RESET)
    10dc:	fe842703          	lw	a4,-24(s0)
    10e0:	fdc42783          	lw	a5,-36(s0)
    10e4:	8ff9                	and	a5,a5,a4
    10e6:	c789                	beqz	a5,10f0 <DMA_GetFlagStatus+0x4c>
C:\Users\山东张\Desktop\新建文件夹\新建文件夹 (2)\SLAVE527\SLAVE-hui\obj/../Libraries/wch_libraries/Peripheral/ch32v10x_dma.c:305
  {
    bitstatus = SET;
    10e8:	4785                	li	a5,1
    10ea:	fef42623          	sw	a5,-20(s0)
    10ee:	a019                	j	10f4 <DMA_GetFlagStatus+0x50>
C:\Users\山东张\Desktop\新建文件夹\新建文件夹 (2)\SLAVE527\SLAVE-hui\obj/../Libraries/wch_libraries/Peripheral/ch32v10x_dma.c:309
  }
  else
  {
    bitstatus = RESET;
    10f0:	fe042623          	sw	zero,-20(s0)
C:\Users\山东张\Desktop\新建文件夹\新建文件夹 (2)\SLAVE527\SLAVE-hui\obj/../Libraries/wch_libraries/Peripheral/ch32v10x_dma.c:312
  }
  
  return  bitstatus;
    10f4:	fec42783          	lw	a5,-20(s0)
C:\Users\山东张\Desktop\新建文件夹\新建文件夹 (2)\SLAVE527\SLAVE-hui\obj/../Libraries/wch_libraries/Peripheral/ch32v10x_dma.c:313
}
    10f8:	853e                	mv	a0,a5
    10fa:	5432                	lw	s0,44(sp)
    10fc:	6145                	addi	sp,sp,48
    10fe:	8082                	ret

00001100 <DMA_ClearFlag>:
DMA_ClearFlag():
C:\Users\山东张\Desktop\新建文件夹\新建文件夹 (2)\SLAVE527\SLAVE-hui\obj/../Libraries/wch_libraries/Peripheral/ch32v10x_dma.c:371
*                      DMA2_FLAG_HT5: DMA2 Channel5 half transfer flag.
*                      DMA2_FLAG_TE5: DMA2 Channel5 transfer error flag.
* Return         : None 
*********************************************************************************/
void DMA_ClearFlag(uint32_t DMAy_FLAG)
{
    1100:	1101                	addi	sp,sp,-32
    1102:	ce22                	sw	s0,28(sp)
    1104:	1000                	addi	s0,sp,32
    1106:	fea42623          	sw	a0,-20(s0)
C:\Users\山东张\Desktop\新建文件夹\新建文件夹 (2)\SLAVE527\SLAVE-hui\obj/../Libraries/wch_libraries/Peripheral/ch32v10x_dma.c:372
  if ((DMAy_FLAG & FLAG_Mask) != (uint32_t)RESET)
    110a:	fec42703          	lw	a4,-20(s0)
    110e:	100007b7          	lui	a5,0x10000
    1112:	8ff9                	and	a5,a5,a4
    1114:	cb89                	beqz	a5,1126 <DMA_ClearFlag+0x26>
C:\Users\山东张\Desktop\新建文件夹\新建文件夹 (2)\SLAVE527\SLAVE-hui\obj/../Libraries/wch_libraries/Peripheral/ch32v10x_dma.c:374
  {
    DMA2->INTFCR = DMAy_FLAG;
    1116:	400207b7          	lui	a5,0x40020
    111a:	40078793          	addi	a5,a5,1024 # 40020400 <_eusrstack+0x2001b400>
    111e:	fec42703          	lw	a4,-20(s0)
    1122:	c3d8                	sw	a4,4(a5)
C:\Users\山东张\Desktop\新建文件夹\新建文件夹 (2)\SLAVE527\SLAVE-hui\obj/../Libraries/wch_libraries/Peripheral/ch32v10x_dma.c:380
  }
  else
  {
    DMA1->INTFCR = DMAy_FLAG;
  }
}
    1124:	a031                	j	1130 <DMA_ClearFlag+0x30>
C:\Users\山东张\Desktop\新建文件夹\新建文件夹 (2)\SLAVE527\SLAVE-hui\obj/../Libraries/wch_libraries/Peripheral/ch32v10x_dma.c:378
    DMA1->INTFCR = DMAy_FLAG;
    1126:	400207b7          	lui	a5,0x40020
    112a:	fec42703          	lw	a4,-20(s0)
    112e:	c3d8                	sw	a4,4(a5)
C:\Users\山东张\Desktop\新建文件夹\新建文件夹 (2)\SLAVE527\SLAVE-hui\obj/../Libraries/wch_libraries/Peripheral/ch32v10x_dma.c:380
}
    1130:	0001                	nop
    1132:	4472                	lw	s0,28(sp)
    1134:	6105                	addi	sp,sp,32
    1136:	8082                	ret

00001138 <EXTI_Init>:
EXTI_Init():
C:\Users\山东张\Desktop\新建文件夹\新建文件夹 (2)\SLAVE527\SLAVE-hui\obj/../Libraries/wch_libraries/Peripheral/ch32v10x_exti.c:37
*                  parameters in the EXTI_InitStruct.
* Input          : EXTI_InitStruct: pointer to a EXTI_InitTypeDef structure
* Return         : None
*********************************************************************************/	
void EXTI_Init(EXTI_InitTypeDef* EXTI_InitStruct)
{
    1138:	7179                	addi	sp,sp,-48
    113a:	d622                	sw	s0,44(sp)
    113c:	1800                	addi	s0,sp,48
    113e:	fca42e23          	sw	a0,-36(s0)
C:\Users\山东张\Desktop\新建文件夹\新建文件夹 (2)\SLAVE527\SLAVE-hui\obj/../Libraries/wch_libraries/Peripheral/ch32v10x_exti.c:38
  uint32_t tmp = 0;
    1142:	fe042623          	sw	zero,-20(s0)
C:\Users\山东张\Desktop\新建文件夹\新建文件夹 (2)\SLAVE527\SLAVE-hui\obj/../Libraries/wch_libraries/Peripheral/ch32v10x_exti.c:40

  tmp = (uint32_t)EXTI_BASE;
    1146:	400107b7          	lui	a5,0x40010
    114a:	40078793          	addi	a5,a5,1024 # 40010400 <_eusrstack+0x2000b400>
    114e:	fef42623          	sw	a5,-20(s0)
C:\Users\山东张\Desktop\新建文件夹\新建文件夹 (2)\SLAVE527\SLAVE-hui\obj/../Libraries/wch_libraries/Peripheral/ch32v10x_exti.c:41
  if (EXTI_InitStruct->EXTI_LineCmd != DISABLE)
    1152:	fdc42783          	lw	a5,-36(s0)
    1156:	47dc                	lw	a5,12(a5)
    1158:	12078063          	beqz	a5,1278 <EXTI_Init+0x140>
C:\Users\山东张\Desktop\新建文件夹\新建文件夹 (2)\SLAVE527\SLAVE-hui\obj/../Libraries/wch_libraries/Peripheral/ch32v10x_exti.c:43
  {
    EXTI->INTENR &= ~EXTI_InitStruct->EXTI_Line;
    115c:	400107b7          	lui	a5,0x40010
    1160:	40078793          	addi	a5,a5,1024 # 40010400 <_eusrstack+0x2000b400>
    1164:	4394                	lw	a3,0(a5)
    1166:	fdc42783          	lw	a5,-36(s0)
    116a:	439c                	lw	a5,0(a5)
    116c:	fff7c713          	not	a4,a5
    1170:	400107b7          	lui	a5,0x40010
    1174:	40078793          	addi	a5,a5,1024 # 40010400 <_eusrstack+0x2000b400>
    1178:	8f75                	and	a4,a4,a3
    117a:	c398                	sw	a4,0(a5)
C:\Users\山东张\Desktop\新建文件夹\新建文件夹 (2)\SLAVE527\SLAVE-hui\obj/../Libraries/wch_libraries/Peripheral/ch32v10x_exti.c:44
    EXTI->EVENR &= ~EXTI_InitStruct->EXTI_Line;
    117c:	400107b7          	lui	a5,0x40010
    1180:	40078793          	addi	a5,a5,1024 # 40010400 <_eusrstack+0x2000b400>
    1184:	43d4                	lw	a3,4(a5)
    1186:	fdc42783          	lw	a5,-36(s0)
    118a:	439c                	lw	a5,0(a5)
    118c:	fff7c713          	not	a4,a5
    1190:	400107b7          	lui	a5,0x40010
    1194:	40078793          	addi	a5,a5,1024 # 40010400 <_eusrstack+0x2000b400>
    1198:	8f75                	and	a4,a4,a3
    119a:	c3d8                	sw	a4,4(a5)
C:\Users\山东张\Desktop\新建文件夹\新建文件夹 (2)\SLAVE527\SLAVE-hui\obj/../Libraries/wch_libraries/Peripheral/ch32v10x_exti.c:45
    tmp += EXTI_InitStruct->EXTI_Mode;
    119c:	fdc42783          	lw	a5,-36(s0)
    11a0:	43dc                	lw	a5,4(a5)
    11a2:	fec42703          	lw	a4,-20(s0)
    11a6:	97ba                	add	a5,a5,a4
    11a8:	fef42623          	sw	a5,-20(s0)
C:\Users\山东张\Desktop\新建文件夹\新建文件夹 (2)\SLAVE527\SLAVE-hui\obj/../Libraries/wch_libraries/Peripheral/ch32v10x_exti.c:46
    *(__IO uint32_t *) tmp |= EXTI_InitStruct->EXTI_Line;
    11ac:	fec42783          	lw	a5,-20(s0)
    11b0:	4394                	lw	a3,0(a5)
    11b2:	fdc42783          	lw	a5,-36(s0)
    11b6:	4398                	lw	a4,0(a5)
    11b8:	fec42783          	lw	a5,-20(s0)
    11bc:	8f55                	or	a4,a4,a3
    11be:	c398                	sw	a4,0(a5)
C:\Users\山东张\Desktop\新建文件夹\新建文件夹 (2)\SLAVE527\SLAVE-hui\obj/../Libraries/wch_libraries/Peripheral/ch32v10x_exti.c:47
    EXTI->RTENR &= ~EXTI_InitStruct->EXTI_Line;
    11c0:	400107b7          	lui	a5,0x40010
    11c4:	40078793          	addi	a5,a5,1024 # 40010400 <_eusrstack+0x2000b400>
    11c8:	4794                	lw	a3,8(a5)
    11ca:	fdc42783          	lw	a5,-36(s0)
    11ce:	439c                	lw	a5,0(a5)
    11d0:	fff7c713          	not	a4,a5
    11d4:	400107b7          	lui	a5,0x40010
    11d8:	40078793          	addi	a5,a5,1024 # 40010400 <_eusrstack+0x2000b400>
    11dc:	8f75                	and	a4,a4,a3
    11de:	c798                	sw	a4,8(a5)
C:\Users\山东张\Desktop\新建文件夹\新建文件夹 (2)\SLAVE527\SLAVE-hui\obj/../Libraries/wch_libraries/Peripheral/ch32v10x_exti.c:48
    EXTI->FTENR &= ~EXTI_InitStruct->EXTI_Line;
    11e0:	400107b7          	lui	a5,0x40010
    11e4:	40078793          	addi	a5,a5,1024 # 40010400 <_eusrstack+0x2000b400>
    11e8:	47d4                	lw	a3,12(a5)
    11ea:	fdc42783          	lw	a5,-36(s0)
    11ee:	439c                	lw	a5,0(a5)
    11f0:	fff7c713          	not	a4,a5
    11f4:	400107b7          	lui	a5,0x40010
    11f8:	40078793          	addi	a5,a5,1024 # 40010400 <_eusrstack+0x2000b400>
    11fc:	8f75                	and	a4,a4,a3
    11fe:	c7d8                	sw	a4,12(a5)
C:\Users\山东张\Desktop\新建文件夹\新建文件夹 (2)\SLAVE527\SLAVE-hui\obj/../Libraries/wch_libraries/Peripheral/ch32v10x_exti.c:49
    if (EXTI_InitStruct->EXTI_Trigger == EXTI_Trigger_Rising_Falling)
    1200:	fdc42783          	lw	a5,-36(s0)
    1204:	4798                	lw	a4,8(a5)
    1206:	47c1                	li	a5,16
    1208:	02f71f63          	bne	a4,a5,1246 <EXTI_Init+0x10e>
C:\Users\山东张\Desktop\新建文件夹\新建文件夹 (2)\SLAVE527\SLAVE-hui\obj/../Libraries/wch_libraries/Peripheral/ch32v10x_exti.c:51
    {
      EXTI->RTENR |= EXTI_InitStruct->EXTI_Line;
    120c:	400107b7          	lui	a5,0x40010
    1210:	40078793          	addi	a5,a5,1024 # 40010400 <_eusrstack+0x2000b400>
    1214:	4794                	lw	a3,8(a5)
    1216:	fdc42783          	lw	a5,-36(s0)
    121a:	4398                	lw	a4,0(a5)
    121c:	400107b7          	lui	a5,0x40010
    1220:	40078793          	addi	a5,a5,1024 # 40010400 <_eusrstack+0x2000b400>
    1224:	8f55                	or	a4,a4,a3
    1226:	c798                	sw	a4,8(a5)
C:\Users\山东张\Desktop\新建文件夹\新建文件夹 (2)\SLAVE527\SLAVE-hui\obj/../Libraries/wch_libraries/Peripheral/ch32v10x_exti.c:52
      EXTI->FTENR |= EXTI_InitStruct->EXTI_Line;
    1228:	400107b7          	lui	a5,0x40010
    122c:	40078793          	addi	a5,a5,1024 # 40010400 <_eusrstack+0x2000b400>
    1230:	47d4                	lw	a3,12(a5)
    1232:	fdc42783          	lw	a5,-36(s0)
    1236:	4398                	lw	a4,0(a5)
    1238:	400107b7          	lui	a5,0x40010
    123c:	40078793          	addi	a5,a5,1024 # 40010400 <_eusrstack+0x2000b400>
    1240:	8f55                	or	a4,a4,a3
    1242:	c7d8                	sw	a4,12(a5)
C:\Users\山东张\Desktop\新建文件夹\新建文件夹 (2)\SLAVE527\SLAVE-hui\obj/../Libraries/wch_libraries/Peripheral/ch32v10x_exti.c:66
  else
  {
    tmp += EXTI_InitStruct->EXTI_Mode;
    *(__IO uint32_t *) tmp &= ~EXTI_InitStruct->EXTI_Line;
  }
}
    1244:	a8b1                	j	12a0 <EXTI_Init+0x168>
C:\Users\山东张\Desktop\新建文件夹\新建文件夹 (2)\SLAVE527\SLAVE-hui\obj/../Libraries/wch_libraries/Peripheral/ch32v10x_exti.c:56
      tmp = (uint32_t)EXTI_BASE;
    1246:	400107b7          	lui	a5,0x40010
    124a:	40078793          	addi	a5,a5,1024 # 40010400 <_eusrstack+0x2000b400>
    124e:	fef42623          	sw	a5,-20(s0)
C:\Users\山东张\Desktop\新建文件夹\新建文件夹 (2)\SLAVE527\SLAVE-hui\obj/../Libraries/wch_libraries/Peripheral/ch32v10x_exti.c:57
      tmp += EXTI_InitStruct->EXTI_Trigger;
    1252:	fdc42783          	lw	a5,-36(s0)
    1256:	479c                	lw	a5,8(a5)
    1258:	fec42703          	lw	a4,-20(s0)
    125c:	97ba                	add	a5,a5,a4
    125e:	fef42623          	sw	a5,-20(s0)
C:\Users\山东张\Desktop\新建文件夹\新建文件夹 (2)\SLAVE527\SLAVE-hui\obj/../Libraries/wch_libraries/Peripheral/ch32v10x_exti.c:58
      *(__IO uint32_t *) tmp |= EXTI_InitStruct->EXTI_Line;
    1262:	fec42783          	lw	a5,-20(s0)
    1266:	4394                	lw	a3,0(a5)
    1268:	fdc42783          	lw	a5,-36(s0)
    126c:	4398                	lw	a4,0(a5)
    126e:	fec42783          	lw	a5,-20(s0)
    1272:	8f55                	or	a4,a4,a3
    1274:	c398                	sw	a4,0(a5)
C:\Users\山东张\Desktop\新建文件夹\新建文件夹 (2)\SLAVE527\SLAVE-hui\obj/../Libraries/wch_libraries/Peripheral/ch32v10x_exti.c:66
}
    1276:	a02d                	j	12a0 <EXTI_Init+0x168>
C:\Users\山东张\Desktop\新建文件夹\新建文件夹 (2)\SLAVE527\SLAVE-hui\obj/../Libraries/wch_libraries/Peripheral/ch32v10x_exti.c:63
    tmp += EXTI_InitStruct->EXTI_Mode;
    1278:	fdc42783          	lw	a5,-36(s0)
    127c:	43dc                	lw	a5,4(a5)
    127e:	fec42703          	lw	a4,-20(s0)
    1282:	97ba                	add	a5,a5,a4
    1284:	fef42623          	sw	a5,-20(s0)
C:\Users\山东张\Desktop\新建文件夹\新建文件夹 (2)\SLAVE527\SLAVE-hui\obj/../Libraries/wch_libraries/Peripheral/ch32v10x_exti.c:64
    *(__IO uint32_t *) tmp &= ~EXTI_InitStruct->EXTI_Line;
    1288:	fec42783          	lw	a5,-20(s0)
    128c:	4394                	lw	a3,0(a5)
    128e:	fdc42783          	lw	a5,-36(s0)
    1292:	439c                	lw	a5,0(a5)
    1294:	fff7c713          	not	a4,a5
    1298:	fec42783          	lw	a5,-20(s0)
    129c:	8f75                	and	a4,a4,a3
    129e:	c398                	sw	a4,0(a5)
C:\Users\山东张\Desktop\新建文件夹\新建文件夹 (2)\SLAVE527\SLAVE-hui\obj/../Libraries/wch_libraries/Peripheral/ch32v10x_exti.c:66
}
    12a0:	0001                	nop
    12a2:	5432                	lw	s0,44(sp)
    12a4:	6145                	addi	sp,sp,48
    12a6:	8082                	ret

000012a8 <EXTI_GetITStatus>:
EXTI_GetITStatus():
C:\Users\山东张\Desktop\新建文件夹\新建文件夹 (2)\SLAVE527\SLAVE-hui\obj/../Libraries/wch_libraries/Peripheral/ch32v10x_exti.c:131
* Description    : Checks whether the specified EXTI line is asserted or not.
* Input          : EXTI_Line: specifies the EXTI lines to be enabled or disabled.
* Return         : The new state of EXTI_Line (SET or RESET).
*********************************************************************************/	
ITStatus EXTI_GetITStatus(uint32_t EXTI_Line)
{
    12a8:	7179                	addi	sp,sp,-48
    12aa:	d622                	sw	s0,44(sp)
    12ac:	1800                	addi	s0,sp,48
    12ae:	fca42e23          	sw	a0,-36(s0)
C:\Users\山东张\Desktop\新建文件夹\新建文件夹 (2)\SLAVE527\SLAVE-hui\obj/../Libraries/wch_libraries/Peripheral/ch32v10x_exti.c:132
  ITStatus bitstatus = RESET;
    12b2:	fe042623          	sw	zero,-20(s0)
C:\Users\山东张\Desktop\新建文件夹\新建文件夹 (2)\SLAVE527\SLAVE-hui\obj/../Libraries/wch_libraries/Peripheral/ch32v10x_exti.c:133
  uint32_t enablestatus = 0;
    12b6:	fe042423          	sw	zero,-24(s0)
C:\Users\山东张\Desktop\新建文件夹\新建文件夹 (2)\SLAVE527\SLAVE-hui\obj/../Libraries/wch_libraries/Peripheral/ch32v10x_exti.c:135
  
  enablestatus =  EXTI->INTENR & EXTI_Line;
    12ba:	400107b7          	lui	a5,0x40010
    12be:	40078793          	addi	a5,a5,1024 # 40010400 <_eusrstack+0x2000b400>
    12c2:	439c                	lw	a5,0(a5)
    12c4:	fdc42703          	lw	a4,-36(s0)
    12c8:	8ff9                	and	a5,a5,a4
    12ca:	fef42423          	sw	a5,-24(s0)
C:\Users\山东张\Desktop\新建文件夹\新建文件夹 (2)\SLAVE527\SLAVE-hui\obj/../Libraries/wch_libraries/Peripheral/ch32v10x_exti.c:136
  if (((EXTI->INTFR & EXTI_Line) != (uint32_t)RESET) && (enablestatus != (uint32_t)RESET))
    12ce:	400107b7          	lui	a5,0x40010
    12d2:	40078793          	addi	a5,a5,1024 # 40010400 <_eusrstack+0x2000b400>
    12d6:	4bd8                	lw	a4,20(a5)
    12d8:	fdc42783          	lw	a5,-36(s0)
    12dc:	8ff9                	and	a5,a5,a4
    12de:	cb81                	beqz	a5,12ee <EXTI_GetITStatus+0x46>
C:\Users\山东张\Desktop\新建文件夹\新建文件夹 (2)\SLAVE527\SLAVE-hui\obj/../Libraries/wch_libraries/Peripheral/ch32v10x_exti.c:136 (discriminator 1)
    12e0:	fe842783          	lw	a5,-24(s0)
    12e4:	c789                	beqz	a5,12ee <EXTI_GetITStatus+0x46>
C:\Users\山东张\Desktop\新建文件夹\新建文件夹 (2)\SLAVE527\SLAVE-hui\obj/../Libraries/wch_libraries/Peripheral/ch32v10x_exti.c:138
  {
    bitstatus = SET;
    12e6:	4785                	li	a5,1
    12e8:	fef42623          	sw	a5,-20(s0)
    12ec:	a019                	j	12f2 <EXTI_GetITStatus+0x4a>
C:\Users\山东张\Desktop\新建文件夹\新建文件夹 (2)\SLAVE527\SLAVE-hui\obj/../Libraries/wch_libraries/Peripheral/ch32v10x_exti.c:142
  }
  else
  {
    bitstatus = RESET;
    12ee:	fe042623          	sw	zero,-20(s0)
C:\Users\山东张\Desktop\新建文件夹\新建文件夹 (2)\SLAVE527\SLAVE-hui\obj/../Libraries/wch_libraries/Peripheral/ch32v10x_exti.c:144
  }
  return bitstatus;
    12f2:	fec42783          	lw	a5,-20(s0)
C:\Users\山东张\Desktop\新建文件夹\新建文件夹 (2)\SLAVE527\SLAVE-hui\obj/../Libraries/wch_libraries/Peripheral/ch32v10x_exti.c:145
}
    12f6:	853e                	mv	a0,a5
    12f8:	5432                	lw	s0,44(sp)
    12fa:	6145                	addi	sp,sp,48
    12fc:	8082                	ret

000012fe <EXTI_ClearITPendingBit>:
EXTI_ClearITPendingBit():
C:\Users\山东张\Desktop\新建文件夹\新建文件夹 (2)\SLAVE527\SLAVE-hui\obj/../Libraries/wch_libraries/Peripheral/ch32v10x_exti.c:154
* Description    : Clears the EXTI's line pending bits.
* Input          : EXTI_Line: specifies the EXTI lines to be enabled or disabled.
* Return         : None
*********************************************************************************/
void EXTI_ClearITPendingBit(uint32_t EXTI_Line)
{  
    12fe:	1101                	addi	sp,sp,-32
    1300:	ce22                	sw	s0,28(sp)
    1302:	1000                	addi	s0,sp,32
    1304:	fea42623          	sw	a0,-20(s0)
C:\Users\山东张\Desktop\新建文件夹\新建文件夹 (2)\SLAVE527\SLAVE-hui\obj/../Libraries/wch_libraries/Peripheral/ch32v10x_exti.c:155
  EXTI->INTFR = EXTI_Line;
    1308:	400107b7          	lui	a5,0x40010
    130c:	40078793          	addi	a5,a5,1024 # 40010400 <_eusrstack+0x2000b400>
    1310:	fec42703          	lw	a4,-20(s0)
    1314:	cbd8                	sw	a4,20(a5)
C:\Users\山东张\Desktop\新建文件夹\新建文件夹 (2)\SLAVE527\SLAVE-hui\obj/../Libraries/wch_libraries/Peripheral/ch32v10x_exti.c:156
}
    1316:	0001                	nop
    1318:	4472                	lw	s0,28(sp)
    131a:	6105                	addi	sp,sp,32
    131c:	8082                	ret

0000131e <GPIO_Init>:
GPIO_Init():
C:\Users\山东张\Desktop\新建文件夹\新建文件夹 (2)\SLAVE527\SLAVE-hui\obj/../Libraries/wch_libraries/Peripheral/ch32v10x_gpio.c:88
* Input          : GPIO_InitStruct: pointer to a GPIO_InitTypeDef structure that
*      contains the configuration information for the specified GPIO peripheral.
* Return         : None
*******************************************************************************/
void GPIO_Init(GPIO_TypeDef* GPIOx, GPIO_InitTypeDef* GPIO_InitStruct)
{
    131e:	7139                	addi	sp,sp,-64
    1320:	de22                	sw	s0,60(sp)
    1322:	0080                	addi	s0,sp,64
    1324:	fca42623          	sw	a0,-52(s0)
    1328:	fcb42423          	sw	a1,-56(s0)
C:\Users\山东张\Desktop\新建文件夹\新建文件夹 (2)\SLAVE527\SLAVE-hui\obj/../Libraries/wch_libraries/Peripheral/ch32v10x_gpio.c:89
  uint32_t currentmode = 0x00, currentpin = 0x00, pinpos = 0x00, pos = 0x00;
    132c:	fe042623          	sw	zero,-20(s0)
    1330:	fe042023          	sw	zero,-32(s0)
    1334:	fe042423          	sw	zero,-24(s0)
    1338:	fc042e23          	sw	zero,-36(s0)
C:\Users\山东张\Desktop\新建文件夹\新建文件夹 (2)\SLAVE527\SLAVE-hui\obj/../Libraries/wch_libraries/Peripheral/ch32v10x_gpio.c:90
  uint32_t tmpreg = 0x00, pinmask = 0x00;
    133c:	fe042223          	sw	zero,-28(s0)
    1340:	fc042c23          	sw	zero,-40(s0)
C:\Users\山东张\Desktop\新建文件夹\新建文件夹 (2)\SLAVE527\SLAVE-hui\obj/../Libraries/wch_libraries/Peripheral/ch32v10x_gpio.c:92

  currentmode = ((uint32_t)GPIO_InitStruct->GPIO_Mode) & ((uint32_t)0x0F);
    1344:	fc842783          	lw	a5,-56(s0)
    1348:	479c                	lw	a5,8(a5)
    134a:	8bbd                	andi	a5,a5,15
    134c:	fef42623          	sw	a5,-20(s0)
C:\Users\山东张\Desktop\新建文件夹\新建文件夹 (2)\SLAVE527\SLAVE-hui\obj/../Libraries/wch_libraries/Peripheral/ch32v10x_gpio.c:94
	
  if ((((uint32_t)GPIO_InitStruct->GPIO_Mode) & ((uint32_t)0x10)) != 0x00)
    1350:	fc842783          	lw	a5,-56(s0)
    1354:	479c                	lw	a5,8(a5)
    1356:	8bc1                	andi	a5,a5,16
    1358:	cb89                	beqz	a5,136a <GPIO_Init+0x4c>
C:\Users\山东张\Desktop\新建文件夹\新建文件夹 (2)\SLAVE527\SLAVE-hui\obj/../Libraries/wch_libraries/Peripheral/ch32v10x_gpio.c:96
  { 
    currentmode |= (uint32_t)GPIO_InitStruct->GPIO_Speed;
    135a:	fc842783          	lw	a5,-56(s0)
    135e:	43dc                	lw	a5,4(a5)
    1360:	fec42703          	lw	a4,-20(s0)
    1364:	8fd9                	or	a5,a5,a4
    1366:	fef42623          	sw	a5,-20(s0)
C:\Users\山东张\Desktop\新建文件夹\新建文件夹 (2)\SLAVE527\SLAVE-hui\obj/../Libraries/wch_libraries/Peripheral/ch32v10x_gpio.c:99
  }

  if (((uint32_t)GPIO_InitStruct->GPIO_Pin & ((uint32_t)0x00FF)) != 0x00)
    136a:	fc842783          	lw	a5,-56(s0)
    136e:	0007d783          	lhu	a5,0(a5)
    1372:	0ff7f793          	andi	a5,a5,255
    1376:	cff1                	beqz	a5,1452 <GPIO_Init+0x134>
C:\Users\山东张\Desktop\新建文件夹\新建文件夹 (2)\SLAVE527\SLAVE-hui\obj/../Libraries/wch_libraries/Peripheral/ch32v10x_gpio.c:101
  {
    tmpreg = GPIOx->CFGLR;
    1378:	fcc42783          	lw	a5,-52(s0)
    137c:	439c                	lw	a5,0(a5)
    137e:	fef42223          	sw	a5,-28(s0)
C:\Users\山东张\Desktop\新建文件夹\新建文件夹 (2)\SLAVE527\SLAVE-hui\obj/../Libraries/wch_libraries/Peripheral/ch32v10x_gpio.c:103
		
    for (pinpos = 0x00; pinpos < 0x08; pinpos++)
    1382:	fe042423          	sw	zero,-24(s0)
    1386:	a865                	j	143e <GPIO_Init+0x120>
C:\Users\山东张\Desktop\新建文件夹\新建文件夹 (2)\SLAVE527\SLAVE-hui\obj/../Libraries/wch_libraries/Peripheral/ch32v10x_gpio.c:105
    {
      pos = ((uint32_t)0x01) << pinpos;
    1388:	fe842783          	lw	a5,-24(s0)
    138c:	4705                	li	a4,1
    138e:	00f717b3          	sll	a5,a4,a5
    1392:	fcf42e23          	sw	a5,-36(s0)
C:\Users\山东张\Desktop\新建文件夹\新建文件夹 (2)\SLAVE527\SLAVE-hui\obj/../Libraries/wch_libraries/Peripheral/ch32v10x_gpio.c:106
      currentpin = (GPIO_InitStruct->GPIO_Pin) & pos;
    1396:	fc842783          	lw	a5,-56(s0)
    139a:	0007d783          	lhu	a5,0(a5)
    139e:	873e                	mv	a4,a5
    13a0:	fdc42783          	lw	a5,-36(s0)
    13a4:	8ff9                	and	a5,a5,a4
    13a6:	fef42023          	sw	a5,-32(s0)
C:\Users\山东张\Desktop\新建文件夹\新建文件夹 (2)\SLAVE527\SLAVE-hui\obj/../Libraries/wch_libraries/Peripheral/ch32v10x_gpio.c:108
			
      if (currentpin == pos)
    13aa:	fe042703          	lw	a4,-32(s0)
    13ae:	fdc42783          	lw	a5,-36(s0)
    13b2:	08f71163          	bne	a4,a5,1434 <GPIO_Init+0x116>
C:\Users\山东张\Desktop\新建文件夹\新建文件夹 (2)\SLAVE527\SLAVE-hui\obj/../Libraries/wch_libraries/Peripheral/ch32v10x_gpio.c:110
      {
        pos = pinpos << 2;
    13b6:	fe842783          	lw	a5,-24(s0)
    13ba:	078a                	slli	a5,a5,0x2
    13bc:	fcf42e23          	sw	a5,-36(s0)
C:\Users\山东张\Desktop\新建文件夹\新建文件夹 (2)\SLAVE527\SLAVE-hui\obj/../Libraries/wch_libraries/Peripheral/ch32v10x_gpio.c:111
        pinmask = ((uint32_t)0x0F) << pos;
    13c0:	fdc42783          	lw	a5,-36(s0)
    13c4:	473d                	li	a4,15
    13c6:	00f717b3          	sll	a5,a4,a5
    13ca:	fcf42c23          	sw	a5,-40(s0)
C:\Users\山东张\Desktop\新建文件夹\新建文件夹 (2)\SLAVE527\SLAVE-hui\obj/../Libraries/wch_libraries/Peripheral/ch32v10x_gpio.c:112
        tmpreg &= ~pinmask;
    13ce:	fd842783          	lw	a5,-40(s0)
    13d2:	fff7c793          	not	a5,a5
    13d6:	fe442703          	lw	a4,-28(s0)
    13da:	8ff9                	and	a5,a5,a4
    13dc:	fef42223          	sw	a5,-28(s0)
C:\Users\山东张\Desktop\新建文件夹\新建文件夹 (2)\SLAVE527\SLAVE-hui\obj/../Libraries/wch_libraries/Peripheral/ch32v10x_gpio.c:113
        tmpreg |= (currentmode << pos);
    13e0:	fdc42783          	lw	a5,-36(s0)
    13e4:	fec42703          	lw	a4,-20(s0)
    13e8:	00f717b3          	sll	a5,a4,a5
    13ec:	fe442703          	lw	a4,-28(s0)
    13f0:	8fd9                	or	a5,a5,a4
    13f2:	fef42223          	sw	a5,-28(s0)
C:\Users\山东张\Desktop\新建文件夹\新建文件夹 (2)\SLAVE527\SLAVE-hui\obj/../Libraries/wch_libraries/Peripheral/ch32v10x_gpio.c:115

        if (GPIO_InitStruct->GPIO_Mode == GPIO_Mode_IPD)
    13f6:	fc842783          	lw	a5,-56(s0)
    13fa:	4798                	lw	a4,8(a5)
    13fc:	02800793          	li	a5,40
    1400:	00f71b63          	bne	a4,a5,1416 <GPIO_Init+0xf8>
C:\Users\山东张\Desktop\新建文件夹\新建文件夹 (2)\SLAVE527\SLAVE-hui\obj/../Libraries/wch_libraries/Peripheral/ch32v10x_gpio.c:117
        {
          GPIOx->BCR = (((uint32_t)0x01) << pinpos);
    1404:	fe842783          	lw	a5,-24(s0)
    1408:	4705                	li	a4,1
    140a:	00f71733          	sll	a4,a4,a5
    140e:	fcc42783          	lw	a5,-52(s0)
    1412:	cbd8                	sw	a4,20(a5)
    1414:	a005                	j	1434 <GPIO_Init+0x116>
C:\Users\山东张\Desktop\新建文件夹\新建文件夹 (2)\SLAVE527\SLAVE-hui\obj/../Libraries/wch_libraries/Peripheral/ch32v10x_gpio.c:121
        }
        else
        {
          if (GPIO_InitStruct->GPIO_Mode == GPIO_Mode_IPU)
    1416:	fc842783          	lw	a5,-56(s0)
    141a:	4798                	lw	a4,8(a5)
    141c:	04800793          	li	a5,72
    1420:	00f71a63          	bne	a4,a5,1434 <GPIO_Init+0x116>
C:\Users\山东张\Desktop\新建文件夹\新建文件夹 (2)\SLAVE527\SLAVE-hui\obj/../Libraries/wch_libraries/Peripheral/ch32v10x_gpio.c:123
          {
            GPIOx->BSHR = (((uint32_t)0x01) << pinpos);
    1424:	fe842783          	lw	a5,-24(s0)
    1428:	4705                	li	a4,1
    142a:	00f71733          	sll	a4,a4,a5
    142e:	fcc42783          	lw	a5,-52(s0)
    1432:	cb98                	sw	a4,16(a5)
C:\Users\山东张\Desktop\新建文件夹\新建文件夹 (2)\SLAVE527\SLAVE-hui\obj/../Libraries/wch_libraries/Peripheral/ch32v10x_gpio.c:103 (discriminator 2)
    for (pinpos = 0x00; pinpos < 0x08; pinpos++)
    1434:	fe842783          	lw	a5,-24(s0)
    1438:	0785                	addi	a5,a5,1
    143a:	fef42423          	sw	a5,-24(s0)
C:\Users\山东张\Desktop\新建文件夹\新建文件夹 (2)\SLAVE527\SLAVE-hui\obj/../Libraries/wch_libraries/Peripheral/ch32v10x_gpio.c:103 (discriminator 1)
    143e:	fe842703          	lw	a4,-24(s0)
    1442:	479d                	li	a5,7
    1444:	f4e7f2e3          	bgeu	a5,a4,1388 <GPIO_Init+0x6a>
C:\Users\山东张\Desktop\新建文件夹\新建文件夹 (2)\SLAVE527\SLAVE-hui\obj/../Libraries/wch_libraries/Peripheral/ch32v10x_gpio.c:128
          }
        }
      }
    }
    GPIOx->CFGLR = tmpreg;
    1448:	fcc42783          	lw	a5,-52(s0)
    144c:	fe442703          	lw	a4,-28(s0)
    1450:	c398                	sw	a4,0(a5)
C:\Users\山东张\Desktop\新建文件夹\新建文件夹 (2)\SLAVE527\SLAVE-hui\obj/../Libraries/wch_libraries/Peripheral/ch32v10x_gpio.c:131
  }

  if (GPIO_InitStruct->GPIO_Pin > 0x00FF)
    1452:	fc842783          	lw	a5,-56(s0)
    1456:	0007d703          	lhu	a4,0(a5)
    145a:	0ff00793          	li	a5,255
    145e:	0ee7f163          	bgeu	a5,a4,1540 <GPIO_Init+0x222>
C:\Users\山东张\Desktop\新建文件夹\新建文件夹 (2)\SLAVE527\SLAVE-hui\obj/../Libraries/wch_libraries/Peripheral/ch32v10x_gpio.c:133
  {
    tmpreg = GPIOx->CFGHR;
    1462:	fcc42783          	lw	a5,-52(s0)
    1466:	43dc                	lw	a5,4(a5)
    1468:	fef42223          	sw	a5,-28(s0)
C:\Users\山东张\Desktop\新建文件夹\新建文件夹 (2)\SLAVE527\SLAVE-hui\obj/../Libraries/wch_libraries/Peripheral/ch32v10x_gpio.c:135
		
    for (pinpos = 0x00; pinpos < 0x08; pinpos++)
    146c:	fe042423          	sw	zero,-24(s0)
    1470:	a875                	j	152c <GPIO_Init+0x20e>
C:\Users\山东张\Desktop\新建文件夹\新建文件夹 (2)\SLAVE527\SLAVE-hui\obj/../Libraries/wch_libraries/Peripheral/ch32v10x_gpio.c:137
    {
      pos = (((uint32_t)0x01) << (pinpos + 0x08));
    1472:	fe842783          	lw	a5,-24(s0)
    1476:	07a1                	addi	a5,a5,8
    1478:	4705                	li	a4,1
    147a:	00f717b3          	sll	a5,a4,a5
    147e:	fcf42e23          	sw	a5,-36(s0)
C:\Users\山东张\Desktop\新建文件夹\新建文件夹 (2)\SLAVE527\SLAVE-hui\obj/../Libraries/wch_libraries/Peripheral/ch32v10x_gpio.c:138
      currentpin = ((GPIO_InitStruct->GPIO_Pin) & pos);
    1482:	fc842783          	lw	a5,-56(s0)
    1486:	0007d783          	lhu	a5,0(a5)
    148a:	873e                	mv	a4,a5
    148c:	fdc42783          	lw	a5,-36(s0)
    1490:	8ff9                	and	a5,a5,a4
    1492:	fef42023          	sw	a5,-32(s0)
C:\Users\山东张\Desktop\新建文件夹\新建文件夹 (2)\SLAVE527\SLAVE-hui\obj/../Libraries/wch_libraries/Peripheral/ch32v10x_gpio.c:140
			
      if (currentpin == pos)
    1496:	fe042703          	lw	a4,-32(s0)
    149a:	fdc42783          	lw	a5,-36(s0)
    149e:	08f71263          	bne	a4,a5,1522 <GPIO_Init+0x204>
C:\Users\山东张\Desktop\新建文件夹\新建文件夹 (2)\SLAVE527\SLAVE-hui\obj/../Libraries/wch_libraries/Peripheral/ch32v10x_gpio.c:142
      {
        pos = pinpos << 2;
    14a2:	fe842783          	lw	a5,-24(s0)
    14a6:	078a                	slli	a5,a5,0x2
    14a8:	fcf42e23          	sw	a5,-36(s0)
C:\Users\山东张\Desktop\新建文件夹\新建文件夹 (2)\SLAVE527\SLAVE-hui\obj/../Libraries/wch_libraries/Peripheral/ch32v10x_gpio.c:143
        pinmask = ((uint32_t)0x0F) << pos;
    14ac:	fdc42783          	lw	a5,-36(s0)
    14b0:	473d                	li	a4,15
    14b2:	00f717b3          	sll	a5,a4,a5
    14b6:	fcf42c23          	sw	a5,-40(s0)
C:\Users\山东张\Desktop\新建文件夹\新建文件夹 (2)\SLAVE527\SLAVE-hui\obj/../Libraries/wch_libraries/Peripheral/ch32v10x_gpio.c:144
        tmpreg &= ~pinmask;
    14ba:	fd842783          	lw	a5,-40(s0)
    14be:	fff7c793          	not	a5,a5
    14c2:	fe442703          	lw	a4,-28(s0)
    14c6:	8ff9                	and	a5,a5,a4
    14c8:	fef42223          	sw	a5,-28(s0)
C:\Users\山东张\Desktop\新建文件夹\新建文件夹 (2)\SLAVE527\SLAVE-hui\obj/../Libraries/wch_libraries/Peripheral/ch32v10x_gpio.c:145
        tmpreg |= (currentmode << pos);
    14cc:	fdc42783          	lw	a5,-36(s0)
    14d0:	fec42703          	lw	a4,-20(s0)
    14d4:	00f717b3          	sll	a5,a4,a5
    14d8:	fe442703          	lw	a4,-28(s0)
    14dc:	8fd9                	or	a5,a5,a4
    14de:	fef42223          	sw	a5,-28(s0)
C:\Users\山东张\Desktop\新建文件夹\新建文件夹 (2)\SLAVE527\SLAVE-hui\obj/../Libraries/wch_libraries/Peripheral/ch32v10x_gpio.c:147

        if (GPIO_InitStruct->GPIO_Mode == GPIO_Mode_IPD)
    14e2:	fc842783          	lw	a5,-56(s0)
    14e6:	4798                	lw	a4,8(a5)
    14e8:	02800793          	li	a5,40
    14ec:	00f71b63          	bne	a4,a5,1502 <GPIO_Init+0x1e4>
C:\Users\山东张\Desktop\新建文件夹\新建文件夹 (2)\SLAVE527\SLAVE-hui\obj/../Libraries/wch_libraries/Peripheral/ch32v10x_gpio.c:149
        {
          GPIOx->BCR = (((uint32_t)0x01) << (pinpos + 0x08));
    14f0:	fe842783          	lw	a5,-24(s0)
    14f4:	07a1                	addi	a5,a5,8
    14f6:	4705                	li	a4,1
    14f8:	00f71733          	sll	a4,a4,a5
    14fc:	fcc42783          	lw	a5,-52(s0)
    1500:	cbd8                	sw	a4,20(a5)
C:\Users\山东张\Desktop\新建文件夹\新建文件夹 (2)\SLAVE527\SLAVE-hui\obj/../Libraries/wch_libraries/Peripheral/ch32v10x_gpio.c:152
        }

        if (GPIO_InitStruct->GPIO_Mode == GPIO_Mode_IPU)
    1502:	fc842783          	lw	a5,-56(s0)
    1506:	4798                	lw	a4,8(a5)
    1508:	04800793          	li	a5,72
    150c:	00f71b63          	bne	a4,a5,1522 <GPIO_Init+0x204>
C:\Users\山东张\Desktop\新建文件夹\新建文件夹 (2)\SLAVE527\SLAVE-hui\obj/../Libraries/wch_libraries/Peripheral/ch32v10x_gpio.c:154
        {
          GPIOx->BSHR = (((uint32_t)0x01) << (pinpos + 0x08));
    1510:	fe842783          	lw	a5,-24(s0)
    1514:	07a1                	addi	a5,a5,8
    1516:	4705                	li	a4,1
    1518:	00f71733          	sll	a4,a4,a5
    151c:	fcc42783          	lw	a5,-52(s0)
    1520:	cb98                	sw	a4,16(a5)
C:\Users\山东张\Desktop\新建文件夹\新建文件夹 (2)\SLAVE527\SLAVE-hui\obj/../Libraries/wch_libraries/Peripheral/ch32v10x_gpio.c:135 (discriminator 2)
    for (pinpos = 0x00; pinpos < 0x08; pinpos++)
    1522:	fe842783          	lw	a5,-24(s0)
    1526:	0785                	addi	a5,a5,1
    1528:	fef42423          	sw	a5,-24(s0)
C:\Users\山东张\Desktop\新建文件夹\新建文件夹 (2)\SLAVE527\SLAVE-hui\obj/../Libraries/wch_libraries/Peripheral/ch32v10x_gpio.c:135 (discriminator 1)
    152c:	fe842703          	lw	a4,-24(s0)
    1530:	479d                	li	a5,7
    1532:	f4e7f0e3          	bgeu	a5,a4,1472 <GPIO_Init+0x154>
C:\Users\山东张\Desktop\新建文件夹\新建文件夹 (2)\SLAVE527\SLAVE-hui\obj/../Libraries/wch_libraries/Peripheral/ch32v10x_gpio.c:158
        }
      }
    }
    GPIOx->CFGHR = tmpreg;
    1536:	fcc42783          	lw	a5,-52(s0)
    153a:	fe442703          	lw	a4,-28(s0)
    153e:	c3d8                	sw	a4,4(a5)
C:\Users\山东张\Desktop\新建文件夹\新建文件夹 (2)\SLAVE527\SLAVE-hui\obj/../Libraries/wch_libraries/Peripheral/ch32v10x_gpio.c:160
  }
}
    1540:	0001                	nop
    1542:	5472                	lw	s0,60(sp)
    1544:	6121                	addi	sp,sp,64
    1546:	8082                	ret

00001548 <GPIO_WriteBit>:
GPIO_WriteBit():
C:\Users\山东张\Desktop\新建文件夹\新建文件夹 (2)\SLAVE527\SLAVE-hui\obj/../Libraries/wch_libraries/Peripheral/ch32v10x_gpio.c:282
*                    Bit_SetL: to clear the port pin.
*                    Bit_SetH: to set the port pin.                  
* Return         : None
*******************************************************************************/
void GPIO_WriteBit(GPIO_TypeDef* GPIOx, uint16_t GPIO_Pin, BitAction BitVal)
{
    1548:	1101                	addi	sp,sp,-32
    154a:	ce22                	sw	s0,28(sp)
    154c:	1000                	addi	s0,sp,32
    154e:	fea42623          	sw	a0,-20(s0)
    1552:	87ae                	mv	a5,a1
    1554:	fec42223          	sw	a2,-28(s0)
    1558:	fef41523          	sh	a5,-22(s0)
C:\Users\山东张\Desktop\新建文件夹\新建文件夹 (2)\SLAVE527\SLAVE-hui\obj/../Libraries/wch_libraries/Peripheral/ch32v10x_gpio.c:283
  if (BitVal != Bit_RESET)
    155c:	fe442783          	lw	a5,-28(s0)
    1560:	c799                	beqz	a5,156e <GPIO_WriteBit+0x26>
C:\Users\山东张\Desktop\新建文件夹\新建文件夹 (2)\SLAVE527\SLAVE-hui\obj/../Libraries/wch_libraries/Peripheral/ch32v10x_gpio.c:285
  {
    GPIOx->BSHR = GPIO_Pin;
    1562:	fea45703          	lhu	a4,-22(s0)
    1566:	fec42783          	lw	a5,-20(s0)
    156a:	cb98                	sw	a4,16(a5)
C:\Users\山东张\Desktop\新建文件夹\新建文件夹 (2)\SLAVE527\SLAVE-hui\obj/../Libraries/wch_libraries/Peripheral/ch32v10x_gpio.c:291
  }
  else
  {
    GPIOx->BCR = GPIO_Pin;
  }
}
    156c:	a031                	j	1578 <GPIO_WriteBit+0x30>
C:\Users\山东张\Desktop\新建文件夹\新建文件夹 (2)\SLAVE527\SLAVE-hui\obj/../Libraries/wch_libraries/Peripheral/ch32v10x_gpio.c:289
    GPIOx->BCR = GPIO_Pin;
    156e:	fea45703          	lhu	a4,-22(s0)
    1572:	fec42783          	lw	a5,-20(s0)
    1576:	cbd8                	sw	a4,20(a5)
C:\Users\山东张\Desktop\新建文件夹\新建文件夹 (2)\SLAVE527\SLAVE-hui\obj/../Libraries/wch_libraries/Peripheral/ch32v10x_gpio.c:291
}
    1578:	0001                	nop
    157a:	4472                	lw	s0,28(sp)
    157c:	6105                	addi	sp,sp,32
    157e:	8082                	ret

00001580 <GPIO_PinRemapConfig>:
GPIO_PinRemapConfig():
C:\Users\山东张\Desktop\新建文件夹\新建文件夹 (2)\SLAVE527\SLAVE-hui\obj/../Libraries/wch_libraries/Peripheral/ch32v10x_gpio.c:402
*      only for High density Value line devices)     
*                  NewState: ENABLE or DISABLE.             
* Return         : None
*******************************************************************************/
void GPIO_PinRemapConfig(uint32_t GPIO_Remap, FunctionalState NewState)
{
    1580:	7179                	addi	sp,sp,-48
    1582:	d622                	sw	s0,44(sp)
    1584:	1800                	addi	s0,sp,48
    1586:	fca42e23          	sw	a0,-36(s0)
    158a:	fcb42c23          	sw	a1,-40(s0)
C:\Users\山东张\Desktop\新建文件夹\新建文件夹 (2)\SLAVE527\SLAVE-hui\obj/../Libraries/wch_libraries/Peripheral/ch32v10x_gpio.c:403
  uint32_t tmp = 0x00, tmp1 = 0x00, tmpreg = 0x00, tmpmask = 0x00;
    158e:	fe042423          	sw	zero,-24(s0)
    1592:	fe042223          	sw	zero,-28(s0)
    1596:	fe042623          	sw	zero,-20(s0)
    159a:	fe042023          	sw	zero,-32(s0)
C:\Users\山东张\Desktop\新建文件夹\新建文件夹 (2)\SLAVE527\SLAVE-hui\obj/../Libraries/wch_libraries/Peripheral/ch32v10x_gpio.c:405

  if((GPIO_Remap & 0x80000000) == 0x80000000)
    159e:	fdc42783          	lw	a5,-36(s0)
    15a2:	0007d863          	bgez	a5,15b2 <GPIO_PinRemapConfig+0x32>
C:\Users\山东张\Desktop\新建文件夹\新建文件夹 (2)\SLAVE527\SLAVE-hui\obj/../Libraries/wch_libraries/Peripheral/ch32v10x_gpio.c:407
  {
    tmpreg = AFIO->PCFR2;
    15a6:	400107b7          	lui	a5,0x40010
    15aa:	4fdc                	lw	a5,28(a5)
    15ac:	fef42623          	sw	a5,-20(s0)
    15b0:	a031                	j	15bc <GPIO_PinRemapConfig+0x3c>
C:\Users\山东张\Desktop\新建文件夹\新建文件夹 (2)\SLAVE527\SLAVE-hui\obj/../Libraries/wch_libraries/Peripheral/ch32v10x_gpio.c:411
  }
  else
  {
    tmpreg = AFIO->PCFR1;
    15b2:	400107b7          	lui	a5,0x40010
    15b6:	43dc                	lw	a5,4(a5)
    15b8:	fef42623          	sw	a5,-20(s0)
C:\Users\山东张\Desktop\新建文件夹\新建文件夹 (2)\SLAVE527\SLAVE-hui\obj/../Libraries/wch_libraries/Peripheral/ch32v10x_gpio.c:414
  }

  tmpmask = (GPIO_Remap & DBGAFR_POSITION_MASK) >> 0x10;
    15bc:	fdc42783          	lw	a5,-36(s0)
    15c0:	83c1                	srli	a5,a5,0x10
    15c2:	8bbd                	andi	a5,a5,15
    15c4:	fef42023          	sw	a5,-32(s0)
C:\Users\山东张\Desktop\新建文件夹\新建文件夹 (2)\SLAVE527\SLAVE-hui\obj/../Libraries/wch_libraries/Peripheral/ch32v10x_gpio.c:415
  tmp = GPIO_Remap & LSB_MASK;
    15c8:	fdc42703          	lw	a4,-36(s0)
    15cc:	67c1                	lui	a5,0x10
    15ce:	17fd                	addi	a5,a5,-1
    15d0:	8ff9                	and	a5,a5,a4
    15d2:	fef42423          	sw	a5,-24(s0)
C:\Users\山东张\Desktop\新建文件夹\新建文件夹 (2)\SLAVE527\SLAVE-hui\obj/../Libraries/wch_libraries/Peripheral/ch32v10x_gpio.c:417

  if ((GPIO_Remap & (DBGAFR_LOCATION_MASK | DBGAFR_NUMBITS_MASK)) == (DBGAFR_LOCATION_MASK | DBGAFR_NUMBITS_MASK))
    15d6:	fdc42703          	lw	a4,-36(s0)
    15da:	003007b7          	lui	a5,0x300
    15de:	8f7d                	and	a4,a4,a5
    15e0:	003007b7          	lui	a5,0x300
    15e4:	02f71563          	bne	a4,a5,160e <GPIO_PinRemapConfig+0x8e>
C:\Users\山东张\Desktop\新建文件夹\新建文件夹 (2)\SLAVE527\SLAVE-hui\obj/../Libraries/wch_libraries/Peripheral/ch32v10x_gpio.c:419
  {
    tmpreg &= DBGAFR_SWJCFG_MASK;
    15e8:	fec42703          	lw	a4,-20(s0)
    15ec:	f10007b7          	lui	a5,0xf1000
    15f0:	17fd                	addi	a5,a5,-1
    15f2:	8ff9                	and	a5,a5,a4
    15f4:	fef42623          	sw	a5,-20(s0)
C:\Users\山东张\Desktop\新建文件夹\新建文件夹 (2)\SLAVE527\SLAVE-hui\obj/../Libraries/wch_libraries/Peripheral/ch32v10x_gpio.c:420
    AFIO->PCFR1 &= DBGAFR_SWJCFG_MASK;
    15f8:	400107b7          	lui	a5,0x40010
    15fc:	43d4                	lw	a3,4(a5)
    15fe:	400107b7          	lui	a5,0x40010
    1602:	f1000737          	lui	a4,0xf1000
    1606:	177d                	addi	a4,a4,-1
    1608:	8f75                	and	a4,a4,a3
    160a:	c3d8                	sw	a4,4(a5)
    160c:	a0ad                	j	1676 <GPIO_PinRemapConfig+0xf6>
C:\Users\山东张\Desktop\新建文件夹\新建文件夹 (2)\SLAVE527\SLAVE-hui\obj/../Libraries/wch_libraries/Peripheral/ch32v10x_gpio.c:422
  }
  else if ((GPIO_Remap & DBGAFR_NUMBITS_MASK) == DBGAFR_NUMBITS_MASK)
    160e:	fdc42703          	lw	a4,-36(s0)
    1612:	001007b7          	lui	a5,0x100
    1616:	8ff9                	and	a5,a5,a4
    1618:	cb8d                	beqz	a5,164a <GPIO_PinRemapConfig+0xca>
C:\Users\山东张\Desktop\新建文件夹\新建文件夹 (2)\SLAVE527\SLAVE-hui\obj/../Libraries/wch_libraries/Peripheral/ch32v10x_gpio.c:424
  {
    tmp1 = ((uint32_t)0x03) << tmpmask;
    161a:	fe042783          	lw	a5,-32(s0)
    161e:	470d                	li	a4,3
    1620:	00f717b3          	sll	a5,a4,a5
    1624:	fef42223          	sw	a5,-28(s0)
C:\Users\山东张\Desktop\新建文件夹\新建文件夹 (2)\SLAVE527\SLAVE-hui\obj/../Libraries/wch_libraries/Peripheral/ch32v10x_gpio.c:425
    tmpreg &= ~tmp1;
    1628:	fe442783          	lw	a5,-28(s0)
    162c:	fff7c793          	not	a5,a5
    1630:	fec42703          	lw	a4,-20(s0)
    1634:	8ff9                	and	a5,a5,a4
    1636:	fef42623          	sw	a5,-20(s0)
C:\Users\山东张\Desktop\新建文件夹\新建文件夹 (2)\SLAVE527\SLAVE-hui\obj/../Libraries/wch_libraries/Peripheral/ch32v10x_gpio.c:426
    tmpreg |= ~DBGAFR_SWJCFG_MASK;
    163a:	fec42703          	lw	a4,-20(s0)
    163e:	0f0007b7          	lui	a5,0xf000
    1642:	8fd9                	or	a5,a5,a4
    1644:	fef42623          	sw	a5,-20(s0)
    1648:	a03d                	j	1676 <GPIO_PinRemapConfig+0xf6>
C:\Users\山东张\Desktop\新建文件夹\新建文件夹 (2)\SLAVE527\SLAVE-hui\obj/../Libraries/wch_libraries/Peripheral/ch32v10x_gpio.c:430
  }
  else
  {
    tmpreg &= ~(tmp << ((GPIO_Remap >> 0x15)*0x10));
    164a:	fdc42783          	lw	a5,-36(s0)
    164e:	83d5                	srli	a5,a5,0x15
    1650:	0792                	slli	a5,a5,0x4
    1652:	fe842703          	lw	a4,-24(s0)
    1656:	00f717b3          	sll	a5,a4,a5
    165a:	fff7c793          	not	a5,a5
    165e:	fec42703          	lw	a4,-20(s0)
    1662:	8ff9                	and	a5,a5,a4
    1664:	fef42623          	sw	a5,-20(s0)
C:\Users\山东张\Desktop\新建文件夹\新建文件夹 (2)\SLAVE527\SLAVE-hui\obj/../Libraries/wch_libraries/Peripheral/ch32v10x_gpio.c:431
    tmpreg |= ~DBGAFR_SWJCFG_MASK;
    1668:	fec42703          	lw	a4,-20(s0)
    166c:	0f0007b7          	lui	a5,0xf000
    1670:	8fd9                	or	a5,a5,a4
    1672:	fef42623          	sw	a5,-20(s0)
C:\Users\山东张\Desktop\新建文件夹\新建文件夹 (2)\SLAVE527\SLAVE-hui\obj/../Libraries/wch_libraries/Peripheral/ch32v10x_gpio.c:434
  }

  if (NewState != DISABLE)
    1676:	fd842783          	lw	a5,-40(s0)
    167a:	cf91                	beqz	a5,1696 <GPIO_PinRemapConfig+0x116>
C:\Users\山东张\Desktop\新建文件夹\新建文件夹 (2)\SLAVE527\SLAVE-hui\obj/../Libraries/wch_libraries/Peripheral/ch32v10x_gpio.c:436
  {
    tmpreg |= (tmp << ((GPIO_Remap >> 0x15)*0x10));
    167c:	fdc42783          	lw	a5,-36(s0)
    1680:	83d5                	srli	a5,a5,0x15
    1682:	0792                	slli	a5,a5,0x4
    1684:	fe842703          	lw	a4,-24(s0)
    1688:	00f717b3          	sll	a5,a4,a5
    168c:	fec42703          	lw	a4,-20(s0)
    1690:	8fd9                	or	a5,a5,a4
    1692:	fef42623          	sw	a5,-20(s0)
C:\Users\山东张\Desktop\新建文件夹\新建文件夹 (2)\SLAVE527\SLAVE-hui\obj/../Libraries/wch_libraries/Peripheral/ch32v10x_gpio.c:439
  }

  if((GPIO_Remap & 0x80000000) == 0x80000000)
    1696:	fdc42783          	lw	a5,-36(s0)
    169a:	0007d863          	bgez	a5,16aa <GPIO_PinRemapConfig+0x12a>
C:\Users\山东张\Desktop\新建文件夹\新建文件夹 (2)\SLAVE527\SLAVE-hui\obj/../Libraries/wch_libraries/Peripheral/ch32v10x_gpio.c:441
  {
    AFIO->PCFR2 = tmpreg;
    169e:	400107b7          	lui	a5,0x40010
    16a2:	fec42703          	lw	a4,-20(s0)
    16a6:	cfd8                	sw	a4,28(a5)
C:\Users\山东张\Desktop\新建文件夹\新建文件夹 (2)\SLAVE527\SLAVE-hui\obj/../Libraries/wch_libraries/Peripheral/ch32v10x_gpio.c:447
  }
  else
  {
    AFIO->PCFR1 = tmpreg;
  }  
}
    16a8:	a031                	j	16b4 <GPIO_PinRemapConfig+0x134>
C:\Users\山东张\Desktop\新建文件夹\新建文件夹 (2)\SLAVE527\SLAVE-hui\obj/../Libraries/wch_libraries/Peripheral/ch32v10x_gpio.c:445
    AFIO->PCFR1 = tmpreg;
    16aa:	400107b7          	lui	a5,0x40010
    16ae:	fec42703          	lw	a4,-20(s0)
    16b2:	c3d8                	sw	a4,4(a5)
C:\Users\山东张\Desktop\新建文件夹\新建文件夹 (2)\SLAVE527\SLAVE-hui\obj/../Libraries/wch_libraries/Peripheral/ch32v10x_gpio.c:447
}
    16b4:	0001                	nop
    16b6:	5432                	lw	s0,44(sp)
    16b8:	6145                	addi	sp,sp,48
    16ba:	8082                	ret

000016bc <GPIO_EXTILineConfig>:
GPIO_EXTILineConfig():
C:\Users\山东张\Desktop\新建文件夹\新建文件夹 (2)\SLAVE527\SLAVE-hui\obj/../Libraries/wch_libraries/Peripheral/ch32v10x_gpio.c:459
*                  GPIO_PinSource: specifies the EXTI line to be configured.
*                    This parameter can be GPIO_PinSourcex where x can be (0..15).
* Return         : None
*******************************************************************************/
void GPIO_EXTILineConfig(uint8_t GPIO_PortSource, uint8_t GPIO_PinSource)
{
    16bc:	7179                	addi	sp,sp,-48
    16be:	d622                	sw	s0,44(sp)
    16c0:	1800                	addi	s0,sp,48
    16c2:	87aa                	mv	a5,a0
    16c4:	872e                	mv	a4,a1
    16c6:	fcf40fa3          	sb	a5,-33(s0)
    16ca:	87ba                	mv	a5,a4
    16cc:	fcf40f23          	sb	a5,-34(s0)
C:\Users\山东张\Desktop\新建文件夹\新建文件夹 (2)\SLAVE527\SLAVE-hui\obj/../Libraries/wch_libraries/Peripheral/ch32v10x_gpio.c:460
  uint32_t tmp = 0x00;
    16d0:	fe042623          	sw	zero,-20(s0)
C:\Users\山东张\Desktop\新建文件夹\新建文件夹 (2)\SLAVE527\SLAVE-hui\obj/../Libraries/wch_libraries/Peripheral/ch32v10x_gpio.c:462

  tmp = ((uint32_t)0x0F) << (0x04 * (GPIO_PinSource & (uint8_t)0x03));
    16d4:	fde44783          	lbu	a5,-34(s0)
    16d8:	8b8d                	andi	a5,a5,3
    16da:	078a                	slli	a5,a5,0x2
    16dc:	473d                	li	a4,15
    16de:	00f717b3          	sll	a5,a4,a5
    16e2:	fef42623          	sw	a5,-20(s0)
C:\Users\山东张\Desktop\新建文件夹\新建文件夹 (2)\SLAVE527\SLAVE-hui\obj/../Libraries/wch_libraries/Peripheral/ch32v10x_gpio.c:463
  AFIO->EXTICR[GPIO_PinSource >> 0x02] &= ~tmp;
    16e6:	40010737          	lui	a4,0x40010
    16ea:	fde44783          	lbu	a5,-34(s0)
    16ee:	8389                	srli	a5,a5,0x2
    16f0:	0ff7f793          	andi	a5,a5,255
    16f4:	078a                	slli	a5,a5,0x2
    16f6:	97ba                	add	a5,a5,a4
    16f8:	4798                	lw	a4,8(a5)
    16fa:	fec42783          	lw	a5,-20(s0)
    16fe:	fff7c793          	not	a5,a5
    1702:	400106b7          	lui	a3,0x40010
    1706:	fde44603          	lbu	a2,-34(s0)
    170a:	8209                	srli	a2,a2,0x2
    170c:	0ff67613          	andi	a2,a2,255
    1710:	8f7d                	and	a4,a4,a5
    1712:	00261793          	slli	a5,a2,0x2
    1716:	97b6                	add	a5,a5,a3
    1718:	c798                	sw	a4,8(a5)
C:\Users\山东张\Desktop\新建文件夹\新建文件夹 (2)\SLAVE527\SLAVE-hui\obj/../Libraries/wch_libraries/Peripheral/ch32v10x_gpio.c:464
  AFIO->EXTICR[GPIO_PinSource >> 0x02] |= (((uint32_t)GPIO_PortSource) << (0x04 * (GPIO_PinSource & (uint8_t)0x03)));
    171a:	40010737          	lui	a4,0x40010
    171e:	fde44783          	lbu	a5,-34(s0)
    1722:	8389                	srli	a5,a5,0x2
    1724:	0ff7f793          	andi	a5,a5,255
    1728:	078a                	slli	a5,a5,0x2
    172a:	97ba                	add	a5,a5,a4
    172c:	4798                	lw	a4,8(a5)
    172e:	fdf44683          	lbu	a3,-33(s0)
    1732:	fde44783          	lbu	a5,-34(s0)
    1736:	8b8d                	andi	a5,a5,3
    1738:	078a                	slli	a5,a5,0x2
    173a:	00f697b3          	sll	a5,a3,a5
    173e:	400106b7          	lui	a3,0x40010
    1742:	fde44603          	lbu	a2,-34(s0)
    1746:	8209                	srli	a2,a2,0x2
    1748:	0ff67613          	andi	a2,a2,255
    174c:	8f5d                	or	a4,a4,a5
    174e:	00261793          	slli	a5,a2,0x2
    1752:	97b6                	add	a5,a5,a3
    1754:	c798                	sw	a4,8(a5)
C:\Users\山东张\Desktop\新建文件夹\新建文件夹 (2)\SLAVE527\SLAVE-hui\obj/../Libraries/wch_libraries/Peripheral/ch32v10x_gpio.c:465
}
    1756:	0001                	nop
    1758:	5432                	lw	s0,44(sp)
    175a:	6145                	addi	sp,sp,48
    175c:	8082                	ret

0000175e <NVIC_EnableIRQ>:
NVIC_EnableIRQ():
C:\Users\山东张\Desktop\新建文件夹\新建文件夹 (2)\SLAVE527\SLAVE-hui\obj/../Libraries/wch_libraries/Core/core_riscv.h:126
* Function Name  : NVIC_EnableIRQ
* Description    : Enable Interrupt
* Input          : IRQn: Interrupt Numbers
* Return         : None
*******************************************************************************/
RV_STATIC_INLINE void NVIC_EnableIRQ(IRQn_Type IRQn){
    175e:	1101                	addi	sp,sp,-32
    1760:	ce22                	sw	s0,28(sp)
    1762:	1000                	addi	s0,sp,32
    1764:	fea42623          	sw	a0,-20(s0)
C:\Users\山东张\Desktop\新建文件夹\新建文件夹 (2)\SLAVE527\SLAVE-hui\obj/../Libraries/wch_libraries/Core/core_riscv.h:127
  NVIC->IENR[((uint32_t)(IRQn) >> 5)] = (1 << ((uint32_t)(IRQn) & 0x1F));
    1768:	fec42783          	lw	a5,-20(s0)
    176c:	8bfd                	andi	a5,a5,31
    176e:	4705                	li	a4,1
    1770:	00f716b3          	sll	a3,a4,a5
    1774:	e000e737          	lui	a4,0xe000e
    1778:	fec42783          	lw	a5,-20(s0)
    177c:	8395                	srli	a5,a5,0x5
    177e:	04078793          	addi	a5,a5,64 # 40010040 <_eusrstack+0x2000b040>
    1782:	078a                	slli	a5,a5,0x2
    1784:	97ba                	add	a5,a5,a4
    1786:	c394                	sw	a3,0(a5)
C:\Users\山东张\Desktop\新建文件夹\新建文件夹 (2)\SLAVE527\SLAVE-hui\obj/../Libraries/wch_libraries/Core/core_riscv.h:128
}
    1788:	0001                	nop
    178a:	4472                	lw	s0,28(sp)
    178c:	6105                	addi	sp,sp,32
    178e:	8082                	ret

00001790 <NVIC_DisableIRQ>:
NVIC_DisableIRQ():
C:\Users\山东张\Desktop\新建文件夹\新建文件夹 (2)\SLAVE527\SLAVE-hui\obj/../Libraries/wch_libraries/Core/core_riscv.h:137
* Description    : Disable Interrupt
* Input          : IRQn: Interrupt Numbers
* Return         : None
*******************************************************************************/
RV_STATIC_INLINE void NVIC_DisableIRQ(IRQn_Type IRQn)
{
    1790:	1101                	addi	sp,sp,-32
    1792:	ce22                	sw	s0,28(sp)
    1794:	1000                	addi	s0,sp,32
    1796:	fea42623          	sw	a0,-20(s0)
C:\Users\山东张\Desktop\新建文件夹\新建文件夹 (2)\SLAVE527\SLAVE-hui\obj/../Libraries/wch_libraries/Core/core_riscv.h:138
  NVIC->IRER[((uint32_t)(IRQn) >> 5)] = (1 << ((uint32_t)(IRQn) & 0x1F));
    179a:	fec42783          	lw	a5,-20(s0)
    179e:	8bfd                	andi	a5,a5,31
    17a0:	4705                	li	a4,1
    17a2:	00f716b3          	sll	a3,a4,a5
    17a6:	e000e737          	lui	a4,0xe000e
    17aa:	fec42783          	lw	a5,-20(s0)
    17ae:	8395                	srli	a5,a5,0x5
    17b0:	06078793          	addi	a5,a5,96
    17b4:	078a                	slli	a5,a5,0x2
    17b6:	97ba                	add	a5,a5,a4
    17b8:	c394                	sw	a3,0(a5)
C:\Users\山东张\Desktop\新建文件夹\新建文件夹 (2)\SLAVE527\SLAVE-hui\obj/../Libraries/wch_libraries/Core/core_riscv.h:139
}
    17ba:	0001                	nop
    17bc:	4472                	lw	s0,28(sp)
    17be:	6105                	addi	sp,sp,32
    17c0:	8082                	ret

000017c2 <NVIC_SetPriority>:
NVIC_SetPriority():
C:\Users\山东张\Desktop\新建文件夹\新建文件夹 (2)\SLAVE527\SLAVE-hui\obj/../Libraries/wch_libraries/Core/core_riscv.h:208
*                  priority: bit7:pre-emption priority
*                            bit6-bit4: subpriority
* Return         : None
*******************************************************************************/
RV_STATIC_INLINE void NVIC_SetPriority(IRQn_Type IRQn, uint8_t priority)
{
    17c2:	1101                	addi	sp,sp,-32
    17c4:	ce22                	sw	s0,28(sp)
    17c6:	1000                	addi	s0,sp,32
    17c8:	fea42623          	sw	a0,-20(s0)
    17cc:	87ae                	mv	a5,a1
    17ce:	fef405a3          	sb	a5,-21(s0)
C:\Users\山东张\Desktop\新建文件夹\新建文件夹 (2)\SLAVE527\SLAVE-hui\obj/../Libraries/wch_libraries/Core/core_riscv.h:209
  NVIC->IPRIOR[(uint32_t)(IRQn)] = priority;
    17d2:	e000e737          	lui	a4,0xe000e
    17d6:	fec42783          	lw	a5,-20(s0)
    17da:	97ba                	add	a5,a5,a4
    17dc:	feb44703          	lbu	a4,-21(s0)
    17e0:	40e78023          	sb	a4,1024(a5)
C:\Users\山东张\Desktop\新建文件夹\新建文件夹 (2)\SLAVE527\SLAVE-hui\obj/../Libraries/wch_libraries/Core/core_riscv.h:210
}
    17e4:	0001                	nop
    17e6:	4472                	lw	s0,28(sp)
    17e8:	6105                	addi	sp,sp,32
    17ea:	8082                	ret

000017ec <NVIC_Init>:
NVIC_Init():
C:\Users\山东张\Desktop\新建文件夹\新建文件夹 (2)\SLAVE527\SLAVE-hui\obj/../Libraries/wch_libraries/Peripheral/ch32v10x_misc.c:44
* Input          : NVIC_InitStruct: pointer to a NVIC_InitTypeDef structure that contains the
*                                   configuration information for the specified NVIC peripheral.                 
* Return         : None
*******************************************************************************************/
void NVIC_Init(NVIC_InitTypeDef* NVIC_InitStruct)
{
    17ec:	1101                	addi	sp,sp,-32
    17ee:	ce06                	sw	ra,28(sp)
    17f0:	cc22                	sw	s0,24(sp)
    17f2:	1000                	addi	s0,sp,32
    17f4:	fea42623          	sw	a0,-20(s0)
C:\Users\山东张\Desktop\新建文件夹\新建文件夹 (2)\SLAVE527\SLAVE-hui\obj/../Libraries/wch_libraries/Peripheral/ch32v10x_misc.c:47
	//uint8_t tmppre = 0;

	if((PFIC->CFGR&(1<<1)) != 0)                    //中断嵌套标志位：1为关闭
    17f8:	e000e7b7          	lui	a5,0xe000e
    17fc:	47bc                	lw	a5,72(a5)
    17fe:	8b89                	andi	a5,a5,2
    1800:	c38d                	beqz	a5,1822 <NVIC_Init+0x36>
C:\Users\山东张\Desktop\新建文件夹\新建文件夹 (2)\SLAVE527\SLAVE-hui\obj/../Libraries/wch_libraries/Peripheral/ch32v10x_misc.c:49
	{
		NVIC_SetPriority( NVIC_InitStruct->NVIC_IRQChannel, NVIC_InitStruct->NVIC_IRQChannelSubPriority<<4);
    1802:	fec42783          	lw	a5,-20(s0)
    1806:	0007c783          	lbu	a5,0(a5) # e000e000 <_eusrstack+0xc0009000>
    180a:	873e                	mv	a4,a5
    180c:	fec42783          	lw	a5,-20(s0)
    1810:	0027c783          	lbu	a5,2(a5)
    1814:	0792                	slli	a5,a5,0x4
    1816:	0ff7f793          	andi	a5,a5,255
    181a:	85be                	mv	a1,a5
    181c:	853a                	mv	a0,a4
    181e:	3755                	jal	17c2 <NVIC_SetPriority>
    1820:	a095                	j	1884 <NVIC_Init+0x98>
C:\Users\山东张\Desktop\新建文件夹\新建文件夹 (2)\SLAVE527\SLAVE-hui\obj/../Libraries/wch_libraries/Peripheral/ch32v10x_misc.c:51
	}
	else if((PFIC->CFGR&(1<<1)) == 0)               //中断嵌套标志位：0为打开
    1822:	e000e7b7          	lui	a5,0xe000e
    1826:	47bc                	lw	a5,72(a5)
    1828:	8b89                	andi	a5,a5,2
    182a:	efa9                	bnez	a5,1884 <NVIC_Init+0x98>
C:\Users\山东张\Desktop\新建文件夹\新建文件夹 (2)\SLAVE527\SLAVE-hui\obj/../Libraries/wch_libraries/Peripheral/ch32v10x_misc.c:53
	{
        if(NVIC_InitStruct->NVIC_IRQChannelPreemptionPriority == 1)
    182c:	fec42783          	lw	a5,-20(s0)
    1830:	0017c703          	lbu	a4,1(a5) # e000e001 <_eusrstack+0xc0009001>
    1834:	4785                	li	a5,1
    1836:	02f71863          	bne	a4,a5,1866 <NVIC_Init+0x7a>
C:\Users\山东张\Desktop\新建文件夹\新建文件夹 (2)\SLAVE527\SLAVE-hui\obj/../Libraries/wch_libraries/Peripheral/ch32v10x_misc.c:55
        {
            NVIC_SetPriority( NVIC_InitStruct->NVIC_IRQChannel, (1<<7)|(NVIC_InitStruct->NVIC_IRQChannelSubPriority<<4));
    183a:	fec42783          	lw	a5,-20(s0)
    183e:	0007c783          	lbu	a5,0(a5)
    1842:	873e                	mv	a4,a5
    1844:	fec42783          	lw	a5,-20(s0)
    1848:	0027c783          	lbu	a5,2(a5)
    184c:	0792                	slli	a5,a5,0x4
    184e:	07e2                	slli	a5,a5,0x18
    1850:	87e1                	srai	a5,a5,0x18
    1852:	f807e793          	ori	a5,a5,-128
    1856:	07e2                	slli	a5,a5,0x18
    1858:	87e1                	srai	a5,a5,0x18
    185a:	0ff7f793          	andi	a5,a5,255
    185e:	85be                	mv	a1,a5
    1860:	853a                	mv	a0,a4
    1862:	3785                	jal	17c2 <NVIC_SetPriority>
    1864:	a005                	j	1884 <NVIC_Init+0x98>
C:\Users\山东张\Desktop\新建文件夹\新建文件夹 (2)\SLAVE527\SLAVE-hui\obj/../Libraries/wch_libraries/Peripheral/ch32v10x_misc.c:59
        }
        else
        {
            NVIC_SetPriority( NVIC_InitStruct->NVIC_IRQChannel, (0<<7)|(NVIC_InitStruct->NVIC_IRQChannelSubPriority<<4));
    1866:	fec42783          	lw	a5,-20(s0)
    186a:	0007c783          	lbu	a5,0(a5)
    186e:	873e                	mv	a4,a5
    1870:	fec42783          	lw	a5,-20(s0)
    1874:	0027c783          	lbu	a5,2(a5)
    1878:	0792                	slli	a5,a5,0x4
    187a:	0ff7f793          	andi	a5,a5,255
    187e:	85be                	mv	a1,a5
    1880:	853a                	mv	a0,a4
    1882:	3781                	jal	17c2 <NVIC_SetPriority>
C:\Users\山东张\Desktop\新建文件夹\新建文件夹 (2)\SLAVE527\SLAVE-hui\obj/../Libraries/wch_libraries/Peripheral/ch32v10x_misc.c:93
//	else if(NVIC_Priority_Group == NVIC_PriorityGroup_4)
//	{
//		NVIC_SetPriority( NVIC_InitStruct->NVIC_IRQChannel, NVIC_InitStruct->NVIC_IRQChannelPreemptionPriority<<4);
//	}

  if (NVIC_InitStruct->NVIC_IRQChannelCmd != DISABLE)
    1884:	fec42783          	lw	a5,-20(s0)
    1888:	43dc                	lw	a5,4(a5)
    188a:	cb81                	beqz	a5,189a <NVIC_Init+0xae>
C:\Users\山东张\Desktop\新建文件夹\新建文件夹 (2)\SLAVE527\SLAVE-hui\obj/../Libraries/wch_libraries/Peripheral/ch32v10x_misc.c:95
  {
  	NVIC_EnableIRQ(NVIC_InitStruct->NVIC_IRQChannel);
    188c:	fec42783          	lw	a5,-20(s0)
    1890:	0007c783          	lbu	a5,0(a5)
    1894:	853e                	mv	a0,a5
    1896:	35e1                	jal	175e <NVIC_EnableIRQ>
C:\Users\山东张\Desktop\新建文件夹\新建文件夹 (2)\SLAVE527\SLAVE-hui\obj/../Libraries/wch_libraries/Peripheral/ch32v10x_misc.c:101
  }
  else
  {
  	NVIC_DisableIRQ(NVIC_InitStruct->NVIC_IRQChannel);
  }
}
    1898:	a039                	j	18a6 <NVIC_Init+0xba>
C:\Users\山东张\Desktop\新建文件夹\新建文件夹 (2)\SLAVE527\SLAVE-hui\obj/../Libraries/wch_libraries/Peripheral/ch32v10x_misc.c:99
  	NVIC_DisableIRQ(NVIC_InitStruct->NVIC_IRQChannel);
    189a:	fec42783          	lw	a5,-20(s0)
    189e:	0007c783          	lbu	a5,0(a5)
    18a2:	853e                	mv	a0,a5
    18a4:	35f5                	jal	1790 <NVIC_DisableIRQ>
C:\Users\山东张\Desktop\新建文件夹\新建文件夹 (2)\SLAVE527\SLAVE-hui\obj/../Libraries/wch_libraries/Peripheral/ch32v10x_misc.c:101
}
    18a6:	0001                	nop
    18a8:	40f2                	lw	ra,28(sp)
    18aa:	4462                	lw	s0,24(sp)
    18ac:	6105                	addi	sp,sp,32
    18ae:	8082                	ret

000018b0 <RCC_GetClocksFreq>:
RCC_GetClocksFreq():
C:\Users\山东张\Desktop\新建文件夹\新建文件夹 (2)\SLAVE527\SLAVE-hui\obj/../Libraries/wch_libraries/Peripheral/ch32v10x_rcc.c:469
* Input          : The result of this function could be not correct when using
*      fractional value for HSE crystal.
* Return         : None
********************************************************************************/
void RCC_GetClocksFreq(RCC_ClocksTypeDef* RCC_Clocks)
{
    18b0:	7179                	addi	sp,sp,-48
    18b2:	d622                	sw	s0,44(sp)
    18b4:	1800                	addi	s0,sp,48
    18b6:	fca42e23          	sw	a0,-36(s0)
C:\Users\山东张\Desktop\新建文件夹\新建文件夹 (2)\SLAVE527\SLAVE-hui\obj/../Libraries/wch_libraries/Peripheral/ch32v10x_rcc.c:470
  uint32_t tmp = 0, pllmull = 0, pllsource = 0, presc = 0;
    18ba:	fe042623          	sw	zero,-20(s0)
    18be:	fe042423          	sw	zero,-24(s0)
    18c2:	fe042223          	sw	zero,-28(s0)
    18c6:	fe042023          	sw	zero,-32(s0)
C:\Users\山东张\Desktop\新建文件夹\新建文件夹 (2)\SLAVE527\SLAVE-hui\obj/../Libraries/wch_libraries/Peripheral/ch32v10x_rcc.c:472
  
  tmp = RCC->CFGR0 & CFGR0_SWS_Mask;
    18ca:	400217b7          	lui	a5,0x40021
    18ce:	43dc                	lw	a5,4(a5)
    18d0:	8bb1                	andi	a5,a5,12
    18d2:	fef42623          	sw	a5,-20(s0)
    18d6:	fec42703          	lw	a4,-20(s0)
    18da:	4791                	li	a5,4
    18dc:	02f70263          	beq	a4,a5,1900 <RCC_GetClocksFreq+0x50>
    18e0:	fec42703          	lw	a4,-20(s0)
    18e4:	47a1                	li	a5,8
    18e6:	02f70563          	beq	a4,a5,1910 <RCC_GetClocksFreq+0x60>
    18ea:	fec42783          	lw	a5,-20(s0)
    18ee:	e7c5                	bnez	a5,1996 <RCC_GetClocksFreq+0xe6>
C:\Users\山东张\Desktop\新建文件夹\新建文件夹 (2)\SLAVE527\SLAVE-hui\obj/../Libraries/wch_libraries/Peripheral/ch32v10x_rcc.c:477
  
  switch (tmp)
  {
    case 0x00: 
      RCC_Clocks->SYSCLK_Frequency = HSI_VALUE;
    18f0:	fdc42783          	lw	a5,-36(s0)
    18f4:	007a1737          	lui	a4,0x7a1
    18f8:	20070713          	addi	a4,a4,512 # 7a1200 <_data_lma+0x79bb14>
    18fc:	c398                	sw	a4,0(a5)
C:\Users\山东张\Desktop\新建文件夹\新建文件夹 (2)\SLAVE527\SLAVE-hui\obj/../Libraries/wch_libraries/Peripheral/ch32v10x_rcc.c:478
      break;
    18fe:	a065                	j	19a6 <RCC_GetClocksFreq+0xf6>
C:\Users\山东张\Desktop\新建文件夹\新建文件夹 (2)\SLAVE527\SLAVE-hui\obj/../Libraries/wch_libraries/Peripheral/ch32v10x_rcc.c:481
		
    case 0x04:
      RCC_Clocks->SYSCLK_Frequency = HSE_VALUE;
    1900:	fdc42783          	lw	a5,-36(s0)
    1904:	007a1737          	lui	a4,0x7a1
    1908:	20070713          	addi	a4,a4,512 # 7a1200 <_data_lma+0x79bb14>
    190c:	c398                	sw	a4,0(a5)
C:\Users\山东张\Desktop\新建文件夹\新建文件夹 (2)\SLAVE527\SLAVE-hui\obj/../Libraries/wch_libraries/Peripheral/ch32v10x_rcc.c:482
      break;
    190e:	a861                	j	19a6 <RCC_GetClocksFreq+0xf6>
C:\Users\山东张\Desktop\新建文件夹\新建文件夹 (2)\SLAVE527\SLAVE-hui\obj/../Libraries/wch_libraries/Peripheral/ch32v10x_rcc.c:485
		
    case 0x08:
      pllmull = RCC->CFGR0 & CFGR0_PLLMull_Mask;
    1910:	400217b7          	lui	a5,0x40021
    1914:	43d8                	lw	a4,4(a5)
    1916:	003c07b7          	lui	a5,0x3c0
    191a:	8ff9                	and	a5,a5,a4
    191c:	fef42423          	sw	a5,-24(s0)
C:\Users\山东张\Desktop\新建文件夹\新建文件夹 (2)\SLAVE527\SLAVE-hui\obj/../Libraries/wch_libraries/Peripheral/ch32v10x_rcc.c:486
      pllsource = RCC->CFGR0 & CFGR0_PLLSRC_Mask;    
    1920:	400217b7          	lui	a5,0x40021
    1924:	43d8                	lw	a4,4(a5)
    1926:	67c1                	lui	a5,0x10
    1928:	8ff9                	and	a5,a5,a4
    192a:	fef42223          	sw	a5,-28(s0)
C:\Users\山东张\Desktop\新建文件夹\新建文件夹 (2)\SLAVE527\SLAVE-hui\obj/../Libraries/wch_libraries/Peripheral/ch32v10x_rcc.c:487
      pllmull = ( pllmull >> 18) + 2;
    192e:	fe842783          	lw	a5,-24(s0)
    1932:	83c9                	srli	a5,a5,0x12
    1934:	0789                	addi	a5,a5,2
    1936:	fef42423          	sw	a5,-24(s0)
C:\Users\山东张\Desktop\新建文件夹\新建文件夹 (2)\SLAVE527\SLAVE-hui\obj/../Libraries/wch_libraries/Peripheral/ch32v10x_rcc.c:489
      
      if (pllsource == 0x00)
    193a:	fe442783          	lw	a5,-28(s0)
    193e:	ef89                	bnez	a5,1958 <RCC_GetClocksFreq+0xa8>
C:\Users\山东张\Desktop\新建文件夹\新建文件夹 (2)\SLAVE527\SLAVE-hui\obj/../Libraries/wch_libraries/Peripheral/ch32v10x_rcc.c:491
      {
        RCC_Clocks->SYSCLK_Frequency = (HSI_VALUE >> 1) * pllmull;
    1940:	fe842703          	lw	a4,-24(s0)
    1944:	003d17b7          	lui	a5,0x3d1
    1948:	90078793          	addi	a5,a5,-1792 # 3d0900 <_data_lma+0x3cb214>
    194c:	02f70733          	mul	a4,a4,a5
    1950:	fdc42783          	lw	a5,-36(s0)
    1954:	c398                	sw	a4,0(a5)
C:\Users\山东张\Desktop\新建文件夹\新建文件夹 (2)\SLAVE527\SLAVE-hui\obj/../Libraries/wch_libraries/Peripheral/ch32v10x_rcc.c:504
        else
        {
          RCC_Clocks->SYSCLK_Frequency = HSE_VALUE * pllmull;
        }
      } 
      break;
    1956:	a881                	j	19a6 <RCC_GetClocksFreq+0xf6>
C:\Users\山东张\Desktop\新建文件夹\新建文件夹 (2)\SLAVE527\SLAVE-hui\obj/../Libraries/wch_libraries/Peripheral/ch32v10x_rcc.c:495
        if ((RCC->CFGR0 & CFGR0_PLLXTPRE_Mask) != (uint32_t)RESET)
    1958:	400217b7          	lui	a5,0x40021
    195c:	43d8                	lw	a4,4(a5)
    195e:	000207b7          	lui	a5,0x20
    1962:	8ff9                	and	a5,a5,a4
    1964:	cf89                	beqz	a5,197e <RCC_GetClocksFreq+0xce>
C:\Users\山东张\Desktop\新建文件夹\新建文件夹 (2)\SLAVE527\SLAVE-hui\obj/../Libraries/wch_libraries/Peripheral/ch32v10x_rcc.c:497
          RCC_Clocks->SYSCLK_Frequency = (HSE_VALUE >> 1) * pllmull;
    1966:	fe842703          	lw	a4,-24(s0)
    196a:	003d17b7          	lui	a5,0x3d1
    196e:	90078793          	addi	a5,a5,-1792 # 3d0900 <_data_lma+0x3cb214>
    1972:	02f70733          	mul	a4,a4,a5
    1976:	fdc42783          	lw	a5,-36(s0)
    197a:	c398                	sw	a4,0(a5)
C:\Users\山东张\Desktop\新建文件夹\新建文件夹 (2)\SLAVE527\SLAVE-hui\obj/../Libraries/wch_libraries/Peripheral/ch32v10x_rcc.c:504
      break;
    197c:	a02d                	j	19a6 <RCC_GetClocksFreq+0xf6>
C:\Users\山东张\Desktop\新建文件夹\新建文件夹 (2)\SLAVE527\SLAVE-hui\obj/../Libraries/wch_libraries/Peripheral/ch32v10x_rcc.c:501
          RCC_Clocks->SYSCLK_Frequency = HSE_VALUE * pllmull;
    197e:	fe842703          	lw	a4,-24(s0)
    1982:	007a17b7          	lui	a5,0x7a1
    1986:	20078793          	addi	a5,a5,512 # 7a1200 <_data_lma+0x79bb14>
    198a:	02f70733          	mul	a4,a4,a5
    198e:	fdc42783          	lw	a5,-36(s0)
    1992:	c398                	sw	a4,0(a5)
C:\Users\山东张\Desktop\新建文件夹\新建文件夹 (2)\SLAVE527\SLAVE-hui\obj/../Libraries/wch_libraries/Peripheral/ch32v10x_rcc.c:504
      break;
    1994:	a809                	j	19a6 <RCC_GetClocksFreq+0xf6>
C:\Users\山东张\Desktop\新建文件夹\新建文件夹 (2)\SLAVE527\SLAVE-hui\obj/../Libraries/wch_libraries/Peripheral/ch32v10x_rcc.c:507

    default:
      RCC_Clocks->SYSCLK_Frequency = HSI_VALUE;
    1996:	fdc42783          	lw	a5,-36(s0)
    199a:	007a1737          	lui	a4,0x7a1
    199e:	20070713          	addi	a4,a4,512 # 7a1200 <_data_lma+0x79bb14>
    19a2:	c398                	sw	a4,0(a5)
C:\Users\山东张\Desktop\新建文件夹\新建文件夹 (2)\SLAVE527\SLAVE-hui\obj/../Libraries/wch_libraries/Peripheral/ch32v10x_rcc.c:508
      break;
    19a4:	0001                	nop
C:\Users\山东张\Desktop\新建文件夹\新建文件夹 (2)\SLAVE527\SLAVE-hui\obj/../Libraries/wch_libraries/Peripheral/ch32v10x_rcc.c:511
  }

  tmp = RCC->CFGR0 & CFGR0_HPRE_Set_Mask;
    19a6:	400217b7          	lui	a5,0x40021
    19aa:	43dc                	lw	a5,4(a5)
    19ac:	0f07f793          	andi	a5,a5,240
    19b0:	fef42623          	sw	a5,-20(s0)
C:\Users\山东张\Desktop\新建文件夹\新建文件夹 (2)\SLAVE527\SLAVE-hui\obj/../Libraries/wch_libraries/Peripheral/ch32v10x_rcc.c:512
  tmp = tmp >> 4;
    19b4:	fec42783          	lw	a5,-20(s0)
    19b8:	8391                	srli	a5,a5,0x4
    19ba:	fef42623          	sw	a5,-20(s0)
C:\Users\山东张\Desktop\新建文件夹\新建文件夹 (2)\SLAVE527\SLAVE-hui\obj/../Libraries/wch_libraries/Peripheral/ch32v10x_rcc.c:513
  presc = APBAHBPrescTable[tmp];
    19be:	200007b7          	lui	a5,0x20000
    19c2:	00078713          	mv	a4,a5
    19c6:	fec42783          	lw	a5,-20(s0)
    19ca:	97ba                	add	a5,a5,a4
    19cc:	0007c783          	lbu	a5,0(a5) # 20000000 <_data_vma>
    19d0:	0ff7f793          	andi	a5,a5,255
    19d4:	fef42023          	sw	a5,-32(s0)
C:\Users\山东张\Desktop\新建文件夹\新建文件夹 (2)\SLAVE527\SLAVE-hui\obj/../Libraries/wch_libraries/Peripheral/ch32v10x_rcc.c:514
  RCC_Clocks->HCLK_Frequency = RCC_Clocks->SYSCLK_Frequency >> presc;
    19d8:	fdc42783          	lw	a5,-36(s0)
    19dc:	4398                	lw	a4,0(a5)
    19de:	fe042783          	lw	a5,-32(s0)
    19e2:	00f75733          	srl	a4,a4,a5
    19e6:	fdc42783          	lw	a5,-36(s0)
    19ea:	c3d8                	sw	a4,4(a5)
C:\Users\山东张\Desktop\新建文件夹\新建文件夹 (2)\SLAVE527\SLAVE-hui\obj/../Libraries/wch_libraries/Peripheral/ch32v10x_rcc.c:515
  tmp = RCC->CFGR0 & CFGR0_PPRE1_Set_Mask;
    19ec:	400217b7          	lui	a5,0x40021
    19f0:	43dc                	lw	a5,4(a5)
    19f2:	7007f793          	andi	a5,a5,1792
    19f6:	fef42623          	sw	a5,-20(s0)
C:\Users\山东张\Desktop\新建文件夹\新建文件夹 (2)\SLAVE527\SLAVE-hui\obj/../Libraries/wch_libraries/Peripheral/ch32v10x_rcc.c:516
  tmp = tmp >> 8;
    19fa:	fec42783          	lw	a5,-20(s0)
    19fe:	83a1                	srli	a5,a5,0x8
    1a00:	fef42623          	sw	a5,-20(s0)
C:\Users\山东张\Desktop\新建文件夹\新建文件夹 (2)\SLAVE527\SLAVE-hui\obj/../Libraries/wch_libraries/Peripheral/ch32v10x_rcc.c:517
  presc = APBAHBPrescTable[tmp];
    1a04:	200007b7          	lui	a5,0x20000
    1a08:	00078713          	mv	a4,a5
    1a0c:	fec42783          	lw	a5,-20(s0)
    1a10:	97ba                	add	a5,a5,a4
    1a12:	0007c783          	lbu	a5,0(a5) # 20000000 <_data_vma>
    1a16:	0ff7f793          	andi	a5,a5,255
    1a1a:	fef42023          	sw	a5,-32(s0)
C:\Users\山东张\Desktop\新建文件夹\新建文件夹 (2)\SLAVE527\SLAVE-hui\obj/../Libraries/wch_libraries/Peripheral/ch32v10x_rcc.c:518
  RCC_Clocks->PCLK1_Frequency = RCC_Clocks->HCLK_Frequency >> presc;
    1a1e:	fdc42783          	lw	a5,-36(s0)
    1a22:	43d8                	lw	a4,4(a5)
    1a24:	fe042783          	lw	a5,-32(s0)
    1a28:	00f75733          	srl	a4,a4,a5
    1a2c:	fdc42783          	lw	a5,-36(s0)
    1a30:	c798                	sw	a4,8(a5)
C:\Users\山东张\Desktop\新建文件夹\新建文件夹 (2)\SLAVE527\SLAVE-hui\obj/../Libraries/wch_libraries/Peripheral/ch32v10x_rcc.c:519
  tmp = RCC->CFGR0 & CFGR0_PPRE2_Set_Mask;
    1a32:	400217b7          	lui	a5,0x40021
    1a36:	43d8                	lw	a4,4(a5)
    1a38:	6791                	lui	a5,0x4
    1a3a:	80078793          	addi	a5,a5,-2048 # 3800 <uart_gpio_init+0x86>
    1a3e:	8ff9                	and	a5,a5,a4
    1a40:	fef42623          	sw	a5,-20(s0)
C:\Users\山东张\Desktop\新建文件夹\新建文件夹 (2)\SLAVE527\SLAVE-hui\obj/../Libraries/wch_libraries/Peripheral/ch32v10x_rcc.c:520
  tmp = tmp >> 11;
    1a44:	fec42783          	lw	a5,-20(s0)
    1a48:	83ad                	srli	a5,a5,0xb
    1a4a:	fef42623          	sw	a5,-20(s0)
C:\Users\山东张\Desktop\新建文件夹\新建文件夹 (2)\SLAVE527\SLAVE-hui\obj/../Libraries/wch_libraries/Peripheral/ch32v10x_rcc.c:521
  presc = APBAHBPrescTable[tmp];
    1a4e:	200007b7          	lui	a5,0x20000
    1a52:	00078713          	mv	a4,a5
    1a56:	fec42783          	lw	a5,-20(s0)
    1a5a:	97ba                	add	a5,a5,a4
    1a5c:	0007c783          	lbu	a5,0(a5) # 20000000 <_data_vma>
    1a60:	0ff7f793          	andi	a5,a5,255
    1a64:	fef42023          	sw	a5,-32(s0)
C:\Users\山东张\Desktop\新建文件夹\新建文件夹 (2)\SLAVE527\SLAVE-hui\obj/../Libraries/wch_libraries/Peripheral/ch32v10x_rcc.c:522
  RCC_Clocks->PCLK2_Frequency = RCC_Clocks->HCLK_Frequency >> presc;
    1a68:	fdc42783          	lw	a5,-36(s0)
    1a6c:	43d8                	lw	a4,4(a5)
    1a6e:	fe042783          	lw	a5,-32(s0)
    1a72:	00f75733          	srl	a4,a4,a5
    1a76:	fdc42783          	lw	a5,-36(s0)
    1a7a:	c7d8                	sw	a4,12(a5)
C:\Users\山东张\Desktop\新建文件夹\新建文件夹 (2)\SLAVE527\SLAVE-hui\obj/../Libraries/wch_libraries/Peripheral/ch32v10x_rcc.c:523
  tmp = RCC->CFGR0 & CFGR0_ADCPRE_Set_Mask;
    1a7c:	400217b7          	lui	a5,0x40021
    1a80:	43d8                	lw	a4,4(a5)
    1a82:	67b1                	lui	a5,0xc
    1a84:	8ff9                	and	a5,a5,a4
    1a86:	fef42623          	sw	a5,-20(s0)
C:\Users\山东张\Desktop\新建文件夹\新建文件夹 (2)\SLAVE527\SLAVE-hui\obj/../Libraries/wch_libraries/Peripheral/ch32v10x_rcc.c:524
  tmp = tmp >> 14;
    1a8a:	fec42783          	lw	a5,-20(s0)
    1a8e:	83b9                	srli	a5,a5,0xe
    1a90:	fef42623          	sw	a5,-20(s0)
C:\Users\山东张\Desktop\新建文件夹\新建文件夹 (2)\SLAVE527\SLAVE-hui\obj/../Libraries/wch_libraries/Peripheral/ch32v10x_rcc.c:525
  presc = ADCPrescTable[tmp];
    1a94:	200007b7          	lui	a5,0x20000
    1a98:	0bc78713          	addi	a4,a5,188 # 200000bc <ADCPrescTable>
    1a9c:	fec42783          	lw	a5,-20(s0)
    1aa0:	97ba                	add	a5,a5,a4
    1aa2:	0007c783          	lbu	a5,0(a5)
    1aa6:	0ff7f793          	andi	a5,a5,255
    1aaa:	fef42023          	sw	a5,-32(s0)
C:\Users\山东张\Desktop\新建文件夹\新建文件夹 (2)\SLAVE527\SLAVE-hui\obj/../Libraries/wch_libraries/Peripheral/ch32v10x_rcc.c:526
  RCC_Clocks->ADCCLK_Frequency = RCC_Clocks->PCLK2_Frequency / presc;
    1aae:	fdc42783          	lw	a5,-36(s0)
    1ab2:	47d8                	lw	a4,12(a5)
    1ab4:	fe042783          	lw	a5,-32(s0)
    1ab8:	02f75733          	divu	a4,a4,a5
    1abc:	fdc42783          	lw	a5,-36(s0)
    1ac0:	cb98                	sw	a4,16(a5)
C:\Users\山东张\Desktop\新建文件夹\新建文件夹 (2)\SLAVE527\SLAVE-hui\obj/../Libraries/wch_libraries/Peripheral/ch32v10x_rcc.c:527
}
    1ac2:	0001                	nop
    1ac4:	5432                	lw	s0,44(sp)
    1ac6:	6145                	addi	sp,sp,48
    1ac8:	8082                	ret

00001aca <RCC_AHBPeriphClockCmd>:
RCC_AHBPeriphClockCmd():
C:\Users\山东张\Desktop\新建文件夹\新建文件夹 (2)\SLAVE527\SLAVE-hui\obj/../Libraries/wch_libraries/Peripheral/ch32v10x_rcc.c:542
*                    RCC_AHBPeriph_CRC.                  
*                  NewState: ENABLE or DISABLE.
* Return         : None
*******************************************************************************/	
void RCC_AHBPeriphClockCmd(uint32_t RCC_AHBPeriph, FunctionalState NewState)
{
    1aca:	1101                	addi	sp,sp,-32
    1acc:	ce22                	sw	s0,28(sp)
    1ace:	1000                	addi	s0,sp,32
    1ad0:	fea42623          	sw	a0,-20(s0)
    1ad4:	feb42423          	sw	a1,-24(s0)
C:\Users\山东张\Desktop\新建文件夹\新建文件夹 (2)\SLAVE527\SLAVE-hui\obj/../Libraries/wch_libraries/Peripheral/ch32v10x_rcc.c:543
  if (NewState != DISABLE)
    1ad8:	fe842783          	lw	a5,-24(s0)
    1adc:	cb99                	beqz	a5,1af2 <RCC_AHBPeriphClockCmd+0x28>
C:\Users\山东张\Desktop\新建文件夹\新建文件夹 (2)\SLAVE527\SLAVE-hui\obj/../Libraries/wch_libraries/Peripheral/ch32v10x_rcc.c:545
  {
    RCC->AHBPCENR |= RCC_AHBPeriph;
    1ade:	400217b7          	lui	a5,0x40021
    1ae2:	4bd4                	lw	a3,20(a5)
    1ae4:	400217b7          	lui	a5,0x40021
    1ae8:	fec42703          	lw	a4,-20(s0)
    1aec:	8f55                	or	a4,a4,a3
    1aee:	cbd8                	sw	a4,20(a5)
C:\Users\山东张\Desktop\新建文件夹\新建文件夹 (2)\SLAVE527\SLAVE-hui\obj/../Libraries/wch_libraries/Peripheral/ch32v10x_rcc.c:551
  }
  else
  {
    RCC->AHBPCENR &= ~RCC_AHBPeriph;
  }
}
    1af0:	a821                	j	1b08 <RCC_AHBPeriphClockCmd+0x3e>
C:\Users\山东张\Desktop\新建文件夹\新建文件夹 (2)\SLAVE527\SLAVE-hui\obj/../Libraries/wch_libraries/Peripheral/ch32v10x_rcc.c:549
    RCC->AHBPCENR &= ~RCC_AHBPeriph;
    1af2:	400217b7          	lui	a5,0x40021
    1af6:	4bd4                	lw	a3,20(a5)
    1af8:	fec42783          	lw	a5,-20(s0)
    1afc:	fff7c713          	not	a4,a5
    1b00:	400217b7          	lui	a5,0x40021
    1b04:	8f75                	and	a4,a4,a3
    1b06:	cbd8                	sw	a4,20(a5)
C:\Users\山东张\Desktop\新建文件夹\新建文件夹 (2)\SLAVE527\SLAVE-hui\obj/../Libraries/wch_libraries/Peripheral/ch32v10x_rcc.c:551
}
    1b08:	0001                	nop
    1b0a:	4472                	lw	s0,28(sp)
    1b0c:	6105                	addi	sp,sp,32
    1b0e:	8082                	ret

00001b10 <RCC_APB2PeriphClockCmd>:
RCC_APB2PeriphClockCmd():
C:\Users\山东张\Desktop\新建文件夹\新建文件夹 (2)\SLAVE527\SLAVE-hui\obj/../Libraries/wch_libraries/Peripheral/ch32v10x_rcc.c:570
*                    RCC_APB2Periph_USART1.
*                  NewState: ENABLE or DISABLE
* Return         : None
*******************************************************************************/	
void RCC_APB2PeriphClockCmd(uint32_t RCC_APB2Periph, FunctionalState NewState)
{
    1b10:	1101                	addi	sp,sp,-32
    1b12:	ce22                	sw	s0,28(sp)
    1b14:	1000                	addi	s0,sp,32
    1b16:	fea42623          	sw	a0,-20(s0)
    1b1a:	feb42423          	sw	a1,-24(s0)
C:\Users\山东张\Desktop\新建文件夹\新建文件夹 (2)\SLAVE527\SLAVE-hui\obj/../Libraries/wch_libraries/Peripheral/ch32v10x_rcc.c:571
  if (NewState != DISABLE)
    1b1e:	fe842783          	lw	a5,-24(s0)
    1b22:	cb99                	beqz	a5,1b38 <RCC_APB2PeriphClockCmd+0x28>
C:\Users\山东张\Desktop\新建文件夹\新建文件夹 (2)\SLAVE527\SLAVE-hui\obj/../Libraries/wch_libraries/Peripheral/ch32v10x_rcc.c:573
  {
    RCC->APB2PCENR |= RCC_APB2Periph;
    1b24:	400217b7          	lui	a5,0x40021
    1b28:	4f94                	lw	a3,24(a5)
    1b2a:	400217b7          	lui	a5,0x40021
    1b2e:	fec42703          	lw	a4,-20(s0)
    1b32:	8f55                	or	a4,a4,a3
    1b34:	cf98                	sw	a4,24(a5)
C:\Users\山东张\Desktop\新建文件夹\新建文件夹 (2)\SLAVE527\SLAVE-hui\obj/../Libraries/wch_libraries/Peripheral/ch32v10x_rcc.c:579
  }
  else
  {
    RCC->APB2PCENR &= ~RCC_APB2Periph;
  }
}
    1b36:	a821                	j	1b4e <RCC_APB2PeriphClockCmd+0x3e>
C:\Users\山东张\Desktop\新建文件夹\新建文件夹 (2)\SLAVE527\SLAVE-hui\obj/../Libraries/wch_libraries/Peripheral/ch32v10x_rcc.c:577
    RCC->APB2PCENR &= ~RCC_APB2Periph;
    1b38:	400217b7          	lui	a5,0x40021
    1b3c:	4f94                	lw	a3,24(a5)
    1b3e:	fec42783          	lw	a5,-20(s0)
    1b42:	fff7c713          	not	a4,a5
    1b46:	400217b7          	lui	a5,0x40021
    1b4a:	8f75                	and	a4,a4,a3
    1b4c:	cf98                	sw	a4,24(a5)
C:\Users\山东张\Desktop\新建文件夹\新建文件夹 (2)\SLAVE527\SLAVE-hui\obj/../Libraries/wch_libraries/Peripheral/ch32v10x_rcc.c:579
}
    1b4e:	0001                	nop
    1b50:	4472                	lw	s0,28(sp)
    1b52:	6105                	addi	sp,sp,32
    1b54:	8082                	ret

00001b56 <RCC_APB1PeriphClockCmd>:
RCC_APB1PeriphClockCmd():
C:\Users\山东张\Desktop\新建文件夹\新建文件夹 (2)\SLAVE527\SLAVE-hui\obj/../Libraries/wch_libraries/Peripheral/ch32v10x_rcc.c:603
*                    RCC_APB1Periph_DAC.                
*                  NewState: ENABLE or DISABLE.
* Return         : None
*******************************************************************************/	
void RCC_APB1PeriphClockCmd(uint32_t RCC_APB1Periph, FunctionalState NewState)
{
    1b56:	1101                	addi	sp,sp,-32
    1b58:	ce22                	sw	s0,28(sp)
    1b5a:	1000                	addi	s0,sp,32
    1b5c:	fea42623          	sw	a0,-20(s0)
    1b60:	feb42423          	sw	a1,-24(s0)
C:\Users\山东张\Desktop\新建文件夹\新建文件夹 (2)\SLAVE527\SLAVE-hui\obj/../Libraries/wch_libraries/Peripheral/ch32v10x_rcc.c:604
  if (NewState != DISABLE)
    1b64:	fe842783          	lw	a5,-24(s0)
    1b68:	cb99                	beqz	a5,1b7e <RCC_APB1PeriphClockCmd+0x28>
C:\Users\山东张\Desktop\新建文件夹\新建文件夹 (2)\SLAVE527\SLAVE-hui\obj/../Libraries/wch_libraries/Peripheral/ch32v10x_rcc.c:606
  {
    RCC->APB1PCENR |= RCC_APB1Periph;
    1b6a:	400217b7          	lui	a5,0x40021
    1b6e:	4fd4                	lw	a3,28(a5)
    1b70:	400217b7          	lui	a5,0x40021
    1b74:	fec42703          	lw	a4,-20(s0)
    1b78:	8f55                	or	a4,a4,a3
    1b7a:	cfd8                	sw	a4,28(a5)
C:\Users\山东张\Desktop\新建文件夹\新建文件夹 (2)\SLAVE527\SLAVE-hui\obj/../Libraries/wch_libraries/Peripheral/ch32v10x_rcc.c:612
  }
  else
  {
    RCC->APB1PCENR &= ~RCC_APB1Periph;
  }
}
    1b7c:	a821                	j	1b94 <RCC_APB1PeriphClockCmd+0x3e>
C:\Users\山东张\Desktop\新建文件夹\新建文件夹 (2)\SLAVE527\SLAVE-hui\obj/../Libraries/wch_libraries/Peripheral/ch32v10x_rcc.c:610
    RCC->APB1PCENR &= ~RCC_APB1Periph;
    1b7e:	400217b7          	lui	a5,0x40021
    1b82:	4fd4                	lw	a3,28(a5)
    1b84:	fec42783          	lw	a5,-20(s0)
    1b88:	fff7c713          	not	a4,a5
    1b8c:	400217b7          	lui	a5,0x40021
    1b90:	8f75                	and	a4,a4,a3
    1b92:	cfd8                	sw	a4,28(a5)
C:\Users\山东张\Desktop\新建文件夹\新建文件夹 (2)\SLAVE527\SLAVE-hui\obj/../Libraries/wch_libraries/Peripheral/ch32v10x_rcc.c:612
}
    1b94:	0001                	nop
    1b96:	4472                	lw	s0,28(sp)
    1b98:	6105                	addi	sp,sp,32
    1b9a:	8082                	ret

00001b9c <TIM_TimeBaseInit>:
TIM_TimeBaseInit():
C:\Users\山东张\Desktop\新建文件夹\新建文件夹 (2)\SLAVE527\SLAVE-hui\obj/../Libraries/wch_libraries/Peripheral/ch32v10x_tim.c:67
*                  TIM_TimeBaseInitStruct: pointer to a TIM_TimeBaseInitTypeDef
*      structure.
* Return         : None
*******************************************************************************/
void TIM_TimeBaseInit(TIM_TypeDef* TIMx, TIM_TimeBaseInitTypeDef* TIM_TimeBaseInitStruct)
{
    1b9c:	7179                	addi	sp,sp,-48
    1b9e:	d622                	sw	s0,44(sp)
    1ba0:	1800                	addi	s0,sp,48
    1ba2:	fca42e23          	sw	a0,-36(s0)
    1ba6:	fcb42c23          	sw	a1,-40(s0)
C:\Users\山东张\Desktop\新建文件夹\新建文件夹 (2)\SLAVE527\SLAVE-hui\obj/../Libraries/wch_libraries/Peripheral/ch32v10x_tim.c:68
  uint16_t tmpcr1 = 0;
    1baa:	fe041723          	sh	zero,-18(s0)
C:\Users\山东张\Desktop\新建文件夹\新建文件夹 (2)\SLAVE527\SLAVE-hui\obj/../Libraries/wch_libraries/Peripheral/ch32v10x_tim.c:70

  tmpcr1 = TIMx->CTLR1;  
    1bae:	fdc42783          	lw	a5,-36(s0)
    1bb2:	0007d783          	lhu	a5,0(a5) # 40021000 <_eusrstack+0x2001c000>
    1bb6:	fef41723          	sh	a5,-18(s0)
C:\Users\山东张\Desktop\新建文件夹\新建文件夹 (2)\SLAVE527\SLAVE-hui\obj/../Libraries/wch_libraries/Peripheral/ch32v10x_tim.c:72

  if((TIMx == TIM1) || (TIMx == TIM2) || (TIMx == TIM3)|| (TIMx == TIM4)) 
    1bba:	fdc42703          	lw	a4,-36(s0)
    1bbe:	400137b7          	lui	a5,0x40013
    1bc2:	c0078793          	addi	a5,a5,-1024 # 40012c00 <_eusrstack+0x2000dc00>
    1bc6:	02f70863          	beq	a4,a5,1bf6 <TIM_TimeBaseInit+0x5a>
C:\Users\山东张\Desktop\新建文件夹\新建文件夹 (2)\SLAVE527\SLAVE-hui\obj/../Libraries/wch_libraries/Peripheral/ch32v10x_tim.c:72 (discriminator 1)
    1bca:	fdc42703          	lw	a4,-36(s0)
    1bce:	400007b7          	lui	a5,0x40000
    1bd2:	02f70263          	beq	a4,a5,1bf6 <TIM_TimeBaseInit+0x5a>
C:\Users\山东张\Desktop\新建文件夹\新建文件夹 (2)\SLAVE527\SLAVE-hui\obj/../Libraries/wch_libraries/Peripheral/ch32v10x_tim.c:72 (discriminator 2)
    1bd6:	fdc42703          	lw	a4,-36(s0)
    1bda:	400007b7          	lui	a5,0x40000
    1bde:	40078793          	addi	a5,a5,1024 # 40000400 <_eusrstack+0x1fffb400>
    1be2:	00f70a63          	beq	a4,a5,1bf6 <TIM_TimeBaseInit+0x5a>
C:\Users\山东张\Desktop\新建文件夹\新建文件夹 (2)\SLAVE527\SLAVE-hui\obj/../Libraries/wch_libraries/Peripheral/ch32v10x_tim.c:72 (discriminator 3)
    1be6:	fdc42703          	lw	a4,-36(s0)
    1bea:	400017b7          	lui	a5,0x40001
    1bee:	80078793          	addi	a5,a5,-2048 # 40000800 <_eusrstack+0x1fffb800>
    1bf2:	02f71163          	bne	a4,a5,1c14 <TIM_TimeBaseInit+0x78>
C:\Users\山东张\Desktop\新建文件夹\新建文件夹 (2)\SLAVE527\SLAVE-hui\obj/../Libraries/wch_libraries/Peripheral/ch32v10x_tim.c:74
  {
    tmpcr1 &= (uint16_t)(~((uint16_t)(TIM_DIR | TIM_CMS)));
    1bf6:	fee45783          	lhu	a5,-18(s0)
    1bfa:	f8f7f793          	andi	a5,a5,-113
    1bfe:	fef41723          	sh	a5,-18(s0)
C:\Users\山东张\Desktop\新建文件夹\新建文件夹 (2)\SLAVE527\SLAVE-hui\obj/../Libraries/wch_libraries/Peripheral/ch32v10x_tim.c:75
    tmpcr1 |= (uint32_t)TIM_TimeBaseInitStruct->TIM_CounterMode;
    1c02:	fd842783          	lw	a5,-40(s0)
    1c06:	0027d703          	lhu	a4,2(a5)
    1c0a:	fee45783          	lhu	a5,-18(s0)
    1c0e:	8fd9                	or	a5,a5,a4
    1c10:	fef41723          	sh	a5,-18(s0)
C:\Users\山东张\Desktop\新建文件夹\新建文件夹 (2)\SLAVE527\SLAVE-hui\obj/../Libraries/wch_libraries/Peripheral/ch32v10x_tim.c:78
  }

  tmpcr1 &= (uint16_t)(~((uint16_t)TIM_CTLR1_CKD));
    1c14:	fee45783          	lhu	a5,-18(s0)
    1c18:	cff7f793          	andi	a5,a5,-769
    1c1c:	fef41723          	sh	a5,-18(s0)
C:\Users\山东张\Desktop\新建文件夹\新建文件夹 (2)\SLAVE527\SLAVE-hui\obj/../Libraries/wch_libraries/Peripheral/ch32v10x_tim.c:79
  tmpcr1 |= (uint32_t)TIM_TimeBaseInitStruct->TIM_ClockDivision;
    1c20:	fd842783          	lw	a5,-40(s0)
    1c24:	0067d703          	lhu	a4,6(a5)
    1c28:	fee45783          	lhu	a5,-18(s0)
    1c2c:	8fd9                	or	a5,a5,a4
    1c2e:	fef41723          	sh	a5,-18(s0)
C:\Users\山东张\Desktop\新建文件夹\新建文件夹 (2)\SLAVE527\SLAVE-hui\obj/../Libraries/wch_libraries/Peripheral/ch32v10x_tim.c:81

  TIMx->CTLR1 = tmpcr1;
    1c32:	fdc42783          	lw	a5,-36(s0)
    1c36:	fee45703          	lhu	a4,-18(s0)
    1c3a:	00e79023          	sh	a4,0(a5)
C:\Users\山东张\Desktop\新建文件夹\新建文件夹 (2)\SLAVE527\SLAVE-hui\obj/../Libraries/wch_libraries/Peripheral/ch32v10x_tim.c:82
  TIMx->ATRLR = TIM_TimeBaseInitStruct->TIM_Period ;
    1c3e:	fd842783          	lw	a5,-40(s0)
    1c42:	0047d703          	lhu	a4,4(a5)
    1c46:	fdc42783          	lw	a5,-36(s0)
    1c4a:	02e79623          	sh	a4,44(a5)
C:\Users\山东张\Desktop\新建文件夹\新建文件夹 (2)\SLAVE527\SLAVE-hui\obj/../Libraries/wch_libraries/Peripheral/ch32v10x_tim.c:83
  TIMx->PSC = TIM_TimeBaseInitStruct->TIM_Prescaler;
    1c4e:	fd842783          	lw	a5,-40(s0)
    1c52:	0007d703          	lhu	a4,0(a5)
    1c56:	fdc42783          	lw	a5,-36(s0)
    1c5a:	02e79423          	sh	a4,40(a5)
C:\Users\山东张\Desktop\新建文件夹\新建文件夹 (2)\SLAVE527\SLAVE-hui\obj/../Libraries/wch_libraries/Peripheral/ch32v10x_tim.c:85
    
  if (TIMx == TIM1)  
    1c5e:	fdc42703          	lw	a4,-36(s0)
    1c62:	400137b7          	lui	a5,0x40013
    1c66:	c0078793          	addi	a5,a5,-1024 # 40012c00 <_eusrstack+0x2000dc00>
    1c6a:	00f71d63          	bne	a4,a5,1c84 <TIM_TimeBaseInit+0xe8>
C:\Users\山东张\Desktop\新建文件夹\新建文件夹 (2)\SLAVE527\SLAVE-hui\obj/../Libraries/wch_libraries/Peripheral/ch32v10x_tim.c:87
  {
    TIMx->RPTCR = TIM_TimeBaseInitStruct->TIM_RepetitionCounter;
    1c6e:	fd842783          	lw	a5,-40(s0)
    1c72:	0087c783          	lbu	a5,8(a5)
    1c76:	01079713          	slli	a4,a5,0x10
    1c7a:	8341                	srli	a4,a4,0x10
    1c7c:	fdc42783          	lw	a5,-36(s0)
    1c80:	02e79823          	sh	a4,48(a5)
C:\Users\山东张\Desktop\新建文件夹\新建文件夹 (2)\SLAVE527\SLAVE-hui\obj/../Libraries/wch_libraries/Peripheral/ch32v10x_tim.c:90
  }

  TIMx->SWEVGR = TIM_PSCReloadMode_Immediate;           
    1c84:	fdc42783          	lw	a5,-36(s0)
    1c88:	4705                	li	a4,1
    1c8a:	00e79a23          	sh	a4,20(a5)
C:\Users\山东张\Desktop\新建文件夹\新建文件夹 (2)\SLAVE527\SLAVE-hui\obj/../Libraries/wch_libraries/Peripheral/ch32v10x_tim.c:91
}
    1c8e:	0001                	nop
    1c90:	5432                	lw	s0,44(sp)
    1c92:	6145                	addi	sp,sp,48
    1c94:	8082                	ret

00001c96 <TIM_TimeBaseStructInit>:
TIM_TimeBaseStructInit():
C:\Users\山东张\Desktop\新建文件夹\新建文件夹 (2)\SLAVE527\SLAVE-hui\obj/../Libraries/wch_libraries/Peripheral/ch32v10x_tim.c:367
* Description    : Fills each TIM_TimeBaseInitStruct member with its default value.
* Input          : TIM_TimeBaseInitStruct : pointer to a TIM_TimeBaseInitTypeDef structure.                 
* Return         : None
*******************************************************************************/
void TIM_TimeBaseStructInit(TIM_TimeBaseInitTypeDef* TIM_TimeBaseInitStruct)
{
    1c96:	1101                	addi	sp,sp,-32
    1c98:	ce22                	sw	s0,28(sp)
    1c9a:	1000                	addi	s0,sp,32
    1c9c:	fea42623          	sw	a0,-20(s0)
C:\Users\山东张\Desktop\新建文件夹\新建文件夹 (2)\SLAVE527\SLAVE-hui\obj/../Libraries/wch_libraries/Peripheral/ch32v10x_tim.c:368
  TIM_TimeBaseInitStruct->TIM_Period = 0xFFFF;
    1ca0:	fec42783          	lw	a5,-20(s0)
    1ca4:	577d                	li	a4,-1
    1ca6:	00e79223          	sh	a4,4(a5)
C:\Users\山东张\Desktop\新建文件夹\新建文件夹 (2)\SLAVE527\SLAVE-hui\obj/../Libraries/wch_libraries/Peripheral/ch32v10x_tim.c:369
  TIM_TimeBaseInitStruct->TIM_Prescaler = 0x0000;
    1caa:	fec42783          	lw	a5,-20(s0)
    1cae:	00079023          	sh	zero,0(a5)
C:\Users\山东张\Desktop\新建文件夹\新建文件夹 (2)\SLAVE527\SLAVE-hui\obj/../Libraries/wch_libraries/Peripheral/ch32v10x_tim.c:370
  TIM_TimeBaseInitStruct->TIM_ClockDivision = TIM_CKD_DIV1;
    1cb2:	fec42783          	lw	a5,-20(s0)
    1cb6:	00079323          	sh	zero,6(a5)
C:\Users\山东张\Desktop\新建文件夹\新建文件夹 (2)\SLAVE527\SLAVE-hui\obj/../Libraries/wch_libraries/Peripheral/ch32v10x_tim.c:371
  TIM_TimeBaseInitStruct->TIM_CounterMode = TIM_CounterMode_Up;
    1cba:	fec42783          	lw	a5,-20(s0)
    1cbe:	00079123          	sh	zero,2(a5)
C:\Users\山东张\Desktop\新建文件夹\新建文件夹 (2)\SLAVE527\SLAVE-hui\obj/../Libraries/wch_libraries/Peripheral/ch32v10x_tim.c:372
  TIM_TimeBaseInitStruct->TIM_RepetitionCounter = 0x0000;
    1cc2:	fec42783          	lw	a5,-20(s0)
    1cc6:	00078423          	sb	zero,8(a5)
C:\Users\山东张\Desktop\新建文件夹\新建文件夹 (2)\SLAVE527\SLAVE-hui\obj/../Libraries/wch_libraries/Peripheral/ch32v10x_tim.c:373
}
    1cca:	0001                	nop
    1ccc:	4472                	lw	s0,28(sp)
    1cce:	6105                	addi	sp,sp,32
    1cd0:	8082                	ret

00001cd2 <TIM_Cmd>:
TIM_Cmd():
C:\Users\山东张\Desktop\新建文件夹\新建文件夹 (2)\SLAVE527\SLAVE-hui\obj/../Libraries/wch_libraries/Peripheral/ch32v10x_tim.c:433
* Input          : TIMx: where x can be 1 to 4 to select the TIM peripheral.
*                  NewState: ENABLE or DISABLE.
* Return         : None
*******************************************************************************/
void TIM_Cmd(TIM_TypeDef* TIMx, FunctionalState NewState)
{ 
    1cd2:	1101                	addi	sp,sp,-32
    1cd4:	ce22                	sw	s0,28(sp)
    1cd6:	1000                	addi	s0,sp,32
    1cd8:	fea42623          	sw	a0,-20(s0)
    1cdc:	feb42423          	sw	a1,-24(s0)
C:\Users\山东张\Desktop\新建文件夹\新建文件夹 (2)\SLAVE527\SLAVE-hui\obj/../Libraries/wch_libraries/Peripheral/ch32v10x_tim.c:434
  if (NewState != DISABLE)
    1ce0:	fe842783          	lw	a5,-24(s0)
    1ce4:	c38d                	beqz	a5,1d06 <TIM_Cmd+0x34>
C:\Users\山东张\Desktop\新建文件夹\新建文件夹 (2)\SLAVE527\SLAVE-hui\obj/../Libraries/wch_libraries/Peripheral/ch32v10x_tim.c:436
  {
    TIMx->CTLR1 |= TIM_CEN;
    1ce6:	fec42783          	lw	a5,-20(s0)
    1cea:	0007d783          	lhu	a5,0(a5)
    1cee:	07c2                	slli	a5,a5,0x10
    1cf0:	83c1                	srli	a5,a5,0x10
    1cf2:	0017e793          	ori	a5,a5,1
    1cf6:	01079713          	slli	a4,a5,0x10
    1cfa:	8341                	srli	a4,a4,0x10
    1cfc:	fec42783          	lw	a5,-20(s0)
    1d00:	00e79023          	sh	a4,0(a5)
C:\Users\山东张\Desktop\新建文件夹\新建文件夹 (2)\SLAVE527\SLAVE-hui\obj/../Libraries/wch_libraries/Peripheral/ch32v10x_tim.c:442
  }
  else
  {
    TIMx->CTLR1 &= (uint16_t)(~((uint16_t)TIM_CEN));
  }
}
    1d04:	a839                	j	1d22 <TIM_Cmd+0x50>
C:\Users\山东张\Desktop\新建文件夹\新建文件夹 (2)\SLAVE527\SLAVE-hui\obj/../Libraries/wch_libraries/Peripheral/ch32v10x_tim.c:440
    TIMx->CTLR1 &= (uint16_t)(~((uint16_t)TIM_CEN));
    1d06:	fec42783          	lw	a5,-20(s0)
    1d0a:	0007d783          	lhu	a5,0(a5)
    1d0e:	07c2                	slli	a5,a5,0x10
    1d10:	83c1                	srli	a5,a5,0x10
    1d12:	9bf9                	andi	a5,a5,-2
    1d14:	01079713          	slli	a4,a5,0x10
    1d18:	8341                	srli	a4,a4,0x10
    1d1a:	fec42783          	lw	a5,-20(s0)
    1d1e:	00e79023          	sh	a4,0(a5)
C:\Users\山东张\Desktop\新建文件夹\新建文件夹 (2)\SLAVE527\SLAVE-hui\obj/../Libraries/wch_libraries/Peripheral/ch32v10x_tim.c:442
}
    1d22:	0001                	nop
    1d24:	4472                	lw	s0,28(sp)
    1d26:	6105                	addi	sp,sp,32
    1d28:	8082                	ret

00001d2a <TIM_ITConfig>:
TIM_ITConfig():
C:\Users\山东张\Desktop\新建文件夹\新建文件夹 (2)\SLAVE527\SLAVE-hui\obj/../Libraries/wch_libraries/Peripheral/ch32v10x_tim.c:480
*                    TIM_IT_Break: TIM Break Interrupt source.
*                  NewState: ENABLE or DISABLE.
* Return         : None
*******************************************************************************/
void TIM_ITConfig(TIM_TypeDef* TIMx, uint16_t TIM_IT, FunctionalState NewState)
{  
    1d2a:	1101                	addi	sp,sp,-32
    1d2c:	ce22                	sw	s0,28(sp)
    1d2e:	1000                	addi	s0,sp,32
    1d30:	fea42623          	sw	a0,-20(s0)
    1d34:	87ae                	mv	a5,a1
    1d36:	fec42223          	sw	a2,-28(s0)
    1d3a:	fef41523          	sh	a5,-22(s0)
C:\Users\山东张\Desktop\新建文件夹\新建文件夹 (2)\SLAVE527\SLAVE-hui\obj/../Libraries/wch_libraries/Peripheral/ch32v10x_tim.c:481
  if (NewState != DISABLE)
    1d3e:	fe442783          	lw	a5,-28(s0)
    1d42:	c39d                	beqz	a5,1d68 <TIM_ITConfig+0x3e>
C:\Users\山东张\Desktop\新建文件夹\新建文件夹 (2)\SLAVE527\SLAVE-hui\obj/../Libraries/wch_libraries/Peripheral/ch32v10x_tim.c:483
  {
    TIMx->DMAINTENR |= TIM_IT;
    1d44:	fec42783          	lw	a5,-20(s0)
    1d48:	00c7d783          	lhu	a5,12(a5)
    1d4c:	01079713          	slli	a4,a5,0x10
    1d50:	8341                	srli	a4,a4,0x10
    1d52:	fea45783          	lhu	a5,-22(s0)
    1d56:	8fd9                	or	a5,a5,a4
    1d58:	01079713          	slli	a4,a5,0x10
    1d5c:	8341                	srli	a4,a4,0x10
    1d5e:	fec42783          	lw	a5,-20(s0)
    1d62:	00e79623          	sh	a4,12(a5)
C:\Users\山东张\Desktop\新建文件夹\新建文件夹 (2)\SLAVE527\SLAVE-hui\obj/../Libraries/wch_libraries/Peripheral/ch32v10x_tim.c:489
  }
  else
  {
    TIMx->DMAINTENR &= (uint16_t)~TIM_IT;
  }
}
    1d66:	a035                	j	1d92 <TIM_ITConfig+0x68>
C:\Users\山东张\Desktop\新建文件夹\新建文件夹 (2)\SLAVE527\SLAVE-hui\obj/../Libraries/wch_libraries/Peripheral/ch32v10x_tim.c:487
    TIMx->DMAINTENR &= (uint16_t)~TIM_IT;
    1d68:	fec42783          	lw	a5,-20(s0)
    1d6c:	00c7d783          	lhu	a5,12(a5)
    1d70:	01079713          	slli	a4,a5,0x10
    1d74:	8341                	srli	a4,a4,0x10
    1d76:	fea45783          	lhu	a5,-22(s0)
    1d7a:	fff7c793          	not	a5,a5
    1d7e:	07c2                	slli	a5,a5,0x10
    1d80:	83c1                	srli	a5,a5,0x10
    1d82:	8ff9                	and	a5,a5,a4
    1d84:	01079713          	slli	a4,a5,0x10
    1d88:	8341                	srli	a4,a4,0x10
    1d8a:	fec42783          	lw	a5,-20(s0)
    1d8e:	00e79623          	sh	a4,12(a5)
C:\Users\山东张\Desktop\新建文件夹\新建文件夹 (2)\SLAVE527\SLAVE-hui\obj/../Libraries/wch_libraries/Peripheral/ch32v10x_tim.c:489
}
    1d92:	0001                	nop
    1d94:	4472                	lw	s0,28(sp)
    1d96:	6105                	addi	sp,sp,32
    1d98:	8082                	ret

00001d9a <TIM_DMACmd>:
TIM_DMACmd():
C:\Users\山东张\Desktop\新建文件夹\新建文件夹 (2)\SLAVE527\SLAVE-hui\obj/../Libraries/wch_libraries/Peripheral/ch32v10x_tim.c:559
*                    TIM_DMA_Trigger: TIM Trigger DMA source.
*                  NewState: ENABLE or DISABLE.
* Return         : None
*******************************************************************************/
void TIM_DMACmd(TIM_TypeDef* TIMx, uint16_t TIM_DMASource, FunctionalState NewState)
{ 
    1d9a:	1101                	addi	sp,sp,-32
    1d9c:	ce22                	sw	s0,28(sp)
    1d9e:	1000                	addi	s0,sp,32
    1da0:	fea42623          	sw	a0,-20(s0)
    1da4:	87ae                	mv	a5,a1
    1da6:	fec42223          	sw	a2,-28(s0)
    1daa:	fef41523          	sh	a5,-22(s0)
C:\Users\山东张\Desktop\新建文件夹\新建文件夹 (2)\SLAVE527\SLAVE-hui\obj/../Libraries/wch_libraries/Peripheral/ch32v10x_tim.c:560
  if (NewState != DISABLE)
    1dae:	fe442783          	lw	a5,-28(s0)
    1db2:	c39d                	beqz	a5,1dd8 <TIM_DMACmd+0x3e>
C:\Users\山东张\Desktop\新建文件夹\新建文件夹 (2)\SLAVE527\SLAVE-hui\obj/../Libraries/wch_libraries/Peripheral/ch32v10x_tim.c:562
  {
    TIMx->DMAINTENR |= TIM_DMASource; 
    1db4:	fec42783          	lw	a5,-20(s0)
    1db8:	00c7d783          	lhu	a5,12(a5)
    1dbc:	01079713          	slli	a4,a5,0x10
    1dc0:	8341                	srli	a4,a4,0x10
    1dc2:	fea45783          	lhu	a5,-22(s0)
    1dc6:	8fd9                	or	a5,a5,a4
    1dc8:	01079713          	slli	a4,a5,0x10
    1dcc:	8341                	srli	a4,a4,0x10
    1dce:	fec42783          	lw	a5,-20(s0)
    1dd2:	00e79623          	sh	a4,12(a5)
C:\Users\山东张\Desktop\新建文件夹\新建文件夹 (2)\SLAVE527\SLAVE-hui\obj/../Libraries/wch_libraries/Peripheral/ch32v10x_tim.c:568
  }
  else
  {
    TIMx->DMAINTENR &= (uint16_t)~TIM_DMASource;
  }
}
    1dd6:	a035                	j	1e02 <TIM_DMACmd+0x68>
C:\Users\山东张\Desktop\新建文件夹\新建文件夹 (2)\SLAVE527\SLAVE-hui\obj/../Libraries/wch_libraries/Peripheral/ch32v10x_tim.c:566
    TIMx->DMAINTENR &= (uint16_t)~TIM_DMASource;
    1dd8:	fec42783          	lw	a5,-20(s0)
    1ddc:	00c7d783          	lhu	a5,12(a5)
    1de0:	01079713          	slli	a4,a5,0x10
    1de4:	8341                	srli	a4,a4,0x10
    1de6:	fea45783          	lhu	a5,-22(s0)
    1dea:	fff7c793          	not	a5,a5
    1dee:	07c2                	slli	a5,a5,0x10
    1df0:	83c1                	srli	a5,a5,0x10
    1df2:	8ff9                	and	a5,a5,a4
    1df4:	01079713          	slli	a4,a5,0x10
    1df8:	8341                	srli	a4,a4,0x10
    1dfa:	fec42783          	lw	a5,-20(s0)
    1dfe:	00e79623          	sh	a4,12(a5)
C:\Users\山东张\Desktop\新建文件夹\新建文件夹 (2)\SLAVE527\SLAVE-hui\obj/../Libraries/wch_libraries/Peripheral/ch32v10x_tim.c:568
}
    1e02:	0001                	nop
    1e04:	4472                	lw	s0,28(sp)
    1e06:	6105                	addi	sp,sp,32
    1e08:	8082                	ret

00001e0a <TIM_ETRClockMode1Config>:
TIM_ETRClockMode1Config():
C:\Users\山东张\Desktop\新建文件夹\新建文件夹 (2)\SLAVE527\SLAVE-hui\obj/../Libraries/wch_libraries/Peripheral/ch32v10x_tim.c:649
*                    This parameter must be a value between 0x0 and 0xF.
* Return         : None
*******************************************************************************/
void TIM_ETRClockMode1Config(TIM_TypeDef* TIMx, uint16_t TIM_ExtTRGPrescaler, uint16_t TIM_ExtTRGPolarity,
                             uint16_t ExtTRGFilter)
{
    1e0a:	7179                	addi	sp,sp,-48
    1e0c:	d606                	sw	ra,44(sp)
    1e0e:	d422                	sw	s0,40(sp)
    1e10:	1800                	addi	s0,sp,48
    1e12:	fca42e23          	sw	a0,-36(s0)
    1e16:	87ae                	mv	a5,a1
    1e18:	8736                	mv	a4,a3
    1e1a:	fcf41d23          	sh	a5,-38(s0)
    1e1e:	87b2                	mv	a5,a2
    1e20:	fcf41c23          	sh	a5,-40(s0)
    1e24:	87ba                	mv	a5,a4
    1e26:	fcf41b23          	sh	a5,-42(s0)
C:\Users\山东张\Desktop\新建文件夹\新建文件夹 (2)\SLAVE527\SLAVE-hui\obj/../Libraries/wch_libraries/Peripheral/ch32v10x_tim.c:650
  uint16_t tmpsmcr = 0;
    1e2a:	fe041723          	sh	zero,-18(s0)
C:\Users\山东张\Desktop\新建文件夹\新建文件夹 (2)\SLAVE527\SLAVE-hui\obj/../Libraries/wch_libraries/Peripheral/ch32v10x_tim.c:652

  TIM_ETRConfig(TIMx, TIM_ExtTRGPrescaler, TIM_ExtTRGPolarity, ExtTRGFilter);
    1e2e:	fd645683          	lhu	a3,-42(s0)
    1e32:	fd845703          	lhu	a4,-40(s0)
    1e36:	fda45783          	lhu	a5,-38(s0)
    1e3a:	863a                	mv	a2,a4
    1e3c:	85be                	mv	a1,a5
    1e3e:	fdc42503          	lw	a0,-36(s0)
    1e42:	2889                	jal	1e94 <TIM_ETRConfig>
C:\Users\山东张\Desktop\新建文件夹\新建文件夹 (2)\SLAVE527\SLAVE-hui\obj/../Libraries/wch_libraries/Peripheral/ch32v10x_tim.c:653
  tmpsmcr = TIMx->SMCFGR;
    1e44:	fdc42783          	lw	a5,-36(s0)
    1e48:	0087d783          	lhu	a5,8(a5)
    1e4c:	fef41723          	sh	a5,-18(s0)
C:\Users\山东张\Desktop\新建文件夹\新建文件夹 (2)\SLAVE527\SLAVE-hui\obj/../Libraries/wch_libraries/Peripheral/ch32v10x_tim.c:654
  tmpsmcr &= (uint16_t)(~((uint16_t)TIM_SMS));
    1e50:	fee45783          	lhu	a5,-18(s0)
    1e54:	9be1                	andi	a5,a5,-8
    1e56:	fef41723          	sh	a5,-18(s0)
C:\Users\山东张\Desktop\新建文件夹\新建文件夹 (2)\SLAVE527\SLAVE-hui\obj/../Libraries/wch_libraries/Peripheral/ch32v10x_tim.c:655
  tmpsmcr |= TIM_SlaveMode_External1;
    1e5a:	fee45783          	lhu	a5,-18(s0)
    1e5e:	0077e793          	ori	a5,a5,7
    1e62:	fef41723          	sh	a5,-18(s0)
C:\Users\山东张\Desktop\新建文件夹\新建文件夹 (2)\SLAVE527\SLAVE-hui\obj/../Libraries/wch_libraries/Peripheral/ch32v10x_tim.c:656
  tmpsmcr &= (uint16_t)(~((uint16_t)TIM_TS));
    1e66:	fee45783          	lhu	a5,-18(s0)
    1e6a:	f8f7f793          	andi	a5,a5,-113
    1e6e:	fef41723          	sh	a5,-18(s0)
C:\Users\山东张\Desktop\新建文件夹\新建文件夹 (2)\SLAVE527\SLAVE-hui\obj/../Libraries/wch_libraries/Peripheral/ch32v10x_tim.c:657
  tmpsmcr |= TIM_TS_ETRF;
    1e72:	fee45783          	lhu	a5,-18(s0)
    1e76:	0707e793          	ori	a5,a5,112
    1e7a:	fef41723          	sh	a5,-18(s0)
C:\Users\山东张\Desktop\新建文件夹\新建文件夹 (2)\SLAVE527\SLAVE-hui\obj/../Libraries/wch_libraries/Peripheral/ch32v10x_tim.c:658
  TIMx->SMCFGR = tmpsmcr;
    1e7e:	fdc42783          	lw	a5,-36(s0)
    1e82:	fee45703          	lhu	a4,-18(s0)
    1e86:	00e79423          	sh	a4,8(a5)
C:\Users\山东张\Desktop\新建文件夹\新建文件夹 (2)\SLAVE527\SLAVE-hui\obj/../Libraries/wch_libraries/Peripheral/ch32v10x_tim.c:659
}
    1e8a:	0001                	nop
    1e8c:	50b2                	lw	ra,44(sp)
    1e8e:	5422                	lw	s0,40(sp)
    1e90:	6145                	addi	sp,sp,48
    1e92:	8082                	ret

00001e94 <TIM_ETRConfig>:
TIM_ETRConfig():
C:\Users\山东张\Desktop\新建文件夹\新建文件夹 (2)\SLAVE527\SLAVE-hui\obj/../Libraries/wch_libraries/Peripheral/ch32v10x_tim.c:702
*                    This parameter must be a value between 0x0 and 0xF.
* Return         : None
*******************************************************************************/
void TIM_ETRConfig(TIM_TypeDef* TIMx, uint16_t TIM_ExtTRGPrescaler, uint16_t TIM_ExtTRGPolarity,
                   uint16_t ExtTRGFilter)
{
    1e94:	7179                	addi	sp,sp,-48
    1e96:	d622                	sw	s0,44(sp)
    1e98:	1800                	addi	s0,sp,48
    1e9a:	fca42e23          	sw	a0,-36(s0)
    1e9e:	87ae                	mv	a5,a1
    1ea0:	8736                	mv	a4,a3
    1ea2:	fcf41d23          	sh	a5,-38(s0)
    1ea6:	87b2                	mv	a5,a2
    1ea8:	fcf41c23          	sh	a5,-40(s0)
    1eac:	87ba                	mv	a5,a4
    1eae:	fcf41b23          	sh	a5,-42(s0)
C:\Users\山东张\Desktop\新建文件夹\新建文件夹 (2)\SLAVE527\SLAVE-hui\obj/../Libraries/wch_libraries/Peripheral/ch32v10x_tim.c:703
  uint16_t tmpsmcr = 0;
    1eb2:	fe041723          	sh	zero,-18(s0)
C:\Users\山东张\Desktop\新建文件夹\新建文件夹 (2)\SLAVE527\SLAVE-hui\obj/../Libraries/wch_libraries/Peripheral/ch32v10x_tim.c:705

  tmpsmcr = TIMx->SMCFGR;
    1eb6:	fdc42783          	lw	a5,-36(s0)
    1eba:	0087d783          	lhu	a5,8(a5)
    1ebe:	fef41723          	sh	a5,-18(s0)
C:\Users\山东张\Desktop\新建文件夹\新建文件夹 (2)\SLAVE527\SLAVE-hui\obj/../Libraries/wch_libraries/Peripheral/ch32v10x_tim.c:706
  tmpsmcr &= SMCFGR_ETR_Mask;
    1ec2:	fee45783          	lhu	a5,-18(s0)
    1ec6:	0ff7f793          	andi	a5,a5,255
    1eca:	fef41723          	sh	a5,-18(s0)
C:\Users\山东张\Desktop\新建文件夹\新建文件夹 (2)\SLAVE527\SLAVE-hui\obj/../Libraries/wch_libraries/Peripheral/ch32v10x_tim.c:707
  tmpsmcr |= (uint16_t)(TIM_ExtTRGPrescaler | (uint16_t)(TIM_ExtTRGPolarity | (uint16_t)(ExtTRGFilter << (uint16_t)8)));
    1ece:	fd645783          	lhu	a5,-42(s0)
    1ed2:	07a2                	slli	a5,a5,0x8
    1ed4:	01079713          	slli	a4,a5,0x10
    1ed8:	8341                	srli	a4,a4,0x10
    1eda:	fd845783          	lhu	a5,-40(s0)
    1ede:	8fd9                	or	a5,a5,a4
    1ee0:	01079713          	slli	a4,a5,0x10
    1ee4:	8341                	srli	a4,a4,0x10
    1ee6:	fda45783          	lhu	a5,-38(s0)
    1eea:	8fd9                	or	a5,a5,a4
    1eec:	01079713          	slli	a4,a5,0x10
    1ef0:	8341                	srli	a4,a4,0x10
    1ef2:	fee45783          	lhu	a5,-18(s0)
    1ef6:	8fd9                	or	a5,a5,a4
    1ef8:	fef41723          	sh	a5,-18(s0)
C:\Users\山东张\Desktop\新建文件夹\新建文件夹 (2)\SLAVE527\SLAVE-hui\obj/../Libraries/wch_libraries/Peripheral/ch32v10x_tim.c:708
  TIMx->SMCFGR = tmpsmcr;
    1efc:	fdc42783          	lw	a5,-36(s0)
    1f00:	fee45703          	lhu	a4,-18(s0)
    1f04:	00e79423          	sh	a4,8(a5)
C:\Users\山东张\Desktop\新建文件夹\新建文件夹 (2)\SLAVE527\SLAVE-hui\obj/../Libraries/wch_libraries/Peripheral/ch32v10x_tim.c:709
}
    1f08:	0001                	nop
    1f0a:	5432                	lw	s0,44(sp)
    1f0c:	6145                	addi	sp,sp,48
    1f0e:	8082                	ret

00001f10 <TIM_SelectInputTrigger>:
TIM_SelectInputTrigger():
C:\Users\山东张\Desktop\新建文件夹\新建文件夹 (2)\SLAVE527\SLAVE-hui\obj/../Libraries/wch_libraries/Peripheral/ch32v10x_tim.c:766
*                    TIM_TS_TI2FP2: Filtered Timer Input 2.
*                    TIM_TS_ETRF: External Trigger input.
* Return         : None
*******************************************************************************/
void TIM_SelectInputTrigger(TIM_TypeDef* TIMx, uint16_t TIM_InputTriggerSource)
{
    1f10:	7179                	addi	sp,sp,-48
    1f12:	d622                	sw	s0,44(sp)
    1f14:	1800                	addi	s0,sp,48
    1f16:	fca42e23          	sw	a0,-36(s0)
    1f1a:	87ae                	mv	a5,a1
    1f1c:	fcf41d23          	sh	a5,-38(s0)
C:\Users\山东张\Desktop\新建文件夹\新建文件夹 (2)\SLAVE527\SLAVE-hui\obj/../Libraries/wch_libraries/Peripheral/ch32v10x_tim.c:767
  uint16_t tmpsmcr = 0;
    1f20:	fe041723          	sh	zero,-18(s0)
C:\Users\山东张\Desktop\新建文件夹\新建文件夹 (2)\SLAVE527\SLAVE-hui\obj/../Libraries/wch_libraries/Peripheral/ch32v10x_tim.c:769

  tmpsmcr = TIMx->SMCFGR;
    1f24:	fdc42783          	lw	a5,-36(s0)
    1f28:	0087d783          	lhu	a5,8(a5)
    1f2c:	fef41723          	sh	a5,-18(s0)
C:\Users\山东张\Desktop\新建文件夹\新建文件夹 (2)\SLAVE527\SLAVE-hui\obj/../Libraries/wch_libraries/Peripheral/ch32v10x_tim.c:770
  tmpsmcr &= (uint16_t)(~((uint16_t)TIM_TS));
    1f30:	fee45783          	lhu	a5,-18(s0)
    1f34:	f8f7f793          	andi	a5,a5,-113
    1f38:	fef41723          	sh	a5,-18(s0)
C:\Users\山东张\Desktop\新建文件夹\新建文件夹 (2)\SLAVE527\SLAVE-hui\obj/../Libraries/wch_libraries/Peripheral/ch32v10x_tim.c:771
  tmpsmcr |= TIM_InputTriggerSource;
    1f3c:	fee45703          	lhu	a4,-18(s0)
    1f40:	fda45783          	lhu	a5,-38(s0)
    1f44:	8fd9                	or	a5,a5,a4
    1f46:	fef41723          	sh	a5,-18(s0)
C:\Users\山东张\Desktop\新建文件夹\新建文件夹 (2)\SLAVE527\SLAVE-hui\obj/../Libraries/wch_libraries/Peripheral/ch32v10x_tim.c:772
  TIMx->SMCFGR = tmpsmcr;
    1f4a:	fdc42783          	lw	a5,-36(s0)
    1f4e:	fee45703          	lhu	a4,-18(s0)
    1f52:	00e79423          	sh	a4,8(a5)
C:\Users\山东张\Desktop\新建文件夹\新建文件夹 (2)\SLAVE527\SLAVE-hui\obj/../Libraries/wch_libraries/Peripheral/ch32v10x_tim.c:773
}
    1f56:	0001                	nop
    1f58:	5432                	lw	s0,44(sp)
    1f5a:	6145                	addi	sp,sp,48
    1f5c:	8082                	ret

00001f5e <TIM_EncoderInterfaceConfig>:
TIM_EncoderInterfaceConfig():
C:\Users\山东张\Desktop\新建文件夹\新建文件夹 (2)\SLAVE527\SLAVE-hui\obj/../Libraries/wch_libraries/Peripheral/ch32v10x_tim.c:796
*                    TIM_ICPolarity_Rising: IC Rising edge.
* Return         : None
*******************************************************************************/
void TIM_EncoderInterfaceConfig(TIM_TypeDef* TIMx, uint16_t TIM_EncoderMode,
                                uint16_t TIM_IC1Polarity, uint16_t TIM_IC2Polarity)
{
    1f5e:	7179                	addi	sp,sp,-48
    1f60:	d622                	sw	s0,44(sp)
    1f62:	1800                	addi	s0,sp,48
    1f64:	fca42e23          	sw	a0,-36(s0)
    1f68:	87ae                	mv	a5,a1
    1f6a:	8736                	mv	a4,a3
    1f6c:	fcf41d23          	sh	a5,-38(s0)
    1f70:	87b2                	mv	a5,a2
    1f72:	fcf41c23          	sh	a5,-40(s0)
    1f76:	87ba                	mv	a5,a4
    1f78:	fcf41b23          	sh	a5,-42(s0)
C:\Users\山东张\Desktop\新建文件夹\新建文件夹 (2)\SLAVE527\SLAVE-hui\obj/../Libraries/wch_libraries/Peripheral/ch32v10x_tim.c:797
  uint16_t tmpsmcr = 0;
    1f7c:	fe041723          	sh	zero,-18(s0)
C:\Users\山东张\Desktop\新建文件夹\新建文件夹 (2)\SLAVE527\SLAVE-hui\obj/../Libraries/wch_libraries/Peripheral/ch32v10x_tim.c:798
  uint16_t tmpccmr1 = 0;
    1f80:	fe041623          	sh	zero,-20(s0)
C:\Users\山东张\Desktop\新建文件夹\新建文件夹 (2)\SLAVE527\SLAVE-hui\obj/../Libraries/wch_libraries/Peripheral/ch32v10x_tim.c:799
  uint16_t tmpccer = 0;
    1f84:	fe041523          	sh	zero,-22(s0)
C:\Users\山东张\Desktop\新建文件夹\新建文件夹 (2)\SLAVE527\SLAVE-hui\obj/../Libraries/wch_libraries/Peripheral/ch32v10x_tim.c:801
    
  tmpsmcr = TIMx->SMCFGR;
    1f88:	fdc42783          	lw	a5,-36(s0)
    1f8c:	0087d783          	lhu	a5,8(a5)
    1f90:	fef41723          	sh	a5,-18(s0)
C:\Users\山东张\Desktop\新建文件夹\新建文件夹 (2)\SLAVE527\SLAVE-hui\obj/../Libraries/wch_libraries/Peripheral/ch32v10x_tim.c:802
  tmpccmr1 = TIMx->CHCTLR1;
    1f94:	fdc42783          	lw	a5,-36(s0)
    1f98:	0187d783          	lhu	a5,24(a5)
    1f9c:	fef41623          	sh	a5,-20(s0)
C:\Users\山东张\Desktop\新建文件夹\新建文件夹 (2)\SLAVE527\SLAVE-hui\obj/../Libraries/wch_libraries/Peripheral/ch32v10x_tim.c:803
  tmpccer = TIMx->CCER;
    1fa0:	fdc42783          	lw	a5,-36(s0)
    1fa4:	0207d783          	lhu	a5,32(a5)
    1fa8:	fef41523          	sh	a5,-22(s0)
C:\Users\山东张\Desktop\新建文件夹\新建文件夹 (2)\SLAVE527\SLAVE-hui\obj/../Libraries/wch_libraries/Peripheral/ch32v10x_tim.c:804
  tmpsmcr &= (uint16_t)(~((uint16_t)TIM_SMS));
    1fac:	fee45783          	lhu	a5,-18(s0)
    1fb0:	9be1                	andi	a5,a5,-8
    1fb2:	fef41723          	sh	a5,-18(s0)
C:\Users\山东张\Desktop\新建文件夹\新建文件夹 (2)\SLAVE527\SLAVE-hui\obj/../Libraries/wch_libraries/Peripheral/ch32v10x_tim.c:805
  tmpsmcr |= TIM_EncoderMode;
    1fb6:	fee45703          	lhu	a4,-18(s0)
    1fba:	fda45783          	lhu	a5,-38(s0)
    1fbe:	8fd9                	or	a5,a5,a4
    1fc0:	fef41723          	sh	a5,-18(s0)
C:\Users\山东张\Desktop\新建文件夹\新建文件夹 (2)\SLAVE527\SLAVE-hui\obj/../Libraries/wch_libraries/Peripheral/ch32v10x_tim.c:806
  tmpccmr1 &= (uint16_t)(((uint16_t)~((uint16_t)TIM_CC1S)) & (uint16_t)(~((uint16_t)TIM_CC2S)));
    1fc4:	fec45783          	lhu	a5,-20(s0)
    1fc8:	cfc7f793          	andi	a5,a5,-772
    1fcc:	fef41623          	sh	a5,-20(s0)
C:\Users\山东张\Desktop\新建文件夹\新建文件夹 (2)\SLAVE527\SLAVE-hui\obj/../Libraries/wch_libraries/Peripheral/ch32v10x_tim.c:807
  tmpccmr1 |= TIM_CC1S_0 | TIM_CC2S_0;
    1fd0:	fec45783          	lhu	a5,-20(s0)
    1fd4:	1017e793          	ori	a5,a5,257
    1fd8:	fef41623          	sh	a5,-20(s0)
C:\Users\山东张\Desktop\新建文件夹\新建文件夹 (2)\SLAVE527\SLAVE-hui\obj/../Libraries/wch_libraries/Peripheral/ch32v10x_tim.c:808
  tmpccer &= (uint16_t)(((uint16_t)~((uint16_t)TIM_CC1P)) & ((uint16_t)~((uint16_t)TIM_CC2P)));
    1fdc:	fea45783          	lhu	a5,-22(s0)
    1fe0:	fdd7f793          	andi	a5,a5,-35
    1fe4:	fef41523          	sh	a5,-22(s0)
C:\Users\山东张\Desktop\新建文件夹\新建文件夹 (2)\SLAVE527\SLAVE-hui\obj/../Libraries/wch_libraries/Peripheral/ch32v10x_tim.c:809
  tmpccer |= (uint16_t)(TIM_IC1Polarity | (uint16_t)(TIM_IC2Polarity << (uint16_t)4)); 
    1fe8:	fd645783          	lhu	a5,-42(s0)
    1fec:	0792                	slli	a5,a5,0x4
    1fee:	01079713          	slli	a4,a5,0x10
    1ff2:	8341                	srli	a4,a4,0x10
    1ff4:	fd845783          	lhu	a5,-40(s0)
    1ff8:	8fd9                	or	a5,a5,a4
    1ffa:	01079713          	slli	a4,a5,0x10
    1ffe:	8341                	srli	a4,a4,0x10
    2000:	fea45783          	lhu	a5,-22(s0)
    2004:	8fd9                	or	a5,a5,a4
    2006:	fef41523          	sh	a5,-22(s0)
C:\Users\山东张\Desktop\新建文件夹\新建文件夹 (2)\SLAVE527\SLAVE-hui\obj/../Libraries/wch_libraries/Peripheral/ch32v10x_tim.c:810
  TIMx->SMCFGR = tmpsmcr;
    200a:	fdc42783          	lw	a5,-36(s0)
    200e:	fee45703          	lhu	a4,-18(s0)
    2012:	00e79423          	sh	a4,8(a5)
C:\Users\山东张\Desktop\新建文件夹\新建文件夹 (2)\SLAVE527\SLAVE-hui\obj/../Libraries/wch_libraries/Peripheral/ch32v10x_tim.c:811
  TIMx->CHCTLR1 = tmpccmr1;
    2016:	fdc42783          	lw	a5,-36(s0)
    201a:	fec45703          	lhu	a4,-20(s0)
    201e:	00e79c23          	sh	a4,24(a5)
C:\Users\山东张\Desktop\新建文件夹\新建文件夹 (2)\SLAVE527\SLAVE-hui\obj/../Libraries/wch_libraries/Peripheral/ch32v10x_tim.c:812
  TIMx->CCER = tmpccer;
    2022:	fdc42783          	lw	a5,-36(s0)
    2026:	fea45703          	lhu	a4,-22(s0)
    202a:	02e79023          	sh	a4,32(a5)
C:\Users\山东张\Desktop\新建文件夹\新建文件夹 (2)\SLAVE527\SLAVE-hui\obj/../Libraries/wch_libraries/Peripheral/ch32v10x_tim.c:813
}
    202e:	0001                	nop
    2030:	5432                	lw	s0,44(sp)
    2032:	6145                	addi	sp,sp,48
    2034:	8082                	ret

00002036 <TIM_SelectSlaveMode>:
TIM_SelectSlaveMode():
C:\Users\山东张\Desktop\新建文件夹\新建文件夹 (2)\SLAVE527\SLAVE-hui\obj/../Libraries/wch_libraries/Peripheral/ch32v10x_tim.c:1535
*                    TIM_SlaveMode_External1: Rising edges of the selected trigger
*      (TRGI) clock the counter.
* Return         : None
*******************************************************************************/
void TIM_SelectSlaveMode(TIM_TypeDef* TIMx, uint16_t TIM_SlaveMode)
{
    2036:	1101                	addi	sp,sp,-32
    2038:	ce22                	sw	s0,28(sp)
    203a:	1000                	addi	s0,sp,32
    203c:	fea42623          	sw	a0,-20(s0)
    2040:	87ae                	mv	a5,a1
    2042:	fef41523          	sh	a5,-22(s0)
C:\Users\山东张\Desktop\新建文件夹\新建文件夹 (2)\SLAVE527\SLAVE-hui\obj/../Libraries/wch_libraries/Peripheral/ch32v10x_tim.c:1536
  TIMx->SMCFGR &= (uint16_t)~((uint16_t)TIM_SMS);
    2046:	fec42783          	lw	a5,-20(s0)
    204a:	0087d783          	lhu	a5,8(a5)
    204e:	07c2                	slli	a5,a5,0x10
    2050:	83c1                	srli	a5,a5,0x10
    2052:	9be1                	andi	a5,a5,-8
    2054:	01079713          	slli	a4,a5,0x10
    2058:	8341                	srli	a4,a4,0x10
    205a:	fec42783          	lw	a5,-20(s0)
    205e:	00e79423          	sh	a4,8(a5)
C:\Users\山东张\Desktop\新建文件夹\新建文件夹 (2)\SLAVE527\SLAVE-hui\obj/../Libraries/wch_libraries/Peripheral/ch32v10x_tim.c:1537
  TIMx->SMCFGR |= TIM_SlaveMode;
    2062:	fec42783          	lw	a5,-20(s0)
    2066:	0087d783          	lhu	a5,8(a5)
    206a:	01079713          	slli	a4,a5,0x10
    206e:	8341                	srli	a4,a4,0x10
    2070:	fea45783          	lhu	a5,-22(s0)
    2074:	8fd9                	or	a5,a5,a4
    2076:	01079713          	slli	a4,a5,0x10
    207a:	8341                	srli	a4,a4,0x10
    207c:	fec42783          	lw	a5,-20(s0)
    2080:	00e79423          	sh	a4,8(a5)
C:\Users\山东张\Desktop\新建文件夹\新建文件夹 (2)\SLAVE527\SLAVE-hui\obj/../Libraries/wch_libraries/Peripheral/ch32v10x_tim.c:1538
}
    2084:	0001                	nop
    2086:	4472                	lw	s0,28(sp)
    2088:	6105                	addi	sp,sp,32
    208a:	8082                	ret

0000208c <TIM_SelectMasterSlaveMode>:
TIM_SelectMasterSlaveMode():
C:\Users\山东张\Desktop\新建文件夹\新建文件夹 (2)\SLAVE527\SLAVE-hui\obj/../Libraries/wch_libraries/Peripheral/ch32v10x_tim.c:1551
*      timer and its slaves (through TRGO).
*                    TIM_MasterSlaveMode_Disable: No action.
* Return         : None
*******************************************************************************/
void TIM_SelectMasterSlaveMode(TIM_TypeDef* TIMx, uint16_t TIM_MasterSlaveMode)
{
    208c:	1101                	addi	sp,sp,-32
    208e:	ce22                	sw	s0,28(sp)
    2090:	1000                	addi	s0,sp,32
    2092:	fea42623          	sw	a0,-20(s0)
    2096:	87ae                	mv	a5,a1
    2098:	fef41523          	sh	a5,-22(s0)
C:\Users\山东张\Desktop\新建文件夹\新建文件夹 (2)\SLAVE527\SLAVE-hui\obj/../Libraries/wch_libraries/Peripheral/ch32v10x_tim.c:1552
  TIMx->SMCFGR &= (uint16_t)~((uint16_t)TIM_MSM);  
    209c:	fec42783          	lw	a5,-20(s0)
    20a0:	0087d783          	lhu	a5,8(a5)
    20a4:	07c2                	slli	a5,a5,0x10
    20a6:	83c1                	srli	a5,a5,0x10
    20a8:	f7f7f793          	andi	a5,a5,-129
    20ac:	01079713          	slli	a4,a5,0x10
    20b0:	8341                	srli	a4,a4,0x10
    20b2:	fec42783          	lw	a5,-20(s0)
    20b6:	00e79423          	sh	a4,8(a5)
C:\Users\山东张\Desktop\新建文件夹\新建文件夹 (2)\SLAVE527\SLAVE-hui\obj/../Libraries/wch_libraries/Peripheral/ch32v10x_tim.c:1553
  TIMx->SMCFGR |= TIM_MasterSlaveMode;
    20ba:	fec42783          	lw	a5,-20(s0)
    20be:	0087d783          	lhu	a5,8(a5)
    20c2:	01079713          	slli	a4,a5,0x10
    20c6:	8341                	srli	a4,a4,0x10
    20c8:	fea45783          	lhu	a5,-22(s0)
    20cc:	8fd9                	or	a5,a5,a4
    20ce:	01079713          	slli	a4,a5,0x10
    20d2:	8341                	srli	a4,a4,0x10
    20d4:	fec42783          	lw	a5,-20(s0)
    20d8:	00e79423          	sh	a4,8(a5)
C:\Users\山东张\Desktop\新建文件夹\新建文件夹 (2)\SLAVE527\SLAVE-hui\obj/../Libraries/wch_libraries/Peripheral/ch32v10x_tim.c:1554
}
    20dc:	0001                	nop
    20de:	4472                	lw	s0,28(sp)
    20e0:	6105                	addi	sp,sp,32
    20e2:	8082                	ret

000020e4 <TIM_GetITStatus>:
TIM_GetITStatus():
C:\Users\山东张\Desktop\新建文件夹\新建文件夹 (2)\SLAVE527\SLAVE-hui\obj/../Libraries/wch_libraries/Peripheral/ch32v10x_tim.c:1853
*                    TIM_IT_Trigger: TIM Trigger Interrupt source.
*                    TIM_IT_Break: TIM Break Interrupt source.
* Return         : bitstatus: SET or RESET.
*******************************************************************************/
ITStatus TIM_GetITStatus(TIM_TypeDef* TIMx, uint16_t TIM_IT)
{
    20e4:	7179                	addi	sp,sp,-48
    20e6:	d622                	sw	s0,44(sp)
    20e8:	1800                	addi	s0,sp,48
    20ea:	fca42e23          	sw	a0,-36(s0)
    20ee:	87ae                	mv	a5,a1
    20f0:	fcf41d23          	sh	a5,-38(s0)
C:\Users\山东张\Desktop\新建文件夹\新建文件夹 (2)\SLAVE527\SLAVE-hui\obj/../Libraries/wch_libraries/Peripheral/ch32v10x_tim.c:1854
  ITStatus bitstatus = RESET;  
    20f4:	fe042623          	sw	zero,-20(s0)
C:\Users\山东张\Desktop\新建文件夹\新建文件夹 (2)\SLAVE527\SLAVE-hui\obj/../Libraries/wch_libraries/Peripheral/ch32v10x_tim.c:1855
  uint16_t itstatus = 0x0, itenable = 0x0;
    20f8:	fe041523          	sh	zero,-22(s0)
    20fc:	fe041423          	sh	zero,-24(s0)
C:\Users\山东张\Desktop\新建文件夹\新建文件夹 (2)\SLAVE527\SLAVE-hui\obj/../Libraries/wch_libraries/Peripheral/ch32v10x_tim.c:1857
   
  itstatus = TIMx->INTFR & TIM_IT;
    2100:	fdc42783          	lw	a5,-36(s0)
    2104:	0107d783          	lhu	a5,16(a5)
    2108:	01079713          	slli	a4,a5,0x10
    210c:	8341                	srli	a4,a4,0x10
    210e:	fda45783          	lhu	a5,-38(s0)
    2112:	8ff9                	and	a5,a5,a4
    2114:	fef41523          	sh	a5,-22(s0)
C:\Users\山东张\Desktop\新建文件夹\新建文件夹 (2)\SLAVE527\SLAVE-hui\obj/../Libraries/wch_libraries/Peripheral/ch32v10x_tim.c:1859
  
  itenable = TIMx->DMAINTENR & TIM_IT;
    2118:	fdc42783          	lw	a5,-36(s0)
    211c:	00c7d783          	lhu	a5,12(a5)
    2120:	01079713          	slli	a4,a5,0x10
    2124:	8341                	srli	a4,a4,0x10
    2126:	fda45783          	lhu	a5,-38(s0)
    212a:	8ff9                	and	a5,a5,a4
    212c:	fef41423          	sh	a5,-24(s0)
C:\Users\山东张\Desktop\新建文件夹\新建文件夹 (2)\SLAVE527\SLAVE-hui\obj/../Libraries/wch_libraries/Peripheral/ch32v10x_tim.c:1860
  if ((itstatus != (uint16_t)RESET) && (itenable != (uint16_t)RESET))
    2130:	fea45783          	lhu	a5,-22(s0)
    2134:	cb81                	beqz	a5,2144 <TIM_GetITStatus+0x60>
C:\Users\山东张\Desktop\新建文件夹\新建文件夹 (2)\SLAVE527\SLAVE-hui\obj/../Libraries/wch_libraries/Peripheral/ch32v10x_tim.c:1860 (discriminator 1)
    2136:	fe845783          	lhu	a5,-24(s0)
    213a:	c789                	beqz	a5,2144 <TIM_GetITStatus+0x60>
C:\Users\山东张\Desktop\新建文件夹\新建文件夹 (2)\SLAVE527\SLAVE-hui\obj/../Libraries/wch_libraries/Peripheral/ch32v10x_tim.c:1862
  {
    bitstatus = SET;
    213c:	4785                	li	a5,1
    213e:	fef42623          	sw	a5,-20(s0)
    2142:	a019                	j	2148 <TIM_GetITStatus+0x64>
C:\Users\山东张\Desktop\新建文件夹\新建文件夹 (2)\SLAVE527\SLAVE-hui\obj/../Libraries/wch_libraries/Peripheral/ch32v10x_tim.c:1866
  }
  else
  {
    bitstatus = RESET;
    2144:	fe042623          	sw	zero,-20(s0)
C:\Users\山东张\Desktop\新建文件夹\新建文件夹 (2)\SLAVE527\SLAVE-hui\obj/../Libraries/wch_libraries/Peripheral/ch32v10x_tim.c:1869
  }
	
  return bitstatus;
    2148:	fec42783          	lw	a5,-20(s0)
C:\Users\山东张\Desktop\新建文件夹\新建文件夹 (2)\SLAVE527\SLAVE-hui\obj/../Libraries/wch_libraries/Peripheral/ch32v10x_tim.c:1870
}
    214c:	853e                	mv	a0,a5
    214e:	5432                	lw	s0,44(sp)
    2150:	6145                	addi	sp,sp,48
    2152:	8082                	ret

00002154 <TIM_ClearITPendingBit>:
TIM_ClearITPendingBit():
C:\Users\山东张\Desktop\新建文件夹\新建文件夹 (2)\SLAVE527\SLAVE-hui\obj/../Libraries/wch_libraries/Peripheral/ch32v10x_tim.c:1888
*                    TIM_IT_Trigger: TIM Trigger Interrupt source.
*                    TIM_IT_Break: TIM Break Interrupt source.
* Return         : None
*******************************************************************************/
void TIM_ClearITPendingBit(TIM_TypeDef* TIMx, uint16_t TIM_IT)
{
    2154:	1101                	addi	sp,sp,-32
    2156:	ce22                	sw	s0,28(sp)
    2158:	1000                	addi	s0,sp,32
    215a:	fea42623          	sw	a0,-20(s0)
    215e:	87ae                	mv	a5,a1
    2160:	fef41523          	sh	a5,-22(s0)
C:\Users\山东张\Desktop\新建文件夹\新建文件夹 (2)\SLAVE527\SLAVE-hui\obj/../Libraries/wch_libraries/Peripheral/ch32v10x_tim.c:1889
  TIMx->INTFR = (uint16_t)~TIM_IT;
    2164:	fea45783          	lhu	a5,-22(s0)
    2168:	fff7c793          	not	a5,a5
    216c:	01079713          	slli	a4,a5,0x10
    2170:	8341                	srli	a4,a4,0x10
    2172:	fec42783          	lw	a5,-20(s0)
    2176:	00e79823          	sh	a4,16(a5)
C:\Users\山东张\Desktop\新建文件夹\新建文件夹 (2)\SLAVE527\SLAVE-hui\obj/../Libraries/wch_libraries/Peripheral/ch32v10x_tim.c:1890
}
    217a:	0001                	nop
    217c:	4472                	lw	s0,28(sp)
    217e:	6105                	addi	sp,sp,32
    2180:	8082                	ret

00002182 <USART_Init>:
USART_Init():
C:\Users\山东张\Desktop\新建文件夹\新建文件夹 (2)\SLAVE527\SLAVE-hui\obj/../Libraries/wch_libraries/Peripheral/ch32v10x_usart.c:105
*                  USART_InitStruct: pointer to a USART_InitTypeDef structure
*      that contains the configuration information for the specified USART peripheral. 
* Return         : None
*******************************************************************************/
void USART_Init(USART_TypeDef* USARTx, USART_InitTypeDef* USART_InitStruct)
{
    2182:	715d                	addi	sp,sp,-80
    2184:	c686                	sw	ra,76(sp)
    2186:	c4a2                	sw	s0,72(sp)
    2188:	0880                	addi	s0,sp,80
    218a:	faa42e23          	sw	a0,-68(s0)
    218e:	fab42c23          	sw	a1,-72(s0)
C:\Users\山东张\Desktop\新建文件夹\新建文件夹 (2)\SLAVE527\SLAVE-hui\obj/../Libraries/wch_libraries/Peripheral/ch32v10x_usart.c:106
  uint32_t tmpreg = 0x00, apbclock = 0x00;
    2192:	fe042623          	sw	zero,-20(s0)
    2196:	fe042423          	sw	zero,-24(s0)
C:\Users\山东张\Desktop\新建文件夹\新建文件夹 (2)\SLAVE527\SLAVE-hui\obj/../Libraries/wch_libraries/Peripheral/ch32v10x_usart.c:107
  uint32_t integerdivider = 0x00;
    219a:	fe042223          	sw	zero,-28(s0)
C:\Users\山东张\Desktop\新建文件夹\新建文件夹 (2)\SLAVE527\SLAVE-hui\obj/../Libraries/wch_libraries/Peripheral/ch32v10x_usart.c:108
  uint32_t fractionaldivider = 0x00;
    219e:	fe042023          	sw	zero,-32(s0)
C:\Users\山东张\Desktop\新建文件夹\新建文件夹 (2)\SLAVE527\SLAVE-hui\obj/../Libraries/wch_libraries/Peripheral/ch32v10x_usart.c:109
  uint32_t usartxbase = 0;
    21a2:	fc042e23          	sw	zero,-36(s0)
C:\Users\山东张\Desktop\新建文件夹\新建文件夹 (2)\SLAVE527\SLAVE-hui\obj/../Libraries/wch_libraries/Peripheral/ch32v10x_usart.c:116

  if (USART_InitStruct->USART_HardwareFlowControl != USART_HardwareFlowControl_None)
  {
  }

  usartxbase = (uint32_t)USARTx;
    21a6:	fbc42783          	lw	a5,-68(s0)
    21aa:	fcf42e23          	sw	a5,-36(s0)
C:\Users\山东张\Desktop\新建文件夹\新建文件夹 (2)\SLAVE527\SLAVE-hui\obj/../Libraries/wch_libraries/Peripheral/ch32v10x_usart.c:117
  tmpreg = USARTx->CTLR2;
    21ae:	fbc42783          	lw	a5,-68(s0)
    21b2:	0107d783          	lhu	a5,16(a5)
    21b6:	07c2                	slli	a5,a5,0x10
    21b8:	83c1                	srli	a5,a5,0x10
    21ba:	fef42623          	sw	a5,-20(s0)
C:\Users\山东张\Desktop\新建文件夹\新建文件夹 (2)\SLAVE527\SLAVE-hui\obj/../Libraries/wch_libraries/Peripheral/ch32v10x_usart.c:118
  tmpreg &= CTLR2_STOP_CLEAR_Mask;
    21be:	fec42703          	lw	a4,-20(s0)
    21c2:	67b5                	lui	a5,0xd
    21c4:	17fd                	addi	a5,a5,-1
    21c6:	8ff9                	and	a5,a5,a4
    21c8:	fef42623          	sw	a5,-20(s0)
C:\Users\山东张\Desktop\新建文件夹\新建文件夹 (2)\SLAVE527\SLAVE-hui\obj/../Libraries/wch_libraries/Peripheral/ch32v10x_usart.c:119
  tmpreg |= (uint32_t)USART_InitStruct->USART_StopBits;  
    21cc:	fb842783          	lw	a5,-72(s0)
    21d0:	0067d783          	lhu	a5,6(a5) # d006 <_data_lma+0x791a>
    21d4:	873e                	mv	a4,a5
    21d6:	fec42783          	lw	a5,-20(s0)
    21da:	8fd9                	or	a5,a5,a4
    21dc:	fef42623          	sw	a5,-20(s0)
C:\Users\山东张\Desktop\新建文件夹\新建文件夹 (2)\SLAVE527\SLAVE-hui\obj/../Libraries/wch_libraries/Peripheral/ch32v10x_usart.c:121
	
  USARTx->CTLR2 = (uint16_t)tmpreg;
    21e0:	fec42783          	lw	a5,-20(s0)
    21e4:	01079713          	slli	a4,a5,0x10
    21e8:	8341                	srli	a4,a4,0x10
    21ea:	fbc42783          	lw	a5,-68(s0)
    21ee:	00e79823          	sh	a4,16(a5)
C:\Users\山东张\Desktop\新建文件夹\新建文件夹 (2)\SLAVE527\SLAVE-hui\obj/../Libraries/wch_libraries/Peripheral/ch32v10x_usart.c:122
  tmpreg = USARTx->CTLR1;
    21f2:	fbc42783          	lw	a5,-68(s0)
    21f6:	00c7d783          	lhu	a5,12(a5)
    21fa:	07c2                	slli	a5,a5,0x10
    21fc:	83c1                	srli	a5,a5,0x10
    21fe:	fef42623          	sw	a5,-20(s0)
C:\Users\山东张\Desktop\新建文件夹\新建文件夹 (2)\SLAVE527\SLAVE-hui\obj/../Libraries/wch_libraries/Peripheral/ch32v10x_usart.c:123
  tmpreg &= CTLR1_CLEAR_Mask;
    2202:	fec42703          	lw	a4,-20(s0)
    2206:	67bd                	lui	a5,0xf
    2208:	9f378793          	addi	a5,a5,-1549 # e9f3 <_data_lma+0x9307>
    220c:	8ff9                	and	a5,a5,a4
    220e:	fef42623          	sw	a5,-20(s0)
C:\Users\山东张\Desktop\新建文件夹\新建文件夹 (2)\SLAVE527\SLAVE-hui\obj/../Libraries/wch_libraries/Peripheral/ch32v10x_usart.c:124
  tmpreg |= (uint32_t)USART_InitStruct->USART_WordLength | USART_InitStruct->USART_Parity |
    2212:	fb842783          	lw	a5,-72(s0)
    2216:	0047d703          	lhu	a4,4(a5)
    221a:	fb842783          	lw	a5,-72(s0)
    221e:	0087d783          	lhu	a5,8(a5)
    2222:	8fd9                	or	a5,a5,a4
    2224:	01079713          	slli	a4,a5,0x10
    2228:	8341                	srli	a4,a4,0x10
C:\Users\山东张\Desktop\新建文件夹\新建文件夹 (2)\SLAVE527\SLAVE-hui\obj/../Libraries/wch_libraries/Peripheral/ch32v10x_usart.c:125
            USART_InitStruct->USART_Mode;
    222a:	fb842783          	lw	a5,-72(s0)
    222e:	00a7d783          	lhu	a5,10(a5)
C:\Users\山东张\Desktop\新建文件夹\新建文件夹 (2)\SLAVE527\SLAVE-hui\obj/../Libraries/wch_libraries/Peripheral/ch32v10x_usart.c:124
  tmpreg |= (uint32_t)USART_InitStruct->USART_WordLength | USART_InitStruct->USART_Parity |
    2232:	8fd9                	or	a5,a5,a4
    2234:	07c2                	slli	a5,a5,0x10
    2236:	83c1                	srli	a5,a5,0x10
    2238:	873e                	mv	a4,a5
    223a:	fec42783          	lw	a5,-20(s0)
    223e:	8fd9                	or	a5,a5,a4
    2240:	fef42623          	sw	a5,-20(s0)
C:\Users\山东张\Desktop\新建文件夹\新建文件夹 (2)\SLAVE527\SLAVE-hui\obj/../Libraries/wch_libraries/Peripheral/ch32v10x_usart.c:126
  USARTx->CTLR1 = (uint16_t)tmpreg;
    2244:	fec42783          	lw	a5,-20(s0)
    2248:	01079713          	slli	a4,a5,0x10
    224c:	8341                	srli	a4,a4,0x10
    224e:	fbc42783          	lw	a5,-68(s0)
    2252:	00e79623          	sh	a4,12(a5)
C:\Users\山东张\Desktop\新建文件夹\新建文件夹 (2)\SLAVE527\SLAVE-hui\obj/../Libraries/wch_libraries/Peripheral/ch32v10x_usart.c:128
 
  tmpreg = USARTx->CTLR3;
    2256:	fbc42783          	lw	a5,-68(s0)
    225a:	0147d783          	lhu	a5,20(a5)
    225e:	07c2                	slli	a5,a5,0x10
    2260:	83c1                	srli	a5,a5,0x10
    2262:	fef42623          	sw	a5,-20(s0)
C:\Users\山东张\Desktop\新建文件夹\新建文件夹 (2)\SLAVE527\SLAVE-hui\obj/../Libraries/wch_libraries/Peripheral/ch32v10x_usart.c:129
  tmpreg &= CTLR3_CLEAR_Mask;
    2266:	fec42703          	lw	a4,-20(s0)
    226a:	67c1                	lui	a5,0x10
    226c:	cff78793          	addi	a5,a5,-769 # fcff <_data_lma+0xa613>
    2270:	8ff9                	and	a5,a5,a4
    2272:	fef42623          	sw	a5,-20(s0)
C:\Users\山东张\Desktop\新建文件夹\新建文件夹 (2)\SLAVE527\SLAVE-hui\obj/../Libraries/wch_libraries/Peripheral/ch32v10x_usart.c:130
  tmpreg |= USART_InitStruct->USART_HardwareFlowControl;
    2276:	fb842783          	lw	a5,-72(s0)
    227a:	00c7d783          	lhu	a5,12(a5)
    227e:	873e                	mv	a4,a5
    2280:	fec42783          	lw	a5,-20(s0)
    2284:	8fd9                	or	a5,a5,a4
    2286:	fef42623          	sw	a5,-20(s0)
C:\Users\山东张\Desktop\新建文件夹\新建文件夹 (2)\SLAVE527\SLAVE-hui\obj/../Libraries/wch_libraries/Peripheral/ch32v10x_usart.c:131
  USARTx->CTLR3 = (uint16_t)tmpreg;
    228a:	fec42783          	lw	a5,-20(s0)
    228e:	01079713          	slli	a4,a5,0x10
    2292:	8341                	srli	a4,a4,0x10
    2294:	fbc42783          	lw	a5,-68(s0)
    2298:	00e79a23          	sh	a4,20(a5)
C:\Users\山东张\Desktop\新建文件夹\新建文件夹 (2)\SLAVE527\SLAVE-hui\obj/../Libraries/wch_libraries/Peripheral/ch32v10x_usart.c:133

  RCC_GetClocksFreq(&RCC_ClocksStatus);
    229c:	fc840793          	addi	a5,s0,-56
    22a0:	853e                	mv	a0,a5
    22a2:	e0eff0ef          	jal	ra,18b0 <RCC_GetClocksFreq>
C:\Users\山东张\Desktop\新建文件夹\新建文件夹 (2)\SLAVE527\SLAVE-hui\obj/../Libraries/wch_libraries/Peripheral/ch32v10x_usart.c:135
	
  if (usartxbase == USART1_BASE)
    22a6:	fdc42703          	lw	a4,-36(s0)
    22aa:	400147b7          	lui	a5,0x40014
    22ae:	80078793          	addi	a5,a5,-2048 # 40013800 <_eusrstack+0x2000e800>
    22b2:	00f71763          	bne	a4,a5,22c0 <USART_Init+0x13e>
C:\Users\山东张\Desktop\新建文件夹\新建文件夹 (2)\SLAVE527\SLAVE-hui\obj/../Libraries/wch_libraries/Peripheral/ch32v10x_usart.c:137
  {
    apbclock = RCC_ClocksStatus.PCLK2_Frequency;
    22b6:	fd442783          	lw	a5,-44(s0)
    22ba:	fef42423          	sw	a5,-24(s0)
    22be:	a029                	j	22c8 <USART_Init+0x146>
C:\Users\山东张\Desktop\新建文件夹\新建文件夹 (2)\SLAVE527\SLAVE-hui\obj/../Libraries/wch_libraries/Peripheral/ch32v10x_usart.c:141
  }
  else
  {
    apbclock = RCC_ClocksStatus.PCLK1_Frequency;
    22c0:	fd042783          	lw	a5,-48(s0)
    22c4:	fef42423          	sw	a5,-24(s0)
C:\Users\山东张\Desktop\新建文件夹\新建文件夹 (2)\SLAVE527\SLAVE-hui\obj/../Libraries/wch_libraries/Peripheral/ch32v10x_usart.c:144
  }
  
  if ((USARTx->CTLR1 & CTLR1_OVER8_Set) != 0)
    22c8:	fbc42783          	lw	a5,-68(s0)
    22cc:	00c7d783          	lhu	a5,12(a5)
    22d0:	07c2                	slli	a5,a5,0x10
    22d2:	83c1                	srli	a5,a5,0x10
    22d4:	07c2                	slli	a5,a5,0x10
    22d6:	87c1                	srai	a5,a5,0x10
    22d8:	0207d263          	bgez	a5,22fc <USART_Init+0x17a>
C:\Users\山东张\Desktop\新建文件夹\新建文件夹 (2)\SLAVE527\SLAVE-hui\obj/../Libraries/wch_libraries/Peripheral/ch32v10x_usart.c:146
  {
    integerdivider = ((25 * apbclock) / (2 * (USART_InitStruct->USART_BaudRate)));    
    22dc:	fe842703          	lw	a4,-24(s0)
    22e0:	87ba                	mv	a5,a4
    22e2:	0786                	slli	a5,a5,0x1
    22e4:	97ba                	add	a5,a5,a4
    22e6:	078e                	slli	a5,a5,0x3
    22e8:	973e                	add	a4,a4,a5
    22ea:	fb842783          	lw	a5,-72(s0)
    22ee:	439c                	lw	a5,0(a5)
    22f0:	0786                	slli	a5,a5,0x1
    22f2:	02f757b3          	divu	a5,a4,a5
    22f6:	fef42223          	sw	a5,-28(s0)
    22fa:	a005                	j	231a <USART_Init+0x198>
C:\Users\山东张\Desktop\新建文件夹\新建文件夹 (2)\SLAVE527\SLAVE-hui\obj/../Libraries/wch_libraries/Peripheral/ch32v10x_usart.c:150
  }
  else 
  {
    integerdivider = ((25 * apbclock) / (4 * (USART_InitStruct->USART_BaudRate)));    
    22fc:	fe842703          	lw	a4,-24(s0)
    2300:	87ba                	mv	a5,a4
    2302:	0786                	slli	a5,a5,0x1
    2304:	97ba                	add	a5,a5,a4
    2306:	078e                	slli	a5,a5,0x3
    2308:	973e                	add	a4,a4,a5
    230a:	fb842783          	lw	a5,-72(s0)
    230e:	439c                	lw	a5,0(a5)
    2310:	078a                	slli	a5,a5,0x2
    2312:	02f757b3          	divu	a5,a4,a5
    2316:	fef42223          	sw	a5,-28(s0)
C:\Users\山东张\Desktop\新建文件夹\新建文件夹 (2)\SLAVE527\SLAVE-hui\obj/../Libraries/wch_libraries/Peripheral/ch32v10x_usart.c:152
  }
  tmpreg = (integerdivider / 100) << 4;
    231a:	fe442703          	lw	a4,-28(s0)
    231e:	06400793          	li	a5,100
    2322:	02f757b3          	divu	a5,a4,a5
    2326:	0792                	slli	a5,a5,0x4
    2328:	fef42623          	sw	a5,-20(s0)
C:\Users\山东张\Desktop\新建文件夹\新建文件夹 (2)\SLAVE527\SLAVE-hui\obj/../Libraries/wch_libraries/Peripheral/ch32v10x_usart.c:154

  fractionaldivider = integerdivider - (100 * (tmpreg >> 4));
    232c:	fec42783          	lw	a5,-20(s0)
    2330:	0047d713          	srli	a4,a5,0x4
    2334:	06400793          	li	a5,100
    2338:	02f707b3          	mul	a5,a4,a5
    233c:	fe442703          	lw	a4,-28(s0)
    2340:	40f707b3          	sub	a5,a4,a5
    2344:	fef42023          	sw	a5,-32(s0)
C:\Users\山东张\Desktop\新建文件夹\新建文件夹 (2)\SLAVE527\SLAVE-hui\obj/../Libraries/wch_libraries/Peripheral/ch32v10x_usart.c:156

  if ((USARTx->CTLR1 & CTLR1_OVER8_Set) != 0)
    2348:	fbc42783          	lw	a5,-68(s0)
    234c:	00c7d783          	lhu	a5,12(a5)
    2350:	07c2                	slli	a5,a5,0x10
    2352:	83c1                	srli	a5,a5,0x10
    2354:	07c2                	slli	a5,a5,0x10
    2356:	87c1                	srai	a5,a5,0x10
    2358:	0207d263          	bgez	a5,237c <USART_Init+0x1fa>
C:\Users\山东张\Desktop\新建文件夹\新建文件夹 (2)\SLAVE527\SLAVE-hui\obj/../Libraries/wch_libraries/Peripheral/ch32v10x_usart.c:158
  {
    tmpreg |= ((((fractionaldivider * 8) + 50) / 100)) & ((uint8_t)0x07);
    235c:	fe042783          	lw	a5,-32(s0)
    2360:	078e                	slli	a5,a5,0x3
    2362:	03278713          	addi	a4,a5,50
    2366:	06400793          	li	a5,100
    236a:	02f757b3          	divu	a5,a4,a5
    236e:	8b9d                	andi	a5,a5,7
    2370:	fec42703          	lw	a4,-20(s0)
    2374:	8fd9                	or	a5,a5,a4
    2376:	fef42623          	sw	a5,-20(s0)
    237a:	a005                	j	239a <USART_Init+0x218>
C:\Users\山东张\Desktop\新建文件夹\新建文件夹 (2)\SLAVE527\SLAVE-hui\obj/../Libraries/wch_libraries/Peripheral/ch32v10x_usart.c:162
  }
  else 
  {
    tmpreg |= ((((fractionaldivider * 16) + 50) / 100)) & ((uint8_t)0x0F);
    237c:	fe042783          	lw	a5,-32(s0)
    2380:	0792                	slli	a5,a5,0x4
    2382:	03278713          	addi	a4,a5,50
    2386:	06400793          	li	a5,100
    238a:	02f757b3          	divu	a5,a4,a5
    238e:	8bbd                	andi	a5,a5,15
    2390:	fec42703          	lw	a4,-20(s0)
    2394:	8fd9                	or	a5,a5,a4
    2396:	fef42623          	sw	a5,-20(s0)
C:\Users\山东张\Desktop\新建文件夹\新建文件夹 (2)\SLAVE527\SLAVE-hui\obj/../Libraries/wch_libraries/Peripheral/ch32v10x_usart.c:165
  }
  
  USARTx->BRR = (uint16_t)tmpreg;
    239a:	fec42783          	lw	a5,-20(s0)
    239e:	01079713          	slli	a4,a5,0x10
    23a2:	8341                	srli	a4,a4,0x10
    23a4:	fbc42783          	lw	a5,-68(s0)
    23a8:	00e79423          	sh	a4,8(a5)
C:\Users\山东张\Desktop\新建文件夹\新建文件夹 (2)\SLAVE527\SLAVE-hui\obj/../Libraries/wch_libraries/Peripheral/ch32v10x_usart.c:166
}
    23ac:	0001                	nop
    23ae:	40b6                	lw	ra,76(sp)
    23b0:	4426                	lw	s0,72(sp)
    23b2:	6161                	addi	sp,sp,80
    23b4:	8082                	ret

000023b6 <USART_Cmd>:
USART_Cmd():
C:\Users\山东张\Desktop\新建文件夹\新建文件夹 (2)\SLAVE527\SLAVE-hui\obj/../Libraries/wch_libraries/Peripheral/ch32v10x_usart.c:229
* Input          : USARTx: where x can be 1, 2, 3 to select the USART peripheral.
*                  NewState: ENABLE or DISABLE.
* Return         : None
*******************************************************************************/
void USART_Cmd(USART_TypeDef* USARTx, FunctionalState NewState)
{
    23b6:	1101                	addi	sp,sp,-32
    23b8:	ce22                	sw	s0,28(sp)
    23ba:	1000                	addi	s0,sp,32
    23bc:	fea42623          	sw	a0,-20(s0)
    23c0:	feb42423          	sw	a1,-24(s0)
C:\Users\山东张\Desktop\新建文件夹\新建文件夹 (2)\SLAVE527\SLAVE-hui\obj/../Libraries/wch_libraries/Peripheral/ch32v10x_usart.c:230
  if (NewState != DISABLE)
    23c4:	fe842783          	lw	a5,-24(s0)
    23c8:	c395                	beqz	a5,23ec <USART_Cmd+0x36>
C:\Users\山东张\Desktop\新建文件夹\新建文件夹 (2)\SLAVE527\SLAVE-hui\obj/../Libraries/wch_libraries/Peripheral/ch32v10x_usart.c:232
  {
    USARTx->CTLR1 |= CTLR1_UE_Set;
    23ca:	fec42783          	lw	a5,-20(s0)
    23ce:	00c7d783          	lhu	a5,12(a5)
    23d2:	01079713          	slli	a4,a5,0x10
    23d6:	8341                	srli	a4,a4,0x10
    23d8:	6789                	lui	a5,0x2
    23da:	8fd9                	or	a5,a5,a4
    23dc:	01079713          	slli	a4,a5,0x10
    23e0:	8341                	srli	a4,a4,0x10
    23e2:	fec42783          	lw	a5,-20(s0)
    23e6:	00e79623          	sh	a4,12(a5) # 200c <TIM_EncoderInterfaceConfig+0xae>
C:\Users\山东张\Desktop\新建文件夹\新建文件夹 (2)\SLAVE527\SLAVE-hui\obj/../Libraries/wch_libraries/Peripheral/ch32v10x_usart.c:238
  }
  else
  {
    USARTx->CTLR1 &= CTLR1_UE_Reset;
  }
}
    23ea:	a015                	j	240e <USART_Cmd+0x58>
C:\Users\山东张\Desktop\新建文件夹\新建文件夹 (2)\SLAVE527\SLAVE-hui\obj/../Libraries/wch_libraries/Peripheral/ch32v10x_usart.c:236
    USARTx->CTLR1 &= CTLR1_UE_Reset;
    23ec:	fec42783          	lw	a5,-20(s0)
    23f0:	00c7d783          	lhu	a5,12(a5)
    23f4:	01079713          	slli	a4,a5,0x10
    23f8:	8341                	srli	a4,a4,0x10
    23fa:	77f9                	lui	a5,0xffffe
    23fc:	17fd                	addi	a5,a5,-1
    23fe:	8ff9                	and	a5,a5,a4
    2400:	01079713          	slli	a4,a5,0x10
    2404:	8341                	srli	a4,a4,0x10
    2406:	fec42783          	lw	a5,-20(s0)
    240a:	00e79623          	sh	a4,12(a5) # ffffe00c <_eusrstack+0xdfff900c>
C:\Users\山东张\Desktop\新建文件夹\新建文件夹 (2)\SLAVE527\SLAVE-hui\obj/../Libraries/wch_libraries/Peripheral/ch32v10x_usart.c:238
}
    240e:	0001                	nop
    2410:	4472                	lw	s0,28(sp)
    2412:	6105                	addi	sp,sp,32
    2414:	8082                	ret

00002416 <USART_ITConfig>:
USART_ITConfig():
C:\Users\山东张\Desktop\新建文件夹\新建文件夹 (2)\SLAVE527\SLAVE-hui\obj/../Libraries/wch_libraries/Peripheral/ch32v10x_usart.c:257
*                    USART_IT_ERR:  Error interrupt.
*                  NewState: ENABLE or DISABLE.
* Return         : None
*******************************************************************************/
void USART_ITConfig(USART_TypeDef* USARTx, uint16_t USART_IT, FunctionalState NewState)
{
    2416:	7179                	addi	sp,sp,-48
    2418:	d622                	sw	s0,44(sp)
    241a:	1800                	addi	s0,sp,48
    241c:	fca42e23          	sw	a0,-36(s0)
    2420:	87ae                	mv	a5,a1
    2422:	fcc42a23          	sw	a2,-44(s0)
    2426:	fcf41d23          	sh	a5,-38(s0)
C:\Users\山东张\Desktop\新建文件夹\新建文件夹 (2)\SLAVE527\SLAVE-hui\obj/../Libraries/wch_libraries/Peripheral/ch32v10x_usart.c:258
  uint32_t usartreg = 0x00, itpos = 0x00, itmask = 0x00;
    242a:	fe042423          	sw	zero,-24(s0)
    242e:	fe042223          	sw	zero,-28(s0)
    2432:	fe042023          	sw	zero,-32(s0)
C:\Users\山东张\Desktop\新建文件夹\新建文件夹 (2)\SLAVE527\SLAVE-hui\obj/../Libraries/wch_libraries/Peripheral/ch32v10x_usart.c:259
  uint32_t usartxbase = 0x00;
    2436:	fe042623          	sw	zero,-20(s0)
C:\Users\山东张\Desktop\新建文件夹\新建文件夹 (2)\SLAVE527\SLAVE-hui\obj/../Libraries/wch_libraries/Peripheral/ch32v10x_usart.c:265

  if (USART_IT == USART_IT_CTS)
  {
  }   
  
  usartxbase = (uint32_t)USARTx;
    243a:	fdc42783          	lw	a5,-36(s0)
    243e:	fef42623          	sw	a5,-20(s0)
C:\Users\山东张\Desktop\新建文件夹\新建文件夹 (2)\SLAVE527\SLAVE-hui\obj/../Libraries/wch_libraries/Peripheral/ch32v10x_usart.c:266
  usartreg = (((uint8_t)USART_IT) >> 0x05);
    2442:	fda45783          	lhu	a5,-38(s0)
    2446:	0ff7f793          	andi	a5,a5,255
    244a:	8395                	srli	a5,a5,0x5
    244c:	0ff7f793          	andi	a5,a5,255
    2450:	fef42423          	sw	a5,-24(s0)
C:\Users\山东张\Desktop\新建文件夹\新建文件夹 (2)\SLAVE527\SLAVE-hui\obj/../Libraries/wch_libraries/Peripheral/ch32v10x_usart.c:267
  itpos = USART_IT & IT_Mask;
    2454:	fda45783          	lhu	a5,-38(s0)
    2458:	8bfd                	andi	a5,a5,31
    245a:	fef42223          	sw	a5,-28(s0)
C:\Users\山东张\Desktop\新建文件夹\新建文件夹 (2)\SLAVE527\SLAVE-hui\obj/../Libraries/wch_libraries/Peripheral/ch32v10x_usart.c:268
  itmask = (((uint32_t)0x01) << itpos);
    245e:	fe442783          	lw	a5,-28(s0)
    2462:	4705                	li	a4,1
    2464:	00f717b3          	sll	a5,a4,a5
    2468:	fef42023          	sw	a5,-32(s0)
C:\Users\山东张\Desktop\新建文件夹\新建文件夹 (2)\SLAVE527\SLAVE-hui\obj/../Libraries/wch_libraries/Peripheral/ch32v10x_usart.c:270
    
  if (usartreg == 0x01) 
    246c:	fe842703          	lw	a4,-24(s0)
    2470:	4785                	li	a5,1
    2472:	00f71863          	bne	a4,a5,2482 <USART_ITConfig+0x6c>
C:\Users\山东张\Desktop\新建文件夹\新建文件夹 (2)\SLAVE527\SLAVE-hui\obj/../Libraries/wch_libraries/Peripheral/ch32v10x_usart.c:272
  {
    usartxbase += 0x0C;
    2476:	fec42783          	lw	a5,-20(s0)
    247a:	07b1                	addi	a5,a5,12
    247c:	fef42623          	sw	a5,-20(s0)
    2480:	a00d                	j	24a2 <USART_ITConfig+0x8c>
C:\Users\山东张\Desktop\新建文件夹\新建文件夹 (2)\SLAVE527\SLAVE-hui\obj/../Libraries/wch_libraries/Peripheral/ch32v10x_usart.c:274
  }
  else if (usartreg == 0x02) 
    2482:	fe842703          	lw	a4,-24(s0)
    2486:	4789                	li	a5,2
    2488:	00f71863          	bne	a4,a5,2498 <USART_ITConfig+0x82>
C:\Users\山东张\Desktop\新建文件夹\新建文件夹 (2)\SLAVE527\SLAVE-hui\obj/../Libraries/wch_libraries/Peripheral/ch32v10x_usart.c:276
  {
    usartxbase += 0x10;
    248c:	fec42783          	lw	a5,-20(s0)
    2490:	07c1                	addi	a5,a5,16
    2492:	fef42623          	sw	a5,-20(s0)
    2496:	a031                	j	24a2 <USART_ITConfig+0x8c>
C:\Users\山东张\Desktop\新建文件夹\新建文件夹 (2)\SLAVE527\SLAVE-hui\obj/../Libraries/wch_libraries/Peripheral/ch32v10x_usart.c:280
  }
  else 
  {
    usartxbase += 0x14; 
    2498:	fec42783          	lw	a5,-20(s0)
    249c:	07d1                	addi	a5,a5,20
    249e:	fef42623          	sw	a5,-20(s0)
C:\Users\山东张\Desktop\新建文件夹\新建文件夹 (2)\SLAVE527\SLAVE-hui\obj/../Libraries/wch_libraries/Peripheral/ch32v10x_usart.c:283
  }
	
  if (NewState != DISABLE)
    24a2:	fd442783          	lw	a5,-44(s0)
    24a6:	cb99                	beqz	a5,24bc <USART_ITConfig+0xa6>
C:\Users\山东张\Desktop\新建文件夹\新建文件夹 (2)\SLAVE527\SLAVE-hui\obj/../Libraries/wch_libraries/Peripheral/ch32v10x_usart.c:285
  {
    *(__IO uint32_t*)usartxbase  |= itmask;
    24a8:	fec42783          	lw	a5,-20(s0)
    24ac:	4394                	lw	a3,0(a5)
    24ae:	fec42783          	lw	a5,-20(s0)
    24b2:	fe042703          	lw	a4,-32(s0)
    24b6:	8f55                	or	a4,a4,a3
    24b8:	c398                	sw	a4,0(a5)
C:\Users\山东张\Desktop\新建文件夹\新建文件夹 (2)\SLAVE527\SLAVE-hui\obj/../Libraries/wch_libraries/Peripheral/ch32v10x_usart.c:291
  }
  else
  {
    *(__IO uint32_t*)usartxbase &= ~itmask;
  }
}
    24ba:	a821                	j	24d2 <USART_ITConfig+0xbc>
C:\Users\山东张\Desktop\新建文件夹\新建文件夹 (2)\SLAVE527\SLAVE-hui\obj/../Libraries/wch_libraries/Peripheral/ch32v10x_usart.c:289
    *(__IO uint32_t*)usartxbase &= ~itmask;
    24bc:	fec42783          	lw	a5,-20(s0)
    24c0:	4394                	lw	a3,0(a5)
    24c2:	fe042783          	lw	a5,-32(s0)
    24c6:	fff7c713          	not	a4,a5
    24ca:	fec42783          	lw	a5,-20(s0)
    24ce:	8f75                	and	a4,a4,a3
    24d0:	c398                	sw	a4,0(a5)
C:\Users\山东张\Desktop\新建文件夹\新建文件夹 (2)\SLAVE527\SLAVE-hui\obj/../Libraries/wch_libraries/Peripheral/ch32v10x_usart.c:291
}
    24d2:	0001                	nop
    24d4:	5432                	lw	s0,44(sp)
    24d6:	6145                	addi	sp,sp,48
    24d8:	8082                	ret

000024da <USART_SendData>:
USART_SendData():
C:\Users\山东张\Desktop\新建文件夹\新建文件夹 (2)\SLAVE527\SLAVE-hui\obj/../Libraries/wch_libraries/Peripheral/ch32v10x_usart.c:404
* Input          : USARTx: where x can be 1, 2, 3 to select the USART peripheral.
*                  Data: the data to transmit..
* Return         : None
*******************************************************************************/
void USART_SendData(USART_TypeDef* USARTx, uint16_t Data)
{
    24da:	1101                	addi	sp,sp,-32
    24dc:	ce22                	sw	s0,28(sp)
    24de:	1000                	addi	s0,sp,32
    24e0:	fea42623          	sw	a0,-20(s0)
    24e4:	87ae                	mv	a5,a1
    24e6:	fef41523          	sh	a5,-22(s0)
C:\Users\山东张\Desktop\新建文件夹\新建文件夹 (2)\SLAVE527\SLAVE-hui\obj/../Libraries/wch_libraries/Peripheral/ch32v10x_usart.c:405
  USARTx->DATAR = (Data & (uint16_t)0x01FF);
    24ea:	fea45783          	lhu	a5,-22(s0)
    24ee:	1ff7f793          	andi	a5,a5,511
    24f2:	01079713          	slli	a4,a5,0x10
    24f6:	8341                	srli	a4,a4,0x10
    24f8:	fec42783          	lw	a5,-20(s0)
    24fc:	00e79223          	sh	a4,4(a5)
C:\Users\山东张\Desktop\新建文件夹\新建文件夹 (2)\SLAVE527\SLAVE-hui\obj/../Libraries/wch_libraries/Peripheral/ch32v10x_usart.c:406
}
    2500:	0001                	nop
    2502:	4472                	lw	s0,28(sp)
    2504:	6105                	addi	sp,sp,32
    2506:	8082                	ret

00002508 <USART_GetFlagStatus>:
USART_GetFlagStatus():
C:\Users\山东张\Desktop\新建文件夹\新建文件夹 (2)\SLAVE527\SLAVE-hui\obj/../Libraries/wch_libraries/Peripheral/ch32v10x_usart.c:603
*                    USART_FLAG_FE: Framing Error flag.
*                    USART_FLAG_PE: Parity Error flag.
* Return         : bitstatus: SET or RESET.
*******************************************************************************/
FlagStatus USART_GetFlagStatus(USART_TypeDef* USARTx, uint16_t USART_FLAG)
{
    2508:	7179                	addi	sp,sp,-48
    250a:	d622                	sw	s0,44(sp)
    250c:	1800                	addi	s0,sp,48
    250e:	fca42e23          	sw	a0,-36(s0)
    2512:	87ae                	mv	a5,a1
    2514:	fcf41d23          	sh	a5,-38(s0)
C:\Users\山东张\Desktop\新建文件夹\新建文件夹 (2)\SLAVE527\SLAVE-hui\obj/../Libraries/wch_libraries/Peripheral/ch32v10x_usart.c:604
  FlagStatus bitstatus = RESET;
    2518:	fe042623          	sw	zero,-20(s0)
C:\Users\山东张\Desktop\新建文件夹\新建文件夹 (2)\SLAVE527\SLAVE-hui\obj/../Libraries/wch_libraries/Peripheral/ch32v10x_usart.c:610

  if (USART_FLAG == USART_FLAG_CTS)
  {
  }  
  
  if ((USARTx->STATR & USART_FLAG) != (uint16_t)RESET)
    251c:	fdc42783          	lw	a5,-36(s0)
    2520:	0007d783          	lhu	a5,0(a5)
    2524:	01079713          	slli	a4,a5,0x10
    2528:	8341                	srli	a4,a4,0x10
    252a:	fda45783          	lhu	a5,-38(s0)
    252e:	8ff9                	and	a5,a5,a4
    2530:	07c2                	slli	a5,a5,0x10
    2532:	83c1                	srli	a5,a5,0x10
    2534:	c789                	beqz	a5,253e <USART_GetFlagStatus+0x36>
C:\Users\山东张\Desktop\新建文件夹\新建文件夹 (2)\SLAVE527\SLAVE-hui\obj/../Libraries/wch_libraries/Peripheral/ch32v10x_usart.c:612
  {
    bitstatus = SET;
    2536:	4785                	li	a5,1
    2538:	fef42623          	sw	a5,-20(s0)
    253c:	a019                	j	2542 <USART_GetFlagStatus+0x3a>
C:\Users\山东张\Desktop\新建文件夹\新建文件夹 (2)\SLAVE527\SLAVE-hui\obj/../Libraries/wch_libraries/Peripheral/ch32v10x_usart.c:616
  }
  else
  {
    bitstatus = RESET;
    253e:	fe042623          	sw	zero,-20(s0)
C:\Users\山东张\Desktop\新建文件夹\新建文件夹 (2)\SLAVE527\SLAVE-hui\obj/../Libraries/wch_libraries/Peripheral/ch32v10x_usart.c:618
  }
  return bitstatus;
    2542:	fec42783          	lw	a5,-20(s0)
C:\Users\山东张\Desktop\新建文件夹\新建文件夹 (2)\SLAVE527\SLAVE-hui\obj/../Libraries/wch_libraries/Peripheral/ch32v10x_usart.c:619
}
    2546:	853e                	mv	a0,a5
    2548:	5432                	lw	s0,44(sp)
    254a:	6145                	addi	sp,sp,48
    254c:	8082                	ret

0000254e <USART_GetITStatus>:
USART_GetITStatus():
C:\Users\山东张\Desktop\新建文件夹\新建文件夹 (2)\SLAVE527\SLAVE-hui\obj/../Libraries/wch_libraries/Peripheral/ch32v10x_usart.c:660
*                    USART_IT_FE: Framing Error interrupt.
*                    USART_IT_PE: Parity Error interrupt.
* Return         : bitstatus: SET or RESET.
*******************************************************************************/
ITStatus USART_GetITStatus(USART_TypeDef* USARTx, uint16_t USART_IT)
{
    254e:	7179                	addi	sp,sp,-48
    2550:	d622                	sw	s0,44(sp)
    2552:	1800                	addi	s0,sp,48
    2554:	fca42e23          	sw	a0,-36(s0)
    2558:	87ae                	mv	a5,a1
    255a:	fcf41d23          	sh	a5,-38(s0)
C:\Users\山东张\Desktop\新建文件夹\新建文件夹 (2)\SLAVE527\SLAVE-hui\obj/../Libraries/wch_libraries/Peripheral/ch32v10x_usart.c:661
  uint32_t bitpos = 0x00, itmask = 0x00, usartreg = 0x00;
    255e:	fe042223          	sw	zero,-28(s0)
    2562:	fe042623          	sw	zero,-20(s0)
    2566:	fe042023          	sw	zero,-32(s0)
C:\Users\山东张\Desktop\新建文件夹\新建文件夹 (2)\SLAVE527\SLAVE-hui\obj/../Libraries/wch_libraries/Peripheral/ch32v10x_usart.c:662
  ITStatus bitstatus = RESET;
    256a:	fe042423          	sw	zero,-24(s0)
C:\Users\山东张\Desktop\新建文件夹\新建文件夹 (2)\SLAVE527\SLAVE-hui\obj/../Libraries/wch_libraries/Peripheral/ch32v10x_usart.c:668

  if (USART_IT == USART_IT_CTS)
  {
  }   
  
  usartreg = (((uint8_t)USART_IT) >> 0x05);
    256e:	fda45783          	lhu	a5,-38(s0)
    2572:	0ff7f793          	andi	a5,a5,255
    2576:	8395                	srli	a5,a5,0x5
    2578:	0ff7f793          	andi	a5,a5,255
    257c:	fef42023          	sw	a5,-32(s0)
C:\Users\山东张\Desktop\新建文件夹\新建文件夹 (2)\SLAVE527\SLAVE-hui\obj/../Libraries/wch_libraries/Peripheral/ch32v10x_usart.c:669
  itmask = USART_IT & IT_Mask;
    2580:	fda45783          	lhu	a5,-38(s0)
    2584:	8bfd                	andi	a5,a5,31
    2586:	fef42623          	sw	a5,-20(s0)
C:\Users\山东张\Desktop\新建文件夹\新建文件夹 (2)\SLAVE527\SLAVE-hui\obj/../Libraries/wch_libraries/Peripheral/ch32v10x_usart.c:670
  itmask = (uint32_t)0x01 << itmask;
    258a:	fec42783          	lw	a5,-20(s0)
    258e:	4705                	li	a4,1
    2590:	00f717b3          	sll	a5,a4,a5
    2594:	fef42623          	sw	a5,-20(s0)
C:\Users\山东张\Desktop\新建文件夹\新建文件夹 (2)\SLAVE527\SLAVE-hui\obj/../Libraries/wch_libraries/Peripheral/ch32v10x_usart.c:672
  
  if (usartreg == 0x01) 
    2598:	fe042703          	lw	a4,-32(s0)
    259c:	4785                	li	a5,1
    259e:	00f71f63          	bne	a4,a5,25bc <USART_GetITStatus+0x6e>
C:\Users\山东张\Desktop\新建文件夹\新建文件夹 (2)\SLAVE527\SLAVE-hui\obj/../Libraries/wch_libraries/Peripheral/ch32v10x_usart.c:674
  {
    itmask &= USARTx->CTLR1;
    25a2:	fdc42783          	lw	a5,-36(s0)
    25a6:	00c7d783          	lhu	a5,12(a5)
    25aa:	07c2                	slli	a5,a5,0x10
    25ac:	83c1                	srli	a5,a5,0x10
    25ae:	873e                	mv	a4,a5
    25b0:	fec42783          	lw	a5,-20(s0)
    25b4:	8ff9                	and	a5,a5,a4
    25b6:	fef42623          	sw	a5,-20(s0)
    25ba:	a83d                	j	25f8 <USART_GetITStatus+0xaa>
C:\Users\山东张\Desktop\新建文件夹\新建文件夹 (2)\SLAVE527\SLAVE-hui\obj/../Libraries/wch_libraries/Peripheral/ch32v10x_usart.c:676
  }
  else if (usartreg == 0x02) 
    25bc:	fe042703          	lw	a4,-32(s0)
    25c0:	4789                	li	a5,2
    25c2:	00f71f63          	bne	a4,a5,25e0 <USART_GetITStatus+0x92>
C:\Users\山东张\Desktop\新建文件夹\新建文件夹 (2)\SLAVE527\SLAVE-hui\obj/../Libraries/wch_libraries/Peripheral/ch32v10x_usart.c:678
  {
    itmask &= USARTx->CTLR2;
    25c6:	fdc42783          	lw	a5,-36(s0)
    25ca:	0107d783          	lhu	a5,16(a5)
    25ce:	07c2                	slli	a5,a5,0x10
    25d0:	83c1                	srli	a5,a5,0x10
    25d2:	873e                	mv	a4,a5
    25d4:	fec42783          	lw	a5,-20(s0)
    25d8:	8ff9                	and	a5,a5,a4
    25da:	fef42623          	sw	a5,-20(s0)
    25de:	a829                	j	25f8 <USART_GetITStatus+0xaa>
C:\Users\山东张\Desktop\新建文件夹\新建文件夹 (2)\SLAVE527\SLAVE-hui\obj/../Libraries/wch_libraries/Peripheral/ch32v10x_usart.c:682
  }
  else 
  {
    itmask &= USARTx->CTLR3;
    25e0:	fdc42783          	lw	a5,-36(s0)
    25e4:	0147d783          	lhu	a5,20(a5)
    25e8:	07c2                	slli	a5,a5,0x10
    25ea:	83c1                	srli	a5,a5,0x10
    25ec:	873e                	mv	a4,a5
    25ee:	fec42783          	lw	a5,-20(s0)
    25f2:	8ff9                	and	a5,a5,a4
    25f4:	fef42623          	sw	a5,-20(s0)
C:\Users\山东张\Desktop\新建文件夹\新建文件夹 (2)\SLAVE527\SLAVE-hui\obj/../Libraries/wch_libraries/Peripheral/ch32v10x_usart.c:685
  }
  
  bitpos = USART_IT >> 0x08;
    25f8:	fda45783          	lhu	a5,-38(s0)
    25fc:	83a1                	srli	a5,a5,0x8
    25fe:	07c2                	slli	a5,a5,0x10
    2600:	83c1                	srli	a5,a5,0x10
    2602:	fef42223          	sw	a5,-28(s0)
C:\Users\山东张\Desktop\新建文件夹\新建文件夹 (2)\SLAVE527\SLAVE-hui\obj/../Libraries/wch_libraries/Peripheral/ch32v10x_usart.c:686
  bitpos = (uint32_t)0x01 << bitpos;
    2606:	fe442783          	lw	a5,-28(s0)
    260a:	4705                	li	a4,1
    260c:	00f717b3          	sll	a5,a4,a5
    2610:	fef42223          	sw	a5,-28(s0)
C:\Users\山东张\Desktop\新建文件夹\新建文件夹 (2)\SLAVE527\SLAVE-hui\obj/../Libraries/wch_libraries/Peripheral/ch32v10x_usart.c:687
  bitpos &= USARTx->STATR;
    2614:	fdc42783          	lw	a5,-36(s0)
    2618:	0007d783          	lhu	a5,0(a5)
    261c:	07c2                	slli	a5,a5,0x10
    261e:	83c1                	srli	a5,a5,0x10
    2620:	873e                	mv	a4,a5
    2622:	fe442783          	lw	a5,-28(s0)
    2626:	8ff9                	and	a5,a5,a4
    2628:	fef42223          	sw	a5,-28(s0)
C:\Users\山东张\Desktop\新建文件夹\新建文件夹 (2)\SLAVE527\SLAVE-hui\obj/../Libraries/wch_libraries/Peripheral/ch32v10x_usart.c:689
	
  if ((itmask != (uint16_t)RESET)&&(bitpos != (uint16_t)RESET))
    262c:	fec42783          	lw	a5,-20(s0)
    2630:	cb81                	beqz	a5,2640 <USART_GetITStatus+0xf2>
C:\Users\山东张\Desktop\新建文件夹\新建文件夹 (2)\SLAVE527\SLAVE-hui\obj/../Libraries/wch_libraries/Peripheral/ch32v10x_usart.c:689 (discriminator 1)
    2632:	fe442783          	lw	a5,-28(s0)
    2636:	c789                	beqz	a5,2640 <USART_GetITStatus+0xf2>
C:\Users\山东张\Desktop\新建文件夹\新建文件夹 (2)\SLAVE527\SLAVE-hui\obj/../Libraries/wch_libraries/Peripheral/ch32v10x_usart.c:691
  {
    bitstatus = SET;
    2638:	4785                	li	a5,1
    263a:	fef42423          	sw	a5,-24(s0)
    263e:	a019                	j	2644 <USART_GetITStatus+0xf6>
C:\Users\山东张\Desktop\新建文件夹\新建文件夹 (2)\SLAVE527\SLAVE-hui\obj/../Libraries/wch_libraries/Peripheral/ch32v10x_usart.c:695
  }
  else
  {
    bitstatus = RESET;
    2640:	fe042423          	sw	zero,-24(s0)
C:\Users\山东张\Desktop\新建文件夹\新建文件夹 (2)\SLAVE527\SLAVE-hui\obj/../Libraries/wch_libraries/Peripheral/ch32v10x_usart.c:698
  }
  
  return bitstatus;  
    2644:	fe842783          	lw	a5,-24(s0)
C:\Users\山东张\Desktop\新建文件夹\新建文件夹 (2)\SLAVE527\SLAVE-hui\obj/../Libraries/wch_libraries/Peripheral/ch32v10x_usart.c:699
}
    2648:	853e                	mv	a0,a5
    264a:	5432                	lw	s0,44(sp)
    264c:	6145                	addi	sp,sp,48
    264e:	8082                	ret

00002650 <USART_ClearITPendingBit>:
USART_ClearITPendingBit():
C:\Users\山东张\Desktop\新建文件夹\新建文件夹 (2)\SLAVE527\SLAVE-hui\obj/../Libraries/wch_libraries/Peripheral/ch32v10x_usart.c:713
*                    USART_IT_TC:   Transmission complete interrupt.
*                    USART_IT_RXNE: Receive Data register not empty interrupt.
* Return         : None
*******************************************************************************/
void USART_ClearITPendingBit(USART_TypeDef* USARTx, uint16_t USART_IT)
{
    2650:	7179                	addi	sp,sp,-48
    2652:	d622                	sw	s0,44(sp)
    2654:	1800                	addi	s0,sp,48
    2656:	fca42e23          	sw	a0,-36(s0)
    265a:	87ae                	mv	a5,a1
    265c:	fcf41d23          	sh	a5,-38(s0)
C:\Users\山东张\Desktop\新建文件夹\新建文件夹 (2)\SLAVE527\SLAVE-hui\obj/../Libraries/wch_libraries/Peripheral/ch32v10x_usart.c:714
  uint16_t bitpos = 0x00, itmask = 0x00;
    2660:	fe041723          	sh	zero,-18(s0)
    2664:	fe041623          	sh	zero,-20(s0)
C:\Users\山东张\Desktop\新建文件夹\新建文件夹 (2)\SLAVE527\SLAVE-hui\obj/../Libraries/wch_libraries/Peripheral/ch32v10x_usart.c:720

  if (USART_IT == USART_IT_CTS)
  {
  }   
  
  bitpos = USART_IT >> 0x08;
    2668:	fda45783          	lhu	a5,-38(s0)
    266c:	83a1                	srli	a5,a5,0x8
    266e:	fef41723          	sh	a5,-18(s0)
C:\Users\山东张\Desktop\新建文件夹\新建文件夹 (2)\SLAVE527\SLAVE-hui\obj/../Libraries/wch_libraries/Peripheral/ch32v10x_usart.c:721
  itmask = ((uint16_t)0x01 << (uint16_t)bitpos);
    2672:	fee45783          	lhu	a5,-18(s0)
    2676:	4705                	li	a4,1
    2678:	00f717b3          	sll	a5,a4,a5
    267c:	fef41623          	sh	a5,-20(s0)
C:\Users\山东张\Desktop\新建文件夹\新建文件夹 (2)\SLAVE527\SLAVE-hui\obj/../Libraries/wch_libraries/Peripheral/ch32v10x_usart.c:722
  USARTx->STATR = (uint16_t)~itmask;
    2680:	fec45783          	lhu	a5,-20(s0)
    2684:	fff7c793          	not	a5,a5
    2688:	01079713          	slli	a4,a5,0x10
    268c:	8341                	srli	a4,a4,0x10
    268e:	fdc42783          	lw	a5,-36(s0)
    2692:	00e79023          	sh	a4,0(a5)
C:\Users\山东张\Desktop\新建文件夹\新建文件夹 (2)\SLAVE527\SLAVE-hui\obj/../Libraries/wch_libraries/Peripheral/ch32v10x_usart.c:723
}
    2696:	0001                	nop
    2698:	5432                	lw	s0,44(sp)
    269a:	6145                	addi	sp,sp,48
    269c:	8082                	ret

0000269e <mt9v03x_uart_callback>:
mt9v03x_uart_callback():
C:\Users\山东张\Desktop\新建文件夹\新建文件夹 (2)\SLAVE527\SLAVE-hui\obj/../Libraries/seekfree_peripheral/SEEKFREE_MT9V03X.c:90
//  @since      v1.0
//  Sample usage:
//  @note       
//-------------------------------------------------------------------------------------------------------------------
void mt9v03x_uart_callback(void)
{
    269e:	1141                	addi	sp,sp,-16
    26a0:	c622                	sw	s0,12(sp)
    26a2:	0800                	addi	s0,sp,16
C:\Users\山东张\Desktop\新建文件夹\新建文件夹 (2)\SLAVE527\SLAVE-hui\obj/../Libraries/seekfree_peripheral/SEEKFREE_MT9V03X.c:91
    receive[receive_num] = ((USART_TypeDef*)UARTN[MT9V03X_COF_UART])->DATAR & 0x01FF;;
    26a4:	6795                	lui	a5,0x5
    26a6:	5e878793          	addi	a5,a5,1512 # 55e8 <UARTN>
    26aa:	43dc                	lw	a5,4(a5)
    26ac:	0047d783          	lhu	a5,4(a5)
    26b0:	01079713          	slli	a4,a5,0x10
    26b4:	8341                	srli	a4,a4,0x10
    26b6:	82b1c783          	lbu	a5,-2005(gp) # 200000e3 <receive_num>
    26ba:	86be                	mv	a3,a5
    26bc:	0ff77713          	andi	a4,a4,255
    26c0:	82818793          	addi	a5,gp,-2008 # 200000e0 <receive>
    26c4:	97b6                	add	a5,a5,a3
    26c6:	00e78023          	sb	a4,0(a5)
C:\Users\山东张\Desktop\新建文件夹\新建文件夹 (2)\SLAVE527\SLAVE-hui\obj/../Libraries/seekfree_peripheral/SEEKFREE_MT9V03X.c:92
    receive_num++;
    26ca:	82b1c783          	lbu	a5,-2005(gp) # 200000e3 <receive_num>
    26ce:	0785                	addi	a5,a5,1
    26d0:	0ff7f713          	andi	a4,a5,255
    26d4:	82e185a3          	sb	a4,-2005(gp) # 200000e3 <receive_num>
C:\Users\山东张\Desktop\新建文件夹\新建文件夹 (2)\SLAVE527\SLAVE-hui\obj/../Libraries/seekfree_peripheral/SEEKFREE_MT9V03X.c:94

    if(1==receive_num && 0XA5!=receive[0])  receive_num = 0;
    26d8:	82b1c703          	lbu	a4,-2005(gp) # 200000e3 <receive_num>
    26dc:	4785                	li	a5,1
    26de:	00f71a63          	bne	a4,a5,26f2 <mt9v03x_uart_callback+0x54>
C:\Users\山东张\Desktop\新建文件夹\新建文件夹 (2)\SLAVE527\SLAVE-hui\obj/../Libraries/seekfree_peripheral/SEEKFREE_MT9V03X.c:94 (discriminator 1)
    26e2:	8281c703          	lbu	a4,-2008(gp) # 200000e0 <receive>
    26e6:	0a500793          	li	a5,165
    26ea:	00f70463          	beq	a4,a5,26f2 <mt9v03x_uart_callback+0x54>
C:\Users\山东张\Desktop\新建文件夹\新建文件夹 (2)\SLAVE527\SLAVE-hui\obj/../Libraries/seekfree_peripheral/SEEKFREE_MT9V03X.c:94 (discriminator 2)
    26ee:	820185a3          	sb	zero,-2005(gp) # 200000e3 <receive_num>
C:\Users\山东张\Desktop\新建文件夹\新建文件夹 (2)\SLAVE527\SLAVE-hui\obj/../Libraries/seekfree_peripheral/SEEKFREE_MT9V03X.c:95
    if(3 == receive_num)
    26f2:	82b1c703          	lbu	a4,-2005(gp) # 200000e3 <receive_num>
    26f6:	478d                	li	a5,3
    26f8:	00f71763          	bne	a4,a5,2706 <mt9v03x_uart_callback+0x68>
C:\Users\山东张\Desktop\新建文件夹\新建文件夹 (2)\SLAVE527\SLAVE-hui\obj/../Libraries/seekfree_peripheral/SEEKFREE_MT9V03X.c:97
    {
        receive_num = 0;
    26fc:	820185a3          	sb	zero,-2005(gp) # 200000e3 <receive_num>
C:\Users\山东张\Desktop\新建文件夹\新建文件夹 (2)\SLAVE527\SLAVE-hui\obj/../Libraries/seekfree_peripheral/SEEKFREE_MT9V03X.c:98
        uart_receive_flag = 1;
    2700:	4705                	li	a4,1
    2702:	82e18623          	sb	a4,-2004(gp) # 200000e4 <uart_receive_flag>
C:\Users\山东张\Desktop\新建文件夹\新建文件夹 (2)\SLAVE527\SLAVE-hui\obj/../Libraries/seekfree_peripheral/SEEKFREE_MT9V03X.c:101
    }
    
}
    2706:	0001                	nop
    2708:	4432                	lw	s0,12(sp)
    270a:	0141                	addi	sp,sp,16
    270c:	8082                	ret

0000270e <set_config>:
set_config():
C:\Users\山东张\Desktop\新建文件夹\新建文件夹 (2)\SLAVE527\SLAVE-hui\obj/../Libraries/seekfree_peripheral/SEEKFREE_MT9V03X.c:114
//  @return     void
//  @since      v1.0
//  Sample usage:           调用该函数前请先初始化串口
//-------------------------------------------------------------------------------------------------------------------
void set_config(UARTN_enum uartn, int16 buff[CONFIG_FINISH-1][2])
{
    270e:	7179                	addi	sp,sp,-48
    2710:	d606                	sw	ra,44(sp)
    2712:	d422                	sw	s0,40(sp)
    2714:	d24a                	sw	s2,36(sp)
    2716:	d04e                	sw	s3,32(sp)
    2718:	1800                	addi	s0,sp,48
    271a:	fca42e23          	sw	a0,-36(s0)
    271e:	fcb42c23          	sw	a1,-40(s0)
C:\Users\山东张\Desktop\新建文件夹\新建文件夹 (2)\SLAVE527\SLAVE-hui\obj/../Libraries/seekfree_peripheral/SEEKFREE_MT9V03X.c:118
    uint16 temp, i;
    uint8  send_buffer[4];

    uart_receive_flag = 0;
    2722:	82018623          	sb	zero,-2004(gp) # 200000e4 <uart_receive_flag>
C:\Users\山东张\Desktop\新建文件夹\新建文件夹 (2)\SLAVE527\SLAVE-hui\obj/../Libraries/seekfree_peripheral/SEEKFREE_MT9V03X.c:122
    
    //设置参数  具体请参看问题锦集手册
    //开始配置摄像头并重新初始化
    for(i=0; i<CONFIG_FINISH; i++)
    2726:	fe041723          	sh	zero,-18(s0)
    272a:	a069                	j	27b4 <set_config+0xa6>
C:\Users\山东张\Desktop\新建文件夹\新建文件夹 (2)\SLAVE527\SLAVE-hui\obj/../Libraries/seekfree_peripheral/SEEKFREE_MT9V03X.c:124 (discriminator 3)
    {
        send_buffer[0] = 0xA5;
    272c:	fa500793          	li	a5,-91
    2730:	fef40423          	sb	a5,-24(s0)
C:\Users\山东张\Desktop\新建文件夹\新建文件夹 (2)\SLAVE527\SLAVE-hui\obj/../Libraries/seekfree_peripheral/SEEKFREE_MT9V03X.c:125 (discriminator 3)
        send_buffer[1] = buff[i][0];
    2734:	fee45783          	lhu	a5,-18(s0)
    2738:	078a                	slli	a5,a5,0x2
    273a:	fd842703          	lw	a4,-40(s0)
    273e:	97ba                	add	a5,a5,a4
    2740:	00079783          	lh	a5,0(a5)
    2744:	0ff7f793          	andi	a5,a5,255
    2748:	fef404a3          	sb	a5,-23(s0)
C:\Users\山东张\Desktop\新建文件夹\新建文件夹 (2)\SLAVE527\SLAVE-hui\obj/../Libraries/seekfree_peripheral/SEEKFREE_MT9V03X.c:126 (discriminator 3)
        temp = buff[i][1];
    274c:	fee45783          	lhu	a5,-18(s0)
    2750:	078a                	slli	a5,a5,0x2
    2752:	fd842703          	lw	a4,-40(s0)
    2756:	97ba                	add	a5,a5,a4
    2758:	00279783          	lh	a5,2(a5)
    275c:	fef41623          	sh	a5,-20(s0)
C:\Users\山东张\Desktop\新建文件夹\新建文件夹 (2)\SLAVE527\SLAVE-hui\obj/../Libraries/seekfree_peripheral/SEEKFREE_MT9V03X.c:127 (discriminator 3)
        send_buffer[2] = temp>>8;
    2760:	fec45783          	lhu	a5,-20(s0)
    2764:	83a1                	srli	a5,a5,0x8
    2766:	07c2                	slli	a5,a5,0x10
    2768:	83c1                	srli	a5,a5,0x10
    276a:	0ff7f793          	andi	a5,a5,255
    276e:	fef40523          	sb	a5,-22(s0)
C:\Users\山东张\Desktop\新建文件夹\新建文件夹 (2)\SLAVE527\SLAVE-hui\obj/../Libraries/seekfree_peripheral/SEEKFREE_MT9V03X.c:128 (discriminator 3)
        send_buffer[3] = (uint8)temp;
    2772:	fec45783          	lhu	a5,-20(s0)
    2776:	0ff7f793          	andi	a5,a5,255
    277a:	fef405a3          	sb	a5,-21(s0)
C:\Users\山东张\Desktop\新建文件夹\新建文件夹 (2)\SLAVE527\SLAVE-hui\obj/../Libraries/seekfree_peripheral/SEEKFREE_MT9V03X.c:130 (discriminator 3)
        
        uart_putbuff(uartn,send_buffer,4);
    277e:	fe840793          	addi	a5,s0,-24
    2782:	4611                	li	a2,4
    2784:	85be                	mv	a1,a5
    2786:	fdc42503          	lw	a0,-36(s0)
    278a:	236010ef          	jal	ra,39c0 <uart_putbuff>
C:\Users\山东张\Desktop\新建文件夹\新建文件夹 (2)\SLAVE527\SLAVE-hui\obj/../Libraries/seekfree_peripheral/SEEKFREE_MT9V03X.c:131 (discriminator 3)
        systick_delay_ms(2);
    278e:	8381a703          	lw	a4,-1992(gp) # 200000f0 <sys_clk>
    2792:	6789                	lui	a5,0x2
    2794:	f4078793          	addi	a5,a5,-192 # 1f40 <TIM_SelectInputTrigger+0x30>
    2798:	02f757b3          	divu	a5,a4,a5
    279c:	0786                	slli	a5,a5,0x1
    279e:	893e                	mv	s2,a5
    27a0:	4981                	li	s3,0
    27a2:	854a                	mv	a0,s2
    27a4:	85ce                	mv	a1,s3
    27a6:	741000ef          	jal	ra,36e6 <systick_delay>
C:\Users\山东张\Desktop\新建文件夹\新建文件夹 (2)\SLAVE527\SLAVE-hui\obj/../Libraries/seekfree_peripheral/SEEKFREE_MT9V03X.c:122 (discriminator 3)
    for(i=0; i<CONFIG_FINISH; i++)
    27aa:	fee45783          	lhu	a5,-18(s0)
    27ae:	0785                	addi	a5,a5,1
    27b0:	fef41723          	sh	a5,-18(s0)
C:\Users\山东张\Desktop\新建文件夹\新建文件夹 (2)\SLAVE527\SLAVE-hui\obj/../Libraries/seekfree_peripheral/SEEKFREE_MT9V03X.c:122 (discriminator 1)
    27b4:	fee45703          	lhu	a4,-18(s0)
    27b8:	47a1                	li	a5,8
    27ba:	f6e7f9e3          	bgeu	a5,a4,272c <set_config+0x1e>
C:\Users\山东张\Desktop\新建文件夹\新建文件夹 (2)\SLAVE527\SLAVE-hui\obj/../Libraries/seekfree_peripheral/SEEKFREE_MT9V03X.c:134
    }
    //等待摄像头初始化成功
    while(!uart_receive_flag);
    27be:	0001                	nop
C:\Users\山东张\Desktop\新建文件夹\新建文件夹 (2)\SLAVE527\SLAVE-hui\obj/../Libraries/seekfree_peripheral/SEEKFREE_MT9V03X.c:134 (discriminator 1)
    27c0:	82c1c783          	lbu	a5,-2004(gp) # 200000e4 <uart_receive_flag>
    27c4:	0ff7f793          	andi	a5,a5,255
    27c8:	dfe5                	beqz	a5,27c0 <set_config+0xb2>
C:\Users\山东张\Desktop\新建文件夹\新建文件夹 (2)\SLAVE527\SLAVE-hui\obj/../Libraries/seekfree_peripheral/SEEKFREE_MT9V03X.c:135
    uart_receive_flag = 0;
    27ca:	82018623          	sb	zero,-2004(gp) # 200000e4 <uart_receive_flag>
C:\Users\山东张\Desktop\新建文件夹\新建文件夹 (2)\SLAVE527\SLAVE-hui\obj/../Libraries/seekfree_peripheral/SEEKFREE_MT9V03X.c:136
    while((0xff != receive[1]) || (0xff != receive[2]));
    27ce:	0001                	nop
C:\Users\山东张\Desktop\新建文件夹\新建文件夹 (2)\SLAVE527\SLAVE-hui\obj/../Libraries/seekfree_peripheral/SEEKFREE_MT9V03X.c:136 (discriminator 3)
    27d0:	82818793          	addi	a5,gp,-2008 # 200000e0 <receive>
    27d4:	0017c703          	lbu	a4,1(a5)
    27d8:	0ff00793          	li	a5,255
    27dc:	fef71ae3          	bne	a4,a5,27d0 <set_config+0xc2>
C:\Users\山东张\Desktop\新建文件夹\新建文件夹 (2)\SLAVE527\SLAVE-hui\obj/../Libraries/seekfree_peripheral/SEEKFREE_MT9V03X.c:136 (discriminator 2)
    27e0:	82818793          	addi	a5,gp,-2008 # 200000e0 <receive>
    27e4:	0027c703          	lbu	a4,2(a5)
    27e8:	0ff00793          	li	a5,255
    27ec:	fef712e3          	bne	a4,a5,27d0 <set_config+0xc2>
C:\Users\山东张\Desktop\新建文件夹\新建文件夹 (2)\SLAVE527\SLAVE-hui\obj/../Libraries/seekfree_peripheral/SEEKFREE_MT9V03X.c:139
    //以上部分对摄像头配置的数据全部都会保存在摄像头上51单片机的eeprom中
    //利用set_exposure_time函数单独配置的曝光数据不存储在eeprom中
}
    27f0:	0001                	nop
    27f2:	50b2                	lw	ra,44(sp)
    27f4:	5422                	lw	s0,40(sp)
    27f6:	5912                	lw	s2,36(sp)
    27f8:	5982                	lw	s3,32(sp)
    27fa:	6145                	addi	sp,sp,48
    27fc:	8082                	ret

000027fe <get_config>:
get_config():
C:\Users\山东张\Desktop\新建文件夹\新建文件夹 (2)\SLAVE527\SLAVE-hui\obj/../Libraries/seekfree_peripheral/SEEKFREE_MT9V03X.c:151
//  @return     void
//  @since      v1.0
//  Sample usage:           调用该函数前请先初始化串口
//-------------------------------------------------------------------------------------------------------------------
void get_config(UARTN_enum uartn, int16 buff[CONFIG_FINISH-1][2])
{
    27fe:	7179                	addi	sp,sp,-48
    2800:	d606                	sw	ra,44(sp)
    2802:	d422                	sw	s0,40(sp)
    2804:	1800                	addi	s0,sp,48
    2806:	fca42e23          	sw	a0,-36(s0)
    280a:	fcb42c23          	sw	a1,-40(s0)
C:\Users\山东张\Desktop\新建文件夹\新建文件夹 (2)\SLAVE527\SLAVE-hui\obj/../Libraries/seekfree_peripheral/SEEKFREE_MT9V03X.c:155
    uint16 temp, i;
    uint8  send_buffer[4];
    
    for(i=0; i<CONFIG_FINISH-1; i++)
    280e:	fe041723          	sh	zero,-18(s0)
    2812:	a045                	j	28b2 <get_config+0xb4>
C:\Users\山东张\Desktop\新建文件夹\新建文件夹 (2)\SLAVE527\SLAVE-hui\obj/../Libraries/seekfree_peripheral/SEEKFREE_MT9V03X.c:157
    {
        send_buffer[0] = 0xA5;
    2814:	fa500793          	li	a5,-91
    2818:	fef40423          	sb	a5,-24(s0)
C:\Users\山东张\Desktop\新建文件夹\新建文件夹 (2)\SLAVE527\SLAVE-hui\obj/../Libraries/seekfree_peripheral/SEEKFREE_MT9V03X.c:158
        send_buffer[1] = GET_STATUS;
    281c:	57c5                	li	a5,-15
    281e:	fef404a3          	sb	a5,-23(s0)
C:\Users\山东张\Desktop\新建文件夹\新建文件夹 (2)\SLAVE527\SLAVE-hui\obj/../Libraries/seekfree_peripheral/SEEKFREE_MT9V03X.c:159
        temp = buff[i][0];
    2822:	fee45783          	lhu	a5,-18(s0)
    2826:	078a                	slli	a5,a5,0x2
    2828:	fd842703          	lw	a4,-40(s0)
    282c:	97ba                	add	a5,a5,a4
    282e:	00079783          	lh	a5,0(a5)
    2832:	fef41623          	sh	a5,-20(s0)
C:\Users\山东张\Desktop\新建文件夹\新建文件夹 (2)\SLAVE527\SLAVE-hui\obj/../Libraries/seekfree_peripheral/SEEKFREE_MT9V03X.c:160
        send_buffer[2] = temp>>8;
    2836:	fec45783          	lhu	a5,-20(s0)
    283a:	83a1                	srli	a5,a5,0x8
    283c:	07c2                	slli	a5,a5,0x10
    283e:	83c1                	srli	a5,a5,0x10
    2840:	0ff7f793          	andi	a5,a5,255
    2844:	fef40523          	sb	a5,-22(s0)
C:\Users\山东张\Desktop\新建文件夹\新建文件夹 (2)\SLAVE527\SLAVE-hui\obj/../Libraries/seekfree_peripheral/SEEKFREE_MT9V03X.c:161
        send_buffer[3] = (uint8)temp;
    2848:	fec45783          	lhu	a5,-20(s0)
    284c:	0ff7f793          	andi	a5,a5,255
    2850:	fef405a3          	sb	a5,-21(s0)
C:\Users\山东张\Desktop\新建文件夹\新建文件夹 (2)\SLAVE527\SLAVE-hui\obj/../Libraries/seekfree_peripheral/SEEKFREE_MT9V03X.c:163
        
        uart_putbuff(uartn,send_buffer,4);
    2854:	fe840793          	addi	a5,s0,-24
    2858:	4611                	li	a2,4
    285a:	85be                	mv	a1,a5
    285c:	fdc42503          	lw	a0,-36(s0)
    2860:	160010ef          	jal	ra,39c0 <uart_putbuff>
C:\Users\山东张\Desktop\新建文件夹\新建文件夹 (2)\SLAVE527\SLAVE-hui\obj/../Libraries/seekfree_peripheral/SEEKFREE_MT9V03X.c:166
        
        //等待接受回传数据
        while(!uart_receive_flag);
    2864:	0001                	nop
C:\Users\山东张\Desktop\新建文件夹\新建文件夹 (2)\SLAVE527\SLAVE-hui\obj/../Libraries/seekfree_peripheral/SEEKFREE_MT9V03X.c:166 (discriminator 1)
    2866:	82c1c783          	lbu	a5,-2004(gp) # 200000e4 <uart_receive_flag>
    286a:	0ff7f793          	andi	a5,a5,255
    286e:	dfe5                	beqz	a5,2866 <get_config+0x68>
C:\Users\山东张\Desktop\新建文件夹\新建文件夹 (2)\SLAVE527\SLAVE-hui\obj/../Libraries/seekfree_peripheral/SEEKFREE_MT9V03X.c:167 (discriminator 2)
        uart_receive_flag = 0;
    2870:	82018623          	sb	zero,-2004(gp) # 200000e4 <uart_receive_flag>
C:\Users\山东张\Desktop\新建文件夹\新建文件夹 (2)\SLAVE527\SLAVE-hui\obj/../Libraries/seekfree_peripheral/SEEKFREE_MT9V03X.c:169 (discriminator 2)
        
        buff[i][1] = receive[1]<<8 | receive[2];
    2874:	82818793          	addi	a5,gp,-2008 # 200000e0 <receive>
    2878:	0017c783          	lbu	a5,1(a5)
    287c:	07a2                	slli	a5,a5,0x8
    287e:	01079693          	slli	a3,a5,0x10
    2882:	86c1                	srai	a3,a3,0x10
    2884:	82818793          	addi	a5,gp,-2008 # 200000e0 <receive>
    2888:	0027c783          	lbu	a5,2(a5)
    288c:	01079713          	slli	a4,a5,0x10
    2890:	8741                	srai	a4,a4,0x10
    2892:	fee45783          	lhu	a5,-18(s0)
    2896:	078a                	slli	a5,a5,0x2
    2898:	fd842603          	lw	a2,-40(s0)
    289c:	97b2                	add	a5,a5,a2
    289e:	8f55                	or	a4,a4,a3
    28a0:	0742                	slli	a4,a4,0x10
    28a2:	8741                	srai	a4,a4,0x10
    28a4:	00e79123          	sh	a4,2(a5)
C:\Users\山东张\Desktop\新建文件夹\新建文件夹 (2)\SLAVE527\SLAVE-hui\obj/../Libraries/seekfree_peripheral/SEEKFREE_MT9V03X.c:155 (discriminator 2)
    for(i=0; i<CONFIG_FINISH-1; i++)
    28a8:	fee45783          	lhu	a5,-18(s0)
    28ac:	0785                	addi	a5,a5,1
    28ae:	fef41723          	sh	a5,-18(s0)
C:\Users\山东张\Desktop\新建文件夹\新建文件夹 (2)\SLAVE527\SLAVE-hui\obj/../Libraries/seekfree_peripheral/SEEKFREE_MT9V03X.c:155 (discriminator 1)
    28b2:	fee45703          	lhu	a4,-18(s0)
    28b6:	479d                	li	a5,7
    28b8:	f4e7fee3          	bgeu	a5,a4,2814 <get_config+0x16>
C:\Users\山东张\Desktop\新建文件夹\新建文件夹 (2)\SLAVE527\SLAVE-hui\obj/../Libraries/seekfree_peripheral/SEEKFREE_MT9V03X.c:171
    }
}
    28bc:	0001                	nop
    28be:	50b2                	lw	ra,44(sp)
    28c0:	5422                	lw	s0,40(sp)
    28c2:	6145                	addi	sp,sp,48
    28c4:	8082                	ret

000028c6 <mt9v03x_vsync_init>:
mt9v03x_vsync_init():
C:\Users\山东张\Desktop\新建文件夹\新建文件夹 (2)\SLAVE527\SLAVE-hui\obj/../Libraries/seekfree_peripheral/SEEKFREE_MT9V03X.c:281
//  @return     void        NULL
//  @since      v1.0
//  Sample usage:
//-------------------------------------------------------------------------------------------------------------------
void mt9v03x_vsync_init(void)
{
    28c6:	1141                	addi	sp,sp,-16
    28c8:	c606                	sw	ra,12(sp)
    28ca:	c422                	sw	s0,8(sp)
    28cc:	0800                	addi	s0,sp,16
C:\Users\山东张\Desktop\新建文件夹\新建文件夹 (2)\SLAVE527\SLAVE-hui\obj/../Libraries/seekfree_peripheral/SEEKFREE_MT9V03X.c:282
    gpio_interrupt_init(MT9V03X_VSYNC_PIN, FALLING, IN_PULLUP);
    28ce:	04800613          	li	a2,72
    28d2:	45b1                	li	a1,12
    28d4:	4505                	li	a0,1
    28d6:	774000ef          	jal	ra,304a <gpio_interrupt_init>
C:\Users\山东张\Desktop\新建文件夹\新建文件夹 (2)\SLAVE527\SLAVE-hui\obj/../Libraries/seekfree_peripheral/SEEKFREE_MT9V03X.c:283
    nvic_init(MT9V03X_VSYNC_IRQN, 1, 0, ENABLE);
    28da:	4685                	li	a3,1
    28dc:	4601                	li	a2,0
    28de:	4585                	li	a1,1
    28e0:	455d                	li	a0,23
    28e2:	7e8000ef          	jal	ra,30ca <nvic_init>
C:\Users\山东张\Desktop\新建文件夹\新建文件夹 (2)\SLAVE527\SLAVE-hui\obj/../Libraries/seekfree_peripheral/SEEKFREE_MT9V03X.c:284
}
    28e6:	0001                	nop
    28e8:	40b2                	lw	ra,12(sp)
    28ea:	4422                	lw	s0,8(sp)
    28ec:	0141                	addi	sp,sp,16
    28ee:	8082                	ret

000028f0 <mt9v03x_tim1_etr_init>:
mt9v03x_tim1_etr_init():
C:\Users\山东张\Desktop\新建文件夹\新建文件夹 (2)\SLAVE527\SLAVE-hui\obj/../Libraries/seekfree_peripheral/SEEKFREE_MT9V03X.c:294
//  @return     void        NULL
//  @since      v1.0
//  Sample usage:
//-------------------------------------------------------------------------------------------------------------------
void mt9v03x_tim1_etr_init(void)
{
    28f0:	1141                	addi	sp,sp,-16
    28f2:	c606                	sw	ra,12(sp)
    28f4:	c422                	sw	s0,8(sp)
    28f6:	0800                	addi	s0,sp,16
C:\Users\山东张\Desktop\新建文件夹\新建文件夹 (2)\SLAVE527\SLAVE-hui\obj/../Libraries/seekfree_peripheral/SEEKFREE_MT9V03X.c:295
    camera_tim_etr_init(TIMER_1, MT9V03X_PCLK_PIN);
    28f8:	45b1                	li	a1,12
    28fa:	4501                	li	a0,0
    28fc:	2671                	jal	2c88 <camera_tim_etr_init>
C:\Users\山东张\Desktop\新建文件夹\新建文件夹 (2)\SLAVE527\SLAVE-hui\obj/../Libraries/seekfree_peripheral/SEEKFREE_MT9V03X.c:296
}
    28fe:	0001                	nop
    2900:	40b2                	lw	ra,12(sp)
    2902:	4422                	lw	s0,8(sp)
    2904:	0141                	addi	sp,sp,16
    2906:	8082                	ret

00002908 <mt9v03x_dma_init>:
mt9v03x_dma_init():
C:\Users\山东张\Desktop\新建文件夹\新建文件夹 (2)\SLAVE527\SLAVE-hui\obj/../Libraries/seekfree_peripheral/SEEKFREE_MT9V03X.c:306
//  @return     void        NULL
//  @since      v1.0
//  Sample usage:
//-------------------------------------------------------------------------------------------------------------------
void mt9v03x_dma_init(void)
{
    2908:	1101                	addi	sp,sp,-32
    290a:	ce06                	sw	ra,28(sp)
    290c:	cc22                	sw	s0,24(sp)
    290e:	1000                	addi	s0,sp,32
C:\Users\山东张\Desktop\新建文件夹\新建文件夹 (2)\SLAVE527\SLAVE-hui\obj/../Libraries/seekfree_peripheral/SEEKFREE_MT9V03X.c:311
    uint8 data_pin,num;


    //摄像头数据引脚初始化
    data_pin = (uint8)(((MT9V03X_DATA_PIN - (GPIOA_BASE+8)) >> 10) << 5) +
    2910:	04000793          	li	a5,64
    2914:	fef40723          	sb	a5,-18(s0)
C:\Users\山东张\Desktop\新建文件夹\新建文件夹 (2)\SLAVE527\SLAVE-hui\obj/../Libraries/seekfree_peripheral/SEEKFREE_MT9V03X.c:314
                (((MT9V03X_DATA_PIN - (GPIOA_BASE+8)) & 0x0F) << 3);

    for(num=7; num>0; num--)
    2918:	479d                	li	a5,7
    291a:	fef407a3          	sb	a5,-17(s0)
    291e:	a005                	j	293e <mt9v03x_dma_init+0x36>
C:\Users\山东张\Desktop\新建文件夹\新建文件夹 (2)\SLAVE527\SLAVE-hui\obj/../Libraries/seekfree_peripheral/SEEKFREE_MT9V03X.c:316 (discriminator 3)
    {
        gpio_init((PIN_enum)(num + data_pin), GPI, 0, IN_FLOAT);
    2920:	fef44703          	lbu	a4,-17(s0)
    2924:	fee44783          	lbu	a5,-18(s0)
    2928:	97ba                	add	a5,a5,a4
    292a:	4691                	li	a3,4
    292c:	4601                	li	a2,0
    292e:	4581                	li	a1,0
    2930:	853e                	mv	a0,a5
    2932:	2145                	jal	2dd2 <gpio_init>
C:\Users\山东张\Desktop\新建文件夹\新建文件夹 (2)\SLAVE527\SLAVE-hui\obj/../Libraries/seekfree_peripheral/SEEKFREE_MT9V03X.c:314 (discriminator 3)
    for(num=7; num>0; num--)
    2934:	fef44783          	lbu	a5,-17(s0)
    2938:	17fd                	addi	a5,a5,-1
    293a:	fef407a3          	sb	a5,-17(s0)
C:\Users\山东张\Desktop\新建文件夹\新建文件夹 (2)\SLAVE527\SLAVE-hui\obj/../Libraries/seekfree_peripheral/SEEKFREE_MT9V03X.c:314 (discriminator 1)
    293e:	fef44783          	lbu	a5,-17(s0)
    2942:	fff9                	bnez	a5,2920 <mt9v03x_dma_init+0x18>
C:\Users\山东张\Desktop\新建文件夹\新建文件夹 (2)\SLAVE527\SLAVE-hui\obj/../Libraries/seekfree_peripheral/SEEKFREE_MT9V03X.c:321
    }


    //DMA摄像头初始化
    camera_dma_init(MT9V03X_DMA_CH,(uint32)MT9V03X_DATA_PIN, (uint32)camera_buffer_addr, MT9V03X_H*MT9V03X_W);
    2944:	83c1a783          	lw	a5,-1988(gp) # 200000f4 <camera_buffer_addr>
    2948:	873e                	mv	a4,a5
    294a:	6789                	lui	a5,0x2
    294c:	4b878693          	addi	a3,a5,1208 # 24b8 <USART_ITConfig+0xa2>
    2950:	863a                	mv	a2,a4
    2952:	400117b7          	lui	a5,0x40011
    2956:	00878593          	addi	a1,a5,8 # 40011008 <_eusrstack+0x2000c008>
    295a:	400207b7          	lui	a5,0x40020
    295e:	04478513          	addi	a0,a5,68 # 40020044 <_eusrstack+0x2001b044>
    2962:	22f1                	jal	2b2e <camera_dma_init>
C:\Users\山东张\Desktop\新建文件夹\新建文件夹 (2)\SLAVE527\SLAVE-hui\obj/../Libraries/seekfree_peripheral/SEEKFREE_MT9V03X.c:322
    nvic_init(MT9V03X_DMA_IRQN, 0, 0, ENABLE);          //中断配置
    2964:	4685                	li	a3,1
    2966:	4601                	li	a2,0
    2968:	4581                	li	a1,0
    296a:	4579                	li	a0,30
    296c:	75e000ef          	jal	ra,30ca <nvic_init>
C:\Users\山东张\Desktop\新建文件夹\新建文件夹 (2)\SLAVE527\SLAVE-hui\obj/../Libraries/seekfree_peripheral/SEEKFREE_MT9V03X.c:323
}
    2970:	0001                	nop
    2972:	40f2                	lw	ra,28(sp)
    2974:	4462                	lw	s0,24(sp)
    2976:	6105                	addi	sp,sp,32
    2978:	8082                	ret

0000297a <mt9v03x_init>:
mt9v03x_init():
C:\Users\山东张\Desktop\新建文件夹\新建文件夹 (2)\SLAVE527\SLAVE-hui\obj/../Libraries/seekfree_peripheral/SEEKFREE_MT9V03X.c:334
//  @return     void
//  @since      v1.0
//  Sample usage:   使用FLEXIO接口采集摄像头
//-------------------------------------------------------------------------------------------------------------------
void mt9v03x_init(void)
{
    297a:	1141                	addi	sp,sp,-16
    297c:	c606                	sw	ra,12(sp)
    297e:	c422                	sw	s0,8(sp)
    2980:	0800                	addi	s0,sp,16
C:\Users\山东张\Desktop\新建文件夹\新建文件夹 (2)\SLAVE527\SLAVE-hui\obj/../Libraries/seekfree_peripheral/SEEKFREE_MT9V03X.c:336
    
    camera_type = CAMERA_GRAYSCALE;//设置连接摄像头类型
    2982:	4705                	li	a4,1
    2984:	80e1a423          	sw	a4,-2040(gp) # 200000c0 <camera_type>
C:\Users\山东张\Desktop\新建文件夹\新建文件夹 (2)\SLAVE527\SLAVE-hui\obj/../Libraries/seekfree_peripheral/SEEKFREE_MT9V03X.c:337
    camera_buffer_addr = mt9v03x_image[0];
    2988:	20000737          	lui	a4,0x20000
    298c:	1d870713          	addi	a4,a4,472 # 200001d8 <mt9v03x_image>
    2990:	82e1ae23          	sw	a4,-1988(gp) # 200000f4 <camera_buffer_addr>
C:\Users\山东张\Desktop\新建文件夹\新建文件夹 (2)\SLAVE527\SLAVE-hui\obj/../Libraries/seekfree_peripheral/SEEKFREE_MT9V03X.c:339

    uart_init (MT9V03X_COF_UART, 9600,MT9V03X_COF_UART_TX, MT9V03X_COF_UART_RX);    //初始换串口 配置摄像头
    2994:	46c5                	li	a3,17
    2996:	4641                	li	a2,16
    2998:	6789                	lui	a5,0x2
    299a:	58078593          	addi	a1,a5,1408 # 2580 <USART_GetITStatus+0x32>
    299e:	4505                	li	a0,1
    29a0:	6c7000ef          	jal	ra,3866 <uart_init>
C:\Users\山东张\Desktop\新建文件夹\新建文件夹 (2)\SLAVE527\SLAVE-hui\obj/../Libraries/seekfree_peripheral/SEEKFREE_MT9V03X.c:340
    uart_rx_irq(MT9V03X_COF_UART, ENABLE);
    29a4:	4585                	li	a1,1
    29a6:	4505                	li	a0,1
    29a8:	05e010ef          	jal	ra,3a06 <uart_rx_irq>
C:\Users\山东张\Desktop\新建文件夹\新建文件夹 (2)\SLAVE527\SLAVE-hui\obj/../Libraries/seekfree_peripheral/SEEKFREE_MT9V03X.c:341
    EnableGlobalIRQ(0);
    29ac:	4501                	li	a0,0
    29ae:	063000ef          	jal	ra,3210 <EnableGlobalIRQ>
C:\Users\山东张\Desktop\新建文件夹\新建文件夹 (2)\SLAVE527\SLAVE-hui\obj/../Libraries/seekfree_peripheral/SEEKFREE_MT9V03X.c:344


    uart_receive_flag = 0;
    29b2:	82018623          	sb	zero,-2004(gp) # 200000e4 <uart_receive_flag>
C:\Users\山东张\Desktop\新建文件夹\新建文件夹 (2)\SLAVE527\SLAVE-hui\obj/../Libraries/seekfree_peripheral/SEEKFREE_MT9V03X.c:347
    //等待摄像头上电初始化成功 方式有两种：延时或者通过获取配置的方式 二选一
    //systick_delay_ms(1000);//延时方式
    get_config(MT9V03X_COF_UART, GET_CFG);//获取配置的方式
    29b6:	200007b7          	lui	a5,0x20000
    29ba:	03478593          	addi	a1,a5,52 # 20000034 <GET_CFG>
    29be:	4505                	li	a0,1
    29c0:	3d3d                	jal	27fe <get_config>
C:\Users\山东张\Desktop\新建文件夹\新建文件夹 (2)\SLAVE527\SLAVE-hui\obj/../Libraries/seekfree_peripheral/SEEKFREE_MT9V03X.c:349

    uart_receive_flag = 0;
    29c2:	82018623          	sb	zero,-2004(gp) # 200000e4 <uart_receive_flag>
C:\Users\山东张\Desktop\新建文件夹\新建文件夹 (2)\SLAVE527\SLAVE-hui\obj/../Libraries/seekfree_peripheral/SEEKFREE_MT9V03X.c:350
    set_config(MT9V03X_COF_UART, MT9V03X_CFG);
    29c6:	200007b7          	lui	a5,0x20000
    29ca:	01078593          	addi	a1,a5,16 # 20000010 <MT9V03X_CFG>
    29ce:	4505                	li	a0,1
    29d0:	3b3d                	jal	270e <set_config>
C:\Users\山东张\Desktop\新建文件夹\新建文件夹 (2)\SLAVE527\SLAVE-hui\obj/../Libraries/seekfree_peripheral/SEEKFREE_MT9V03X.c:352

    uart_receive_flag = 0;
    29d2:	82018623          	sb	zero,-2004(gp) # 200000e4 <uart_receive_flag>
C:\Users\山东张\Desktop\新建文件夹\新建文件夹 (2)\SLAVE527\SLAVE-hui\obj/../Libraries/seekfree_peripheral/SEEKFREE_MT9V03X.c:354
    //获取配置便于查看配置是否正确
    get_config(MT9V03X_COF_UART, GET_CFG);
    29d6:	200007b7          	lui	a5,0x20000
    29da:	03478593          	addi	a1,a5,52 # 20000034 <GET_CFG>
    29de:	4505                	li	a0,1
    29e0:	3d39                	jal	27fe <get_config>
C:\Users\山东张\Desktop\新建文件夹\新建文件夹 (2)\SLAVE527\SLAVE-hui\obj/../Libraries/seekfree_peripheral/SEEKFREE_MT9V03X.c:356
    
    DisableGlobalIRQ();
    29e2:	7e6000ef          	jal	ra,31c8 <DisableGlobalIRQ>
C:\Users\山东张\Desktop\新建文件夹\新建文件夹 (2)\SLAVE527\SLAVE-hui\obj/../Libraries/seekfree_peripheral/SEEKFREE_MT9V03X.c:359

    //DMA初始化
    mt9v03x_dma_init();
    29e6:	370d                	jal	2908 <mt9v03x_dma_init>
C:\Users\山东张\Desktop\新建文件夹\新建文件夹 (2)\SLAVE527\SLAVE-hui\obj/../Libraries/seekfree_peripheral/SEEKFREE_MT9V03X.c:361
    //GPIO触发定时器初始化,PLCK引脚初始化
    mt9v03x_tim1_etr_init();
    29e8:	3721                	jal	28f0 <mt9v03x_tim1_etr_init>
C:\Users\山东张\Desktop\新建文件夹\新建文件夹 (2)\SLAVE527\SLAVE-hui\obj/../Libraries/seekfree_peripheral/SEEKFREE_MT9V03X.c:363
    //VSYNC初始化
    mt9v03x_vsync_init();
    29ea:	3df1                	jal	28c6 <mt9v03x_vsync_init>
C:\Users\山东张\Desktop\新建文件夹\新建文件夹 (2)\SLAVE527\SLAVE-hui\obj/../Libraries/seekfree_peripheral/SEEKFREE_MT9V03X.c:364
}
    29ec:	0001                	nop
    29ee:	40b2                	lw	ra,12(sp)
    29f0:	4422                	lw	s0,8(sp)
    29f2:	0141                	addi	sp,sp,16
    29f4:	8082                	ret

000029f6 <mt9v03x_vsync>:
mt9v03x_vsync():
C:\Users\山东张\Desktop\新建文件夹\新建文件夹 (2)\SLAVE527\SLAVE-hui\obj/../Libraries/seekfree_peripheral/SEEKFREE_MT9V03X.c:376
//  @return     void
//  @since      v1.0
//  Sample usage:               在isr.c里面先创建对应的中断函数，然后调用该函数(之后别忘记清除中断标志位)
//-------------------------------------------------------------------------------------------------------------------
void mt9v03x_vsync(void)
{
    29f6:	1141                	addi	sp,sp,-16
    29f8:	c622                	sw	s0,12(sp)
    29fa:	0800                	addi	s0,sp,16
C:\Users\山东张\Desktop\新建文件夹\新建文件夹 (2)\SLAVE527\SLAVE-hui\obj/../Libraries/seekfree_peripheral/SEEKFREE_MT9V03X.c:377
    MT9V03X_DMA_CH->CNTR = MT9V03X_H*MT9V03X_W;             //设置当前DMA传输的剩余数量，向下递减，该寄存器只能在DMA不工作时更改。
    29fc:	400207b7          	lui	a5,0x40020
    2a00:	04478793          	addi	a5,a5,68 # 40020044 <_eusrstack+0x2001b044>
    2a04:	6709                	lui	a4,0x2
    2a06:	4b870713          	addi	a4,a4,1208 # 24b8 <USART_ITConfig+0xa2>
    2a0a:	c3d8                	sw	a4,4(a5)
C:\Users\山东张\Desktop\新建文件夹\新建文件夹 (2)\SLAVE527\SLAVE-hui\obj/../Libraries/seekfree_peripheral/SEEKFREE_MT9V03X.c:378
    MT9V03X_DMA_CH->CFGR |= DMA_CFGR1_EN;
    2a0c:	400207b7          	lui	a5,0x40020
    2a10:	04478793          	addi	a5,a5,68 # 40020044 <_eusrstack+0x2001b044>
    2a14:	4398                	lw	a4,0(a5)
    2a16:	400207b7          	lui	a5,0x40020
    2a1a:	04478793          	addi	a5,a5,68 # 40020044 <_eusrstack+0x2001b044>
    2a1e:	00176713          	ori	a4,a4,1
    2a22:	c398                	sw	a4,0(a5)
C:\Users\山东张\Desktop\新建文件夹\新建文件夹 (2)\SLAVE527\SLAVE-hui\obj/../Libraries/seekfree_peripheral/SEEKFREE_MT9V03X.c:379
}
    2a24:	0001                	nop
    2a26:	4432                	lw	s0,12(sp)
    2a28:	0141                	addi	sp,sp,16
    2a2a:	8082                	ret

00002a2c <mt9v03x_dma>:
mt9v03x_dma():
C:\Users\山东张\Desktop\新建文件夹\新建文件夹 (2)\SLAVE527\SLAVE-hui\obj/../Libraries/seekfree_peripheral/SEEKFREE_MT9V03X.c:389
//  @return     void
//  @since      v1.0
//  Sample usage:
//-------------------------------------------------------------------------------------------------------------------
void mt9v03x_dma(void)
{
    2a2c:	1141                	addi	sp,sp,-16
    2a2e:	c622                	sw	s0,12(sp)
    2a30:	0800                	addi	s0,sp,16
C:\Users\山东张\Desktop\新建文件夹\新建文件夹 (2)\SLAVE527\SLAVE-hui\obj/../Libraries/seekfree_peripheral/SEEKFREE_MT9V03X.c:390
    mt9v03x_finish_flag = 1;//一副图像从采集开始到采集结束耗时3.8MS左右(50FPS、188*120分辨率)
    2a32:	4705                	li	a4,1
    2a34:	82e186a3          	sb	a4,-2003(gp) # 200000e5 <mt9v03x_finish_flag>
C:\Users\山东张\Desktop\新建文件夹\新建文件夹 (2)\SLAVE527\SLAVE-hui\obj/../Libraries/seekfree_peripheral/SEEKFREE_MT9V03X.c:391
    MT9V03X_DMA_CH->CFGR &= (uint16)(~DMA_CFGR1_EN);   //关闭DMA1
    2a38:	400207b7          	lui	a5,0x40020
    2a3c:	04478793          	addi	a5,a5,68 # 40020044 <_eusrstack+0x2001b044>
    2a40:	4394                	lw	a3,0(a5)
    2a42:	400207b7          	lui	a5,0x40020
    2a46:	04478793          	addi	a5,a5,68 # 40020044 <_eusrstack+0x2001b044>
    2a4a:	6741                	lui	a4,0x10
    2a4c:	1779                	addi	a4,a4,-2
    2a4e:	8f75                	and	a4,a4,a3
    2a50:	c398                	sw	a4,0(a5)
C:\Users\山东张\Desktop\新建文件夹\新建文件夹 (2)\SLAVE527\SLAVE-hui\obj/../Libraries/seekfree_peripheral/SEEKFREE_MT9V03X.c:392
}
    2a52:	0001                	nop
    2a54:	4432                	lw	s0,12(sp)
    2a56:	0141                	addi	sp,sp,16
    2a58:	8082                	ret

00002a5a <ov7725_cof_uart_interrupt>:
ov7725_cof_uart_interrupt():
C:\Users\山东张\Desktop\新建文件夹\新建文件夹 (2)\SLAVE527\SLAVE-hui\obj/../Libraries/seekfree_peripheral/SEEKFREE_UART_7725.c:81
//  Sample usage:
//  @note       该函数在ISR文件 串口3中断程序被调用
//-------------------------------------------------------------------------------------------------------------------

void ov7725_cof_uart_interrupt(void)
{
    2a5a:	1141                	addi	sp,sp,-16
    2a5c:	c622                	sw	s0,12(sp)
    2a5e:	0800                	addi	s0,sp,16
C:\Users\山东张\Desktop\新建文件夹\新建文件夹 (2)\SLAVE527\SLAVE-hui\obj/../Libraries/seekfree_peripheral/SEEKFREE_UART_7725.c:83

    ov7725_uart_receive[ov7725_uart_receive_num] = ((USART_TypeDef*)UARTN[OV7725_UART_COF_UART])->DATAR & 0x01FF;
    2a60:	6795                	lui	a5,0x5
    2a62:	5e878793          	addi	a5,a5,1512 # 55e8 <UARTN>
    2a66:	43dc                	lw	a5,4(a5)
    2a68:	0047d783          	lhu	a5,4(a5)
    2a6c:	01079713          	slli	a4,a5,0x10
    2a70:	8341                	srli	a4,a4,0x10
    2a72:	8331c783          	lbu	a5,-1997(gp) # 200000eb <ov7725_uart_receive_num>
    2a76:	86be                	mv	a3,a5
    2a78:	0ff77713          	andi	a4,a4,255
    2a7c:	83018793          	addi	a5,gp,-2000 # 200000e8 <ov7725_uart_receive>
    2a80:	97b6                	add	a5,a5,a3
    2a82:	00e78023          	sb	a4,0(a5)
C:\Users\山东张\Desktop\新建文件夹\新建文件夹 (2)\SLAVE527\SLAVE-hui\obj/../Libraries/seekfree_peripheral/SEEKFREE_UART_7725.c:84
    ov7725_uart_receive_num++;
    2a86:	8331c783          	lbu	a5,-1997(gp) # 200000eb <ov7725_uart_receive_num>
    2a8a:	0785                	addi	a5,a5,1
    2a8c:	0ff7f713          	andi	a4,a5,255
    2a90:	82e189a3          	sb	a4,-1997(gp) # 200000eb <ov7725_uart_receive_num>
C:\Users\山东张\Desktop\新建文件夹\新建文件夹 (2)\SLAVE527\SLAVE-hui\obj/../Libraries/seekfree_peripheral/SEEKFREE_UART_7725.c:86

    if(1==ov7725_uart_receive_num && 0XA5!=ov7725_uart_receive[0])  ov7725_uart_receive_num = 0;
    2a94:	8331c703          	lbu	a4,-1997(gp) # 200000eb <ov7725_uart_receive_num>
    2a98:	4785                	li	a5,1
    2a9a:	00f71a63          	bne	a4,a5,2aae <ov7725_cof_uart_interrupt+0x54>
C:\Users\山东张\Desktop\新建文件夹\新建文件夹 (2)\SLAVE527\SLAVE-hui\obj/../Libraries/seekfree_peripheral/SEEKFREE_UART_7725.c:86 (discriminator 1)
    2a9e:	8301c703          	lbu	a4,-2000(gp) # 200000e8 <ov7725_uart_receive>
    2aa2:	0a500793          	li	a5,165
    2aa6:	00f70463          	beq	a4,a5,2aae <ov7725_cof_uart_interrupt+0x54>
C:\Users\山东张\Desktop\新建文件夹\新建文件夹 (2)\SLAVE527\SLAVE-hui\obj/../Libraries/seekfree_peripheral/SEEKFREE_UART_7725.c:86 (discriminator 2)
    2aaa:	820189a3          	sb	zero,-1997(gp) # 200000eb <ov7725_uart_receive_num>
C:\Users\山东张\Desktop\新建文件夹\新建文件夹 (2)\SLAVE527\SLAVE-hui\obj/../Libraries/seekfree_peripheral/SEEKFREE_UART_7725.c:87
    if(3 == ov7725_uart_receive_num)
    2aae:	8331c703          	lbu	a4,-1997(gp) # 200000eb <ov7725_uart_receive_num>
    2ab2:	478d                	li	a5,3
    2ab4:	00f71763          	bne	a4,a5,2ac2 <ov7725_cof_uart_interrupt+0x68>
C:\Users\山东张\Desktop\新建文件夹\新建文件夹 (2)\SLAVE527\SLAVE-hui\obj/../Libraries/seekfree_peripheral/SEEKFREE_UART_7725.c:89
    {
        ov7725_uart_receive_num = 0;
    2ab8:	820189a3          	sb	zero,-1997(gp) # 200000eb <ov7725_uart_receive_num>
C:\Users\山东张\Desktop\新建文件夹\新建文件夹 (2)\SLAVE527\SLAVE-hui\obj/../Libraries/seekfree_peripheral/SEEKFREE_UART_7725.c:90
        ov7725_uart_receive_flag = 1;
    2abc:	4705                	li	a4,1
    2abe:	82e18a23          	sb	a4,-1996(gp) # 200000ec <ov7725_uart_receive_flag>
C:\Users\山东张\Desktop\新建文件夹\新建文件夹 (2)\SLAVE527\SLAVE-hui\obj/../Libraries/seekfree_peripheral/SEEKFREE_UART_7725.c:92
    }
}
    2ac2:	0001                	nop
    2ac4:	4432                	lw	s0,12(sp)
    2ac6:	0141                	addi	sp,sp,16
    2ac8:	8082                	ret

00002aca <ov7725_uart_vsync>:
ov7725_uart_vsync():
C:\Users\山东张\Desktop\新建文件夹\新建文件夹 (2)\SLAVE527\SLAVE-hui\obj/../Libraries/seekfree_peripheral/SEEKFREE_UART_7725.c:103
//  @since      v1.0
//  Sample usage:                   在isr.c里面先创建对应的中断函数，然后调用该函数(之后别忘记清除中断标志位)
//-------------------------------------------------------------------------------------------------------------------

void ov7725_uart_vsync(void)
{
    2aca:	1141                	addi	sp,sp,-16
    2acc:	c622                	sw	s0,12(sp)
    2ace:	0800                	addi	s0,sp,16
C:\Users\山东张\Desktop\新建文件夹\新建文件夹 (2)\SLAVE527\SLAVE-hui\obj/../Libraries/seekfree_peripheral/SEEKFREE_UART_7725.c:104
    OV7725_UART_DMA_CH->CNTR = OV7725_UART_SIZE;             //设置当前DMA传输的剩余数量，向下递减，该寄存器只能在DMA不工作时更改。
    2ad0:	400207b7          	lui	a5,0x40020
    2ad4:	04478793          	addi	a5,a5,68 # 40020044 <_eusrstack+0x2001b044>
    2ad8:	6705                	lui	a4,0x1
    2ada:	96070713          	addi	a4,a4,-1696 # 960 <__stack_size+0x160>
    2ade:	c3d8                	sw	a4,4(a5)
C:\Users\山东张\Desktop\新建文件夹\新建文件夹 (2)\SLAVE527\SLAVE-hui\obj/../Libraries/seekfree_peripheral/SEEKFREE_UART_7725.c:105
    OV7725_UART_DMA_CH->CFGR |= DMA_CFGR1_EN;                //开启DMA1
    2ae0:	400207b7          	lui	a5,0x40020
    2ae4:	04478793          	addi	a5,a5,68 # 40020044 <_eusrstack+0x2001b044>
    2ae8:	4398                	lw	a4,0(a5)
    2aea:	400207b7          	lui	a5,0x40020
    2aee:	04478793          	addi	a5,a5,68 # 40020044 <_eusrstack+0x2001b044>
    2af2:	00176713          	ori	a4,a4,1
    2af6:	c398                	sw	a4,0(a5)
C:\Users\山东张\Desktop\新建文件夹\新建文件夹 (2)\SLAVE527\SLAVE-hui\obj/../Libraries/seekfree_peripheral/SEEKFREE_UART_7725.c:106
}
    2af8:	0001                	nop
    2afa:	4432                	lw	s0,12(sp)
    2afc:	0141                	addi	sp,sp,16
    2afe:	8082                	ret

00002b00 <ov7725_uart_dma>:
ov7725_uart_dma():
C:\Users\山东张\Desktop\新建文件夹\新建文件夹 (2)\SLAVE527\SLAVE-hui\obj/../Libraries/seekfree_peripheral/SEEKFREE_UART_7725.c:117
//  @return     void
//  @since      v1.0
//  Sample usage:                   在isr.c里面先创建对应的中断函数，然后调用该函数(之后别忘记清除中断标志位)
//-------------------------------------------------------------------------------------------------------------------
void ov7725_uart_dma(void)
{
    2b00:	1141                	addi	sp,sp,-16
    2b02:	c622                	sw	s0,12(sp)
    2b04:	0800                	addi	s0,sp,16
C:\Users\山东张\Desktop\新建文件夹\新建文件夹 (2)\SLAVE527\SLAVE-hui\obj/../Libraries/seekfree_peripheral/SEEKFREE_UART_7725.c:118
    ov7725_uart_finish_flag = 1;                             //摄像头数据采集置1
    2b06:	4705                	li	a4,1
    2b08:	82e18aa3          	sb	a4,-1995(gp) # 200000ed <ov7725_uart_finish_flag>
C:\Users\山东张\Desktop\新建文件夹\新建文件夹 (2)\SLAVE527\SLAVE-hui\obj/../Libraries/seekfree_peripheral/SEEKFREE_UART_7725.c:119
    OV7725_UART_DMA_CH->CFGR &= (uint16)(~DMA_CFGR1_EN);     //关闭DMA1
    2b0c:	400207b7          	lui	a5,0x40020
    2b10:	04478793          	addi	a5,a5,68 # 40020044 <_eusrstack+0x2001b044>
    2b14:	4394                	lw	a3,0(a5)
    2b16:	400207b7          	lui	a5,0x40020
    2b1a:	04478793          	addi	a5,a5,68 # 40020044 <_eusrstack+0x2001b044>
    2b1e:	6741                	lui	a4,0x10
    2b20:	1779                	addi	a4,a4,-2
    2b22:	8f75                	and	a4,a4,a3
    2b24:	c398                	sw	a4,0(a5)
C:\Users\山东张\Desktop\新建文件夹\新建文件夹 (2)\SLAVE527\SLAVE-hui\obj/../Libraries/seekfree_peripheral/SEEKFREE_UART_7725.c:120
}
    2b26:	0001                	nop
    2b28:	4432                	lw	s0,12(sp)
    2b2a:	0141                	addi	sp,sp,16
    2b2c:	8082                	ret

00002b2e <camera_dma_init>:
camera_dma_init():
C:\Users\山东张\Desktop\新建文件夹\新建文件夹 (2)\SLAVE527\SLAVE-hui\obj/../Libraries/seekfree_libraries/zf_camera.c:38
//  @param      size                数据长度
//  @return     void
//  Sample usage:                   camera_dma_init(DMA1_Channel4, GPIOA->ODR, GPIOC->ODR, 8);
//-------------------------------------------------------------------------------------------------------------------
void camera_dma_init(DMA_Channel_TypeDef* dma_ch,uint32 src_addr, uint32 des_addr, uint32 size)
{
    2b2e:	715d                	addi	sp,sp,-80
    2b30:	c686                	sw	ra,76(sp)
    2b32:	c4a2                	sw	s0,72(sp)
    2b34:	0880                	addi	s0,sp,80
    2b36:	faa42e23          	sw	a0,-68(s0)
    2b3a:	fab42c23          	sw	a1,-72(s0)
    2b3e:	fac42a23          	sw	a2,-76(s0)
    2b42:	fad42823          	sw	a3,-80(s0)
C:\Users\山东张\Desktop\新建文件夹\新建文件夹 (2)\SLAVE527\SLAVE-hui\obj/../Libraries/seekfree_libraries/zf_camera.c:41
    DMA_InitTypeDef DMA_InitStructure;

    if(DMA1_Channel1 == dma_ch || DMA1_Channel2 == dma_ch || DMA1_Channel3 == dma_ch || DMA1_Channel4 == dma_ch ||
    2b46:	fbc42703          	lw	a4,-68(s0)
    2b4a:	400207b7          	lui	a5,0x40020
    2b4e:	07a1                	addi	a5,a5,8
    2b50:	06f70163          	beq	a4,a5,2bb2 <camera_dma_init+0x84>
C:\Users\山东张\Desktop\新建文件夹\新建文件夹 (2)\SLAVE527\SLAVE-hui\obj/../Libraries/seekfree_libraries/zf_camera.c:41 (discriminator 1)
    2b54:	fbc42703          	lw	a4,-68(s0)
    2b58:	400207b7          	lui	a5,0x40020
    2b5c:	07f1                	addi	a5,a5,28
    2b5e:	04f70a63          	beq	a4,a5,2bb2 <camera_dma_init+0x84>
C:\Users\山东张\Desktop\新建文件夹\新建文件夹 (2)\SLAVE527\SLAVE-hui\obj/../Libraries/seekfree_libraries/zf_camera.c:41 (discriminator 2)
    2b62:	fbc42703          	lw	a4,-68(s0)
    2b66:	400207b7          	lui	a5,0x40020
    2b6a:	03078793          	addi	a5,a5,48 # 40020030 <_eusrstack+0x2001b030>
    2b6e:	04f70263          	beq	a4,a5,2bb2 <camera_dma_init+0x84>
C:\Users\山东张\Desktop\新建文件夹\新建文件夹 (2)\SLAVE527\SLAVE-hui\obj/../Libraries/seekfree_libraries/zf_camera.c:41 (discriminator 3)
    2b72:	fbc42703          	lw	a4,-68(s0)
    2b76:	400207b7          	lui	a5,0x40020
    2b7a:	04478793          	addi	a5,a5,68 # 40020044 <_eusrstack+0x2001b044>
    2b7e:	02f70a63          	beq	a4,a5,2bb2 <camera_dma_init+0x84>
C:\Users\山东张\Desktop\新建文件夹\新建文件夹 (2)\SLAVE527\SLAVE-hui\obj/../Libraries/seekfree_libraries/zf_camera.c:41 (discriminator 4)
    2b82:	fbc42703          	lw	a4,-68(s0)
    2b86:	400207b7          	lui	a5,0x40020
    2b8a:	05878793          	addi	a5,a5,88 # 40020058 <_eusrstack+0x2001b058>
    2b8e:	02f70263          	beq	a4,a5,2bb2 <camera_dma_init+0x84>
C:\Users\山东张\Desktop\新建文件夹\新建文件夹 (2)\SLAVE527\SLAVE-hui\obj/../Libraries/seekfree_libraries/zf_camera.c:42
       DMA1_Channel5 == dma_ch || DMA1_Channel6 == dma_ch || DMA1_Channel7 == dma_ch)
    2b92:	fbc42703          	lw	a4,-68(s0)
    2b96:	400207b7          	lui	a5,0x40020
    2b9a:	06c78793          	addi	a5,a5,108 # 4002006c <_eusrstack+0x2001b06c>
    2b9e:	00f70a63          	beq	a4,a5,2bb2 <camera_dma_init+0x84>
C:\Users\山东张\Desktop\新建文件夹\新建文件夹 (2)\SLAVE527\SLAVE-hui\obj/../Libraries/seekfree_libraries/zf_camera.c:42 (discriminator 1)
    2ba2:	fbc42703          	lw	a4,-68(s0)
    2ba6:	400207b7          	lui	a5,0x40020
    2baa:	08078793          	addi	a5,a5,128 # 40020080 <_eusrstack+0x2001b080>
    2bae:	00f71763          	bne	a4,a5,2bbc <camera_dma_init+0x8e>
C:\Users\山东张\Desktop\新建文件夹\新建文件夹 (2)\SLAVE527\SLAVE-hui\obj/../Libraries/seekfree_libraries/zf_camera.c:44
    {
        RCC_AHBPeriphClockCmd(RCC_AHBPeriph_DMA1, ENABLE);//DMA1总线初始化
    2bb2:	4585                	li	a1,1
    2bb4:	4505                	li	a0,1
    2bb6:	f15fe0ef          	jal	ra,1aca <RCC_AHBPeriphClockCmd>
    2bba:	a8a9                	j	2c14 <camera_dma_init+0xe6>
C:\Users\山东张\Desktop\新建文件夹\新建文件夹 (2)\SLAVE527\SLAVE-hui\obj/../Libraries/seekfree_libraries/zf_camera.c:46
    }
    else if(DMA2_Channel1 == dma_ch || DMA2_Channel2 == dma_ch || DMA2_Channel3 == dma_ch ||  DMA2_Channel4 == dma_ch ||
    2bbc:	fbc42703          	lw	a4,-68(s0)
    2bc0:	400207b7          	lui	a5,0x40020
    2bc4:	40878793          	addi	a5,a5,1032 # 40020408 <_eusrstack+0x2001b408>
    2bc8:	04f70263          	beq	a4,a5,2c0c <camera_dma_init+0xde>
C:\Users\山东张\Desktop\新建文件夹\新建文件夹 (2)\SLAVE527\SLAVE-hui\obj/../Libraries/seekfree_libraries/zf_camera.c:46 (discriminator 1)
    2bcc:	fbc42703          	lw	a4,-68(s0)
    2bd0:	400207b7          	lui	a5,0x40020
    2bd4:	41c78793          	addi	a5,a5,1052 # 4002041c <_eusrstack+0x2001b41c>
    2bd8:	02f70a63          	beq	a4,a5,2c0c <camera_dma_init+0xde>
C:\Users\山东张\Desktop\新建文件夹\新建文件夹 (2)\SLAVE527\SLAVE-hui\obj/../Libraries/seekfree_libraries/zf_camera.c:46 (discriminator 2)
    2bdc:	fbc42703          	lw	a4,-68(s0)
    2be0:	400207b7          	lui	a5,0x40020
    2be4:	43078793          	addi	a5,a5,1072 # 40020430 <_eusrstack+0x2001b430>
    2be8:	02f70263          	beq	a4,a5,2c0c <camera_dma_init+0xde>
C:\Users\山东张\Desktop\新建文件夹\新建文件夹 (2)\SLAVE527\SLAVE-hui\obj/../Libraries/seekfree_libraries/zf_camera.c:46 (discriminator 3)
    2bec:	fbc42703          	lw	a4,-68(s0)
    2bf0:	400207b7          	lui	a5,0x40020
    2bf4:	44478793          	addi	a5,a5,1092 # 40020444 <_eusrstack+0x2001b444>
    2bf8:	00f70a63          	beq	a4,a5,2c0c <camera_dma_init+0xde>
C:\Users\山东张\Desktop\新建文件夹\新建文件夹 (2)\SLAVE527\SLAVE-hui\obj/../Libraries/seekfree_libraries/zf_camera.c:46 (discriminator 4)
    2bfc:	fbc42703          	lw	a4,-68(s0)
    2c00:	400207b7          	lui	a5,0x40020
    2c04:	45878793          	addi	a5,a5,1112 # 40020458 <_eusrstack+0x2001b458>
    2c08:	00f71663          	bne	a4,a5,2c14 <camera_dma_init+0xe6>
C:\Users\山东张\Desktop\新建文件夹\新建文件夹 (2)\SLAVE527\SLAVE-hui\obj/../Libraries/seekfree_libraries/zf_camera.c:49
            DMA2_Channel5 == dma_ch)
    {
        RCC_AHBPeriphClockCmd(RCC_AHBPeriph_DMA2, ENABLE);//DMA2总线初始化
    2c0c:	4585                	li	a1,1
    2c0e:	4509                	li	a0,2
    2c10:	ebbfe0ef          	jal	ra,1aca <RCC_AHBPeriphClockCmd>
C:\Users\山东张\Desktop\新建文件夹\新建文件夹 (2)\SLAVE527\SLAVE-hui\obj/../Libraries/seekfree_libraries/zf_camera.c:52
    }

    DMA_DeInit(dma_ch);
    2c14:	fbc42503          	lw	a0,-68(s0)
    2c18:	94cfe0ef          	jal	ra,d64 <DMA_DeInit>
C:\Users\山东张\Desktop\新建文件夹\新建文件夹 (2)\SLAVE527\SLAVE-hui\obj/../Libraries/seekfree_libraries/zf_camera.c:55

    //MDA配置初始化
    DMA_InitStructure.DMA_PeripheralBaseAddr = src_addr;                    //源地址
    2c1c:	fb842783          	lw	a5,-72(s0)
    2c20:	fcf42223          	sw	a5,-60(s0)
C:\Users\山东张\Desktop\新建文件夹\新建文件夹 (2)\SLAVE527\SLAVE-hui\obj/../Libraries/seekfree_libraries/zf_camera.c:56
    DMA_InitStructure.DMA_MemoryBaseAddr = des_addr;                        //目标地址
    2c24:	fb442783          	lw	a5,-76(s0)
    2c28:	fcf42423          	sw	a5,-56(s0)
C:\Users\山东张\Desktop\新建文件夹\新建文件夹 (2)\SLAVE527\SLAVE-hui\obj/../Libraries/seekfree_libraries/zf_camera.c:57
    DMA_InitStructure.DMA_DIR = DMA_DIR_PeripheralSRC;                      //外设作为源
    2c2c:	fc042623          	sw	zero,-52(s0)
C:\Users\山东张\Desktop\新建文件夹\新建文件夹 (2)\SLAVE527\SLAVE-hui\obj/../Libraries/seekfree_libraries/zf_camera.c:58
    DMA_InitStructure.DMA_BufferSize = size;                                //传输多少个数据
    2c30:	fb042783          	lw	a5,-80(s0)
    2c34:	fcf42823          	sw	a5,-48(s0)
C:\Users\山东张\Desktop\新建文件夹\新建文件夹 (2)\SLAVE527\SLAVE-hui\obj/../Libraries/seekfree_libraries/zf_camera.c:59
    DMA_InitStructure.DMA_PeripheralInc = DMA_PeripheralInc_Disable;        //外设地址不增加
    2c38:	fc042a23          	sw	zero,-44(s0)
C:\Users\山东张\Desktop\新建文件夹\新建文件夹 (2)\SLAVE527\SLAVE-hui\obj/../Libraries/seekfree_libraries/zf_camera.c:60
    DMA_InitStructure.DMA_MemoryInc = DMA_MemoryInc_Enable;                 //内存地址依次+1
    2c3c:	08000793          	li	a5,128
    2c40:	fcf42c23          	sw	a5,-40(s0)
C:\Users\山东张\Desktop\新建文件夹\新建文件夹 (2)\SLAVE527\SLAVE-hui\obj/../Libraries/seekfree_libraries/zf_camera.c:61
    DMA_InitStructure.DMA_PeripheralDataSize = DMA_PeripheralDataSize_Byte; //外设每次传输一个字节
    2c44:	fc042e23          	sw	zero,-36(s0)
C:\Users\山东张\Desktop\新建文件夹\新建文件夹 (2)\SLAVE527\SLAVE-hui\obj/../Libraries/seekfree_libraries/zf_camera.c:62
    DMA_InitStructure.DMA_MemoryDataSize = DMA_MemoryDataSize_Byte;         //内存每次传输一个字节
    2c48:	fe042023          	sw	zero,-32(s0)
C:\Users\山东张\Desktop\新建文件夹\新建文件夹 (2)\SLAVE527\SLAVE-hui\obj/../Libraries/seekfree_libraries/zf_camera.c:63
    DMA_InitStructure.DMA_Mode = DMA_Mode_Normal;                           //非循环模式
    2c4c:	fe042223          	sw	zero,-28(s0)
C:\Users\山东张\Desktop\新建文件夹\新建文件夹 (2)\SLAVE527\SLAVE-hui\obj/../Libraries/seekfree_libraries/zf_camera.c:64
    DMA_InitStructure.DMA_Priority = DMA_Priority_VeryHigh;                 //优先级最高
    2c50:	678d                	lui	a5,0x3
    2c52:	fef42423          	sw	a5,-24(s0)
C:\Users\山东张\Desktop\新建文件夹\新建文件夹 (2)\SLAVE527\SLAVE-hui\obj/../Libraries/seekfree_libraries/zf_camera.c:65
    DMA_InitStructure.DMA_M2M = DMA_M2M_Disable;                            //非内存到内存模式
    2c56:	fe042623          	sw	zero,-20(s0)
C:\Users\山东张\Desktop\新建文件夹\新建文件夹 (2)\SLAVE527\SLAVE-hui\obj/../Libraries/seekfree_libraries/zf_camera.c:66
    DMA_Init(dma_ch, &DMA_InitStructure);
    2c5a:	fc440793          	addi	a5,s0,-60
    2c5e:	85be                	mv	a1,a5
    2c60:	fbc42503          	lw	a0,-68(s0)
    2c64:	b0efe0ef          	jal	ra,f72 <DMA_Init>
C:\Users\山东张\Desktop\新建文件夹\新建文件夹 (2)\SLAVE527\SLAVE-hui\obj/../Libraries/seekfree_libraries/zf_camera.c:68

    DMA_ITConfig(dma_ch, DMA_IT_TC, ENABLE);                                //配置DMA传输完成中断
    2c68:	4605                	li	a2,1
    2c6a:	4589                	li	a1,2
    2c6c:	fbc42503          	lw	a0,-68(s0)
    2c70:	beafe0ef          	jal	ra,105a <DMA_ITConfig>
C:\Users\山东张\Desktop\新建文件夹\新建文件夹 (2)\SLAVE527\SLAVE-hui\obj/../Libraries/seekfree_libraries/zf_camera.c:69
    DMA_Cmd(dma_ch, ENABLE);                                                //开启DMA1
    2c74:	4585                	li	a1,1
    2c76:	fbc42503          	lw	a0,-68(s0)
    2c7a:	ba0fe0ef          	jal	ra,101a <DMA_Cmd>
C:\Users\山东张\Desktop\新建文件夹\新建文件夹 (2)\SLAVE527\SLAVE-hui\obj/../Libraries/seekfree_libraries/zf_camera.c:71

}
    2c7e:	0001                	nop
    2c80:	40b6                	lw	ra,76(sp)
    2c82:	4426                	lw	s0,72(sp)
    2c84:	6161                	addi	sp,sp,80
    2c86:	8082                	ret

00002c88 <camera_tim_etr_init>:
camera_tim_etr_init():
C:\Users\山东张\Desktop\新建文件夹\新建文件夹 (2)\SLAVE527\SLAVE-hui\obj/../Libraries/seekfree_libraries/zf_camera.c:82
//  @param      pin                 引脚号
//  @return     void
//  Sample usage:                   camera_tim_etr_init(TIMER_1, A12);  //定时器ERT触发是固定的引脚禁止随意修改
//-------------------------------------------------------------------------------------------------------------------
void camera_tim_etr_init(TIMERN_enum timern, PIN_enum pin)
{
    2c88:	7179                	addi	sp,sp,-48
    2c8a:	d606                	sw	ra,44(sp)
    2c8c:	d422                	sw	s0,40(sp)
    2c8e:	1800                	addi	s0,sp,48
    2c90:	fca42e23          	sw	a0,-36(s0)
    2c94:	fcb42c23          	sw	a1,-40(s0)
C:\Users\山东张\Desktop\新建文件夹\新建文件夹 (2)\SLAVE527\SLAVE-hui\obj/../Libraries/seekfree_libraries/zf_camera.c:85
    TIM_TimeBaseInitTypeDef  TIM_TimeBaseStructure;

    RCC_APB2PeriphClockCmd(RCC_APB2Periph_AFIO, ENABLE);
    2c98:	4585                	li	a1,1
    2c9a:	4505                	li	a0,1
    2c9c:	e75fe0ef          	jal	ra,1b10 <RCC_APB2PeriphClockCmd>
C:\Users\山东张\Desktop\新建文件夹\新建文件夹 (2)\SLAVE527\SLAVE-hui\obj/../Libraries/seekfree_libraries/zf_camera.c:86
    if(TIMER_1 == timern)
    2ca0:	fdc42783          	lw	a5,-36(s0)
    2ca4:	eb81                	bnez	a5,2cb4 <camera_tim_etr_init+0x2c>
C:\Users\山东张\Desktop\新建文件夹\新建文件夹 (2)\SLAVE527\SLAVE-hui\obj/../Libraries/seekfree_libraries/zf_camera.c:87
        RCC_APB2PeriphClockCmd(RCC_APB2Periph_TIM1, ENABLE);
    2ca6:	4585                	li	a1,1
    2ca8:	6785                	lui	a5,0x1
    2caa:	80078513          	addi	a0,a5,-2048 # 800 <__stack_size>
    2cae:	e63fe0ef          	jal	ra,1b10 <RCC_APB2PeriphClockCmd>
    2cb2:	a835                	j	2cee <camera_tim_etr_init+0x66>
C:\Users\山东张\Desktop\新建文件夹\新建文件夹 (2)\SLAVE527\SLAVE-hui\obj/../Libraries/seekfree_libraries/zf_camera.c:88
    else if(TIMER_2 == timern)
    2cb4:	fdc42703          	lw	a4,-36(s0)
    2cb8:	4785                	li	a5,1
    2cba:	00f71763          	bne	a4,a5,2cc8 <camera_tim_etr_init+0x40>
C:\Users\山东张\Desktop\新建文件夹\新建文件夹 (2)\SLAVE527\SLAVE-hui\obj/../Libraries/seekfree_libraries/zf_camera.c:89
        RCC_APB1PeriphClockCmd(RCC_APB1Periph_TIM2, ENABLE);
    2cbe:	4585                	li	a1,1
    2cc0:	4505                	li	a0,1
    2cc2:	e95fe0ef          	jal	ra,1b56 <RCC_APB1PeriphClockCmd>
    2cc6:	a025                	j	2cee <camera_tim_etr_init+0x66>
C:\Users\山东张\Desktop\新建文件夹\新建文件夹 (2)\SLAVE527\SLAVE-hui\obj/../Libraries/seekfree_libraries/zf_camera.c:90
    else if(TIMER_3 == timern)
    2cc8:	fdc42703          	lw	a4,-36(s0)
    2ccc:	4789                	li	a5,2
    2cce:	00f71763          	bne	a4,a5,2cdc <camera_tim_etr_init+0x54>
C:\Users\山东张\Desktop\新建文件夹\新建文件夹 (2)\SLAVE527\SLAVE-hui\obj/../Libraries/seekfree_libraries/zf_camera.c:91
        RCC_APB1PeriphClockCmd(RCC_APB1Periph_TIM3, ENABLE);
    2cd2:	4585                	li	a1,1
    2cd4:	4509                	li	a0,2
    2cd6:	e81fe0ef          	jal	ra,1b56 <RCC_APB1PeriphClockCmd>
    2cda:	a811                	j	2cee <camera_tim_etr_init+0x66>
C:\Users\山东张\Desktop\新建文件夹\新建文件夹 (2)\SLAVE527\SLAVE-hui\obj/../Libraries/seekfree_libraries/zf_camera.c:92
    else if(TIMER_4 == timern)
    2cdc:	fdc42703          	lw	a4,-36(s0)
    2ce0:	478d                	li	a5,3
    2ce2:	00f71663          	bne	a4,a5,2cee <camera_tim_etr_init+0x66>
C:\Users\山东张\Desktop\新建文件夹\新建文件夹 (2)\SLAVE527\SLAVE-hui\obj/../Libraries/seekfree_libraries/zf_camera.c:93
        RCC_APB1PeriphClockCmd(RCC_APB1Periph_TIM4, ENABLE);
    2ce6:	4585                	li	a1,1
    2ce8:	4511                	li	a0,4
    2cea:	e6dfe0ef          	jal	ra,1b56 <RCC_APB1PeriphClockCmd>
C:\Users\山东张\Desktop\新建文件夹\新建文件夹 (2)\SLAVE527\SLAVE-hui\obj/../Libraries/seekfree_libraries/zf_camera.c:95

    gpio_init(pin, GPI, 0, IN_FLOAT);
    2cee:	4691                	li	a3,4
    2cf0:	4601                	li	a2,0
    2cf2:	4581                	li	a1,0
    2cf4:	fd842503          	lw	a0,-40(s0)
    2cf8:	28e9                	jal	2dd2 <gpio_init>
C:\Users\山东张\Desktop\新建文件夹\新建文件夹 (2)\SLAVE527\SLAVE-hui\obj/../Libraries/seekfree_libraries/zf_camera.c:97

    TIM_TimeBaseStructure.TIM_Period = 0xFFFF;
    2cfa:	57fd                	li	a5,-1
    2cfc:	fef41423          	sh	a5,-24(s0)
C:\Users\山东张\Desktop\新建文件夹\新建文件夹 (2)\SLAVE527\SLAVE-hui\obj/../Libraries/seekfree_libraries/zf_camera.c:98
    TIM_TimeBaseStructure.TIM_Prescaler = 0;
    2d00:	fe041223          	sh	zero,-28(s0)
C:\Users\山东张\Desktop\新建文件夹\新建文件夹 (2)\SLAVE527\SLAVE-hui\obj/../Libraries/seekfree_libraries/zf_camera.c:99
    TIM_TimeBaseStructure.TIM_ClockDivision = TIM_CKD_DIV1;
    2d04:	fe041523          	sh	zero,-22(s0)
C:\Users\山东张\Desktop\新建文件夹\新建文件夹 (2)\SLAVE527\SLAVE-hui\obj/../Libraries/seekfree_libraries/zf_camera.c:100
    TIM_TimeBaseStructure.TIM_CounterMode = TIM_CounterMode_Up;
    2d08:	fe041323          	sh	zero,-26(s0)
C:\Users\山东张\Desktop\新建文件夹\新建文件夹 (2)\SLAVE527\SLAVE-hui\obj/../Libraries/seekfree_libraries/zf_camera.c:101
    TIM_TimeBaseStructure.TIM_RepetitionCounter = 0;
    2d0c:	fe040623          	sb	zero,-20(s0)
C:\Users\山东张\Desktop\新建文件夹\新建文件夹 (2)\SLAVE527\SLAVE-hui\obj/../Libraries/seekfree_libraries/zf_camera.c:102
    TIM_TimeBaseInit((TIM_TypeDef*)(TIMERN[timern]), &TIM_TimeBaseStructure);
    2d10:	6795                	lui	a5,0x5
    2d12:	fdc42703          	lw	a4,-36(s0)
    2d16:	070a                	slli	a4,a4,0x2
    2d18:	5d878793          	addi	a5,a5,1496 # 55d8 <TIMERN>
    2d1c:	97ba                	add	a5,a5,a4
    2d1e:	439c                	lw	a5,0(a5)
    2d20:	873e                	mv	a4,a5
    2d22:	fe440793          	addi	a5,s0,-28
    2d26:	85be                	mv	a1,a5
    2d28:	853a                	mv	a0,a4
    2d2a:	e73fe0ef          	jal	ra,1b9c <TIM_TimeBaseInit>
C:\Users\山东张\Desktop\新建文件夹\新建文件夹 (2)\SLAVE527\SLAVE-hui\obj/../Libraries/seekfree_libraries/zf_camera.c:104

    TIM_ETRClockMode1Config((TIM_TypeDef*)(TIMERN[timern]), TIM_ExtTRGPSC_OFF, TIM_ExtTRGPolarity_Inverted, 0x00);
    2d2e:	6795                	lui	a5,0x5
    2d30:	fdc42703          	lw	a4,-36(s0)
    2d34:	070a                	slli	a4,a4,0x2
    2d36:	5d878793          	addi	a5,a5,1496 # 55d8 <TIMERN>
    2d3a:	97ba                	add	a5,a5,a4
    2d3c:	439c                	lw	a5,0(a5)
    2d3e:	4681                	li	a3,0
    2d40:	6621                	lui	a2,0x8
    2d42:	4581                	li	a1,0
    2d44:	853e                	mv	a0,a5
    2d46:	8c4ff0ef          	jal	ra,1e0a <TIM_ETRClockMode1Config>
C:\Users\山东张\Desktop\新建文件夹\新建文件夹 (2)\SLAVE527\SLAVE-hui\obj/../Libraries/seekfree_libraries/zf_camera.c:105
    TIM_SelectInputTrigger((TIM_TypeDef*)(TIMERN[timern]), TIM_TS_ETRF);
    2d4a:	6795                	lui	a5,0x5
    2d4c:	fdc42703          	lw	a4,-36(s0)
    2d50:	070a                	slli	a4,a4,0x2
    2d52:	5d878793          	addi	a5,a5,1496 # 55d8 <TIMERN>
    2d56:	97ba                	add	a5,a5,a4
    2d58:	439c                	lw	a5,0(a5)
    2d5a:	07000593          	li	a1,112
    2d5e:	853e                	mv	a0,a5
    2d60:	9b0ff0ef          	jal	ra,1f10 <TIM_SelectInputTrigger>
C:\Users\山东张\Desktop\新建文件夹\新建文件夹 (2)\SLAVE527\SLAVE-hui\obj/../Libraries/seekfree_libraries/zf_camera.c:106
    TIM_SelectSlaveMode((TIM_TypeDef*)(TIMERN[timern]), TIM_SlaveMode_Reset);                   //TIM从模式：触发信号的上升沿重新初始化计数器和触发寄存器的更新事件
    2d64:	6795                	lui	a5,0x5
    2d66:	fdc42703          	lw	a4,-36(s0)
    2d6a:	070a                	slli	a4,a4,0x2
    2d6c:	5d878793          	addi	a5,a5,1496 # 55d8 <TIMERN>
    2d70:	97ba                	add	a5,a5,a4
    2d72:	439c                	lw	a5,0(a5)
    2d74:	4591                	li	a1,4
    2d76:	853e                	mv	a0,a5
    2d78:	abeff0ef          	jal	ra,2036 <TIM_SelectSlaveMode>
C:\Users\山东张\Desktop\新建文件夹\新建文件夹 (2)\SLAVE527\SLAVE-hui\obj/../Libraries/seekfree_libraries/zf_camera.c:107
    TIM_SelectMasterSlaveMode((TIM_TypeDef*)(TIMERN[timern]), TIM_MasterSlaveMode_Enable);      //启动定时器的被动触发
    2d7c:	6795                	lui	a5,0x5
    2d7e:	fdc42703          	lw	a4,-36(s0)
    2d82:	070a                	slli	a4,a4,0x2
    2d84:	5d878793          	addi	a5,a5,1496 # 55d8 <TIMERN>
    2d88:	97ba                	add	a5,a5,a4
    2d8a:	439c                	lw	a5,0(a5)
    2d8c:	08000593          	li	a1,128
    2d90:	853e                	mv	a0,a5
    2d92:	afaff0ef          	jal	ra,208c <TIM_SelectMasterSlaveMode>
C:\Users\山东张\Desktop\新建文件夹\新建文件夹 (2)\SLAVE527\SLAVE-hui\obj/../Libraries/seekfree_libraries/zf_camera.c:109

    TIM_Cmd((TIM_TypeDef*)(TIMERN[timern]), ENABLE);
    2d96:	6795                	lui	a5,0x5
    2d98:	fdc42703          	lw	a4,-36(s0)
    2d9c:	070a                	slli	a4,a4,0x2
    2d9e:	5d878793          	addi	a5,a5,1496 # 55d8 <TIMERN>
    2da2:	97ba                	add	a5,a5,a4
    2da4:	439c                	lw	a5,0(a5)
    2da6:	4585                	li	a1,1
    2da8:	853e                	mv	a0,a5
    2daa:	f29fe0ef          	jal	ra,1cd2 <TIM_Cmd>
C:\Users\山东张\Desktop\新建文件夹\新建文件夹 (2)\SLAVE527\SLAVE-hui\obj/../Libraries/seekfree_libraries/zf_camera.c:110
    TIM_DMACmd((TIM_TypeDef*)(TIMERN[timern]), TIM_DMA_Trigger, ENABLE);                        //使能TIM_DMA
    2dae:	6795                	lui	a5,0x5
    2db0:	fdc42703          	lw	a4,-36(s0)
    2db4:	070a                	slli	a4,a4,0x2
    2db6:	5d878793          	addi	a5,a5,1496 # 55d8 <TIMERN>
    2dba:	97ba                	add	a5,a5,a4
    2dbc:	439c                	lw	a5,0(a5)
    2dbe:	4605                	li	a2,1
    2dc0:	6591                	lui	a1,0x4
    2dc2:	853e                	mv	a0,a5
    2dc4:	fd7fe0ef          	jal	ra,1d9a <TIM_DMACmd>
C:\Users\山东张\Desktop\新建文件夹\新建文件夹 (2)\SLAVE527\SLAVE-hui\obj/../Libraries/seekfree_libraries/zf_camera.c:111
}
    2dc8:	0001                	nop
    2dca:	50b2                	lw	ra,44(sp)
    2dcc:	5422                	lw	s0,40(sp)
    2dce:	6145                	addi	sp,sp,48
    2dd0:	8082                	ret

00002dd2 <gpio_init>:
gpio_init():
C:\Users\山东张\Desktop\新建文件夹\新建文件夹 (2)\SLAVE527\SLAVE-hui\obj/../Libraries/seekfree_libraries/zf_gpio.c:40
//  @param      pinconf     引脚配置（可设置参数由zf_gpio.h文件内GPIOSPEED_enum与GPIOMODE_enum枚举值确定，多个条件使用 | 相或）
//  @return     void
//  Sample usage:           gpio_init(D0, GPO, 1, GPIO_PIN_CONFIG);//D0初始化为GPIO功能、输出模式、输出高电平、速度100MHZ 推挽输出
//-------------------------------------------------------------------------------------------------------------------
void gpio_init(PIN_enum pin, GPIODIR_enum dir, uint8 dat, uint32 pinconf)
{
    2dd2:	7179                	addi	sp,sp,-48
    2dd4:	d606                	sw	ra,44(sp)
    2dd6:	d422                	sw	s0,40(sp)
    2dd8:	1800                	addi	s0,sp,48
    2dda:	fca42e23          	sw	a0,-36(s0)
    2dde:	fcb42c23          	sw	a1,-40(s0)
    2de2:	87b2                	mv	a5,a2
    2de4:	fcd42823          	sw	a3,-48(s0)
    2de8:	fcf40ba3          	sb	a5,-41(s0)
C:\Users\山东张\Desktop\新建文件夹\新建文件夹 (2)\SLAVE527\SLAVE-hui\obj/../Libraries/seekfree_libraries/zf_gpio.c:42
    GPIO_InitTypeDef GPIO_InitStructure;
    uint8 io_group = (pin & 0xE0) >> 5;
    2dec:	fdc42783          	lw	a5,-36(s0)
    2df0:	8395                	srli	a5,a5,0x5
    2df2:	0ff7f793          	andi	a5,a5,255
    2df6:	8b9d                	andi	a5,a5,7
    2df8:	fef407a3          	sb	a5,-17(s0)
C:\Users\山东张\Desktop\新建文件夹\新建文件夹 (2)\SLAVE527\SLAVE-hui\obj/../Libraries/seekfree_libraries/zf_gpio.c:43
    uint8 io_pin = pin & 0x1F;
    2dfc:	fdc42783          	lw	a5,-36(s0)
    2e00:	0ff7f793          	andi	a5,a5,255
    2e04:	8bfd                	andi	a5,a5,31
    2e06:	fef40723          	sb	a5,-18(s0)
C:\Users\山东张\Desktop\新建文件夹\新建文件夹 (2)\SLAVE527\SLAVE-hui\obj/../Libraries/seekfree_libraries/zf_gpio.c:46


    if(PIN_NULL == pin) return;
    2e0a:	fdc42703          	lw	a4,-36(s0)
    2e0e:	08000793          	li	a5,128
    2e12:	14f70d63          	beq	a4,a5,2f6c <gpio_init+0x19a>
C:\Users\山东张\Desktop\新建文件夹\新建文件夹 (2)\SLAVE527\SLAVE-hui\obj/../Libraries/seekfree_libraries/zf_gpio.c:48
    //GPIO总线使能
    if(0 == (pin >> 5))      RCC_APB2PeriphClockCmd(RCC_APB2Periph_GPIOA, ENABLE);
    2e16:	fdc42783          	lw	a5,-36(s0)
    2e1a:	8395                	srli	a5,a5,0x5
    2e1c:	e791                	bnez	a5,2e28 <gpio_init+0x56>
C:\Users\山东张\Desktop\新建文件夹\新建文件夹 (2)\SLAVE527\SLAVE-hui\obj/../Libraries/seekfree_libraries/zf_gpio.c:48 (discriminator 1)
    2e1e:	4585                	li	a1,1
    2e20:	4511                	li	a0,4
    2e22:	ceffe0ef          	jal	ra,1b10 <RCC_APB2PeriphClockCmd>
    2e26:	a861                	j	2ebe <gpio_init+0xec>
C:\Users\山东张\Desktop\新建文件夹\新建文件夹 (2)\SLAVE527\SLAVE-hui\obj/../Libraries/seekfree_libraries/zf_gpio.c:49
    else if(1 == (pin >> 5)) RCC_APB2PeriphClockCmd(RCC_APB2Periph_GPIOB, ENABLE);
    2e28:	fdc42783          	lw	a5,-36(s0)
    2e2c:	0057d713          	srli	a4,a5,0x5
    2e30:	4785                	li	a5,1
    2e32:	00f71763          	bne	a4,a5,2e40 <gpio_init+0x6e>
C:\Users\山东张\Desktop\新建文件夹\新建文件夹 (2)\SLAVE527\SLAVE-hui\obj/../Libraries/seekfree_libraries/zf_gpio.c:49 (discriminator 1)
    2e36:	4585                	li	a1,1
    2e38:	4521                	li	a0,8
    2e3a:	cd7fe0ef          	jal	ra,1b10 <RCC_APB2PeriphClockCmd>
    2e3e:	a041                	j	2ebe <gpio_init+0xec>
C:\Users\山东张\Desktop\新建文件夹\新建文件夹 (2)\SLAVE527\SLAVE-hui\obj/../Libraries/seekfree_libraries/zf_gpio.c:50
    else if(2 == (pin >> 5)) RCC_APB2PeriphClockCmd(RCC_APB2Periph_GPIOC, ENABLE);
    2e40:	fdc42783          	lw	a5,-36(s0)
    2e44:	0057d713          	srli	a4,a5,0x5
    2e48:	4789                	li	a5,2
    2e4a:	00f71763          	bne	a4,a5,2e58 <gpio_init+0x86>
C:\Users\山东张\Desktop\新建文件夹\新建文件夹 (2)\SLAVE527\SLAVE-hui\obj/../Libraries/seekfree_libraries/zf_gpio.c:50 (discriminator 1)
    2e4e:	4585                	li	a1,1
    2e50:	4541                	li	a0,16
    2e52:	cbffe0ef          	jal	ra,1b10 <RCC_APB2PeriphClockCmd>
    2e56:	a0a5                	j	2ebe <gpio_init+0xec>
C:\Users\山东张\Desktop\新建文件夹\新建文件夹 (2)\SLAVE527\SLAVE-hui\obj/../Libraries/seekfree_libraries/zf_gpio.c:51
    else if(3 == (pin >> 5)) RCC_APB2PeriphClockCmd(RCC_APB2Periph_GPIOD, ENABLE);
    2e58:	fdc42783          	lw	a5,-36(s0)
    2e5c:	0057d713          	srli	a4,a5,0x5
    2e60:	478d                	li	a5,3
    2e62:	00f71863          	bne	a4,a5,2e72 <gpio_init+0xa0>
C:\Users\山东张\Desktop\新建文件夹\新建文件夹 (2)\SLAVE527\SLAVE-hui\obj/../Libraries/seekfree_libraries/zf_gpio.c:51 (discriminator 1)
    2e66:	4585                	li	a1,1
    2e68:	02000513          	li	a0,32
    2e6c:	ca5fe0ef          	jal	ra,1b10 <RCC_APB2PeriphClockCmd>
    2e70:	a0b9                	j	2ebe <gpio_init+0xec>
C:\Users\山东张\Desktop\新建文件夹\新建文件夹 (2)\SLAVE527\SLAVE-hui\obj/../Libraries/seekfree_libraries/zf_gpio.c:52
    else if(4 == (pin >> 5)) RCC_APB2PeriphClockCmd(RCC_APB2Periph_GPIOE, ENABLE);
    2e72:	fdc42783          	lw	a5,-36(s0)
    2e76:	0057d713          	srli	a4,a5,0x5
    2e7a:	4791                	li	a5,4
    2e7c:	00f71863          	bne	a4,a5,2e8c <gpio_init+0xba>
C:\Users\山东张\Desktop\新建文件夹\新建文件夹 (2)\SLAVE527\SLAVE-hui\obj/../Libraries/seekfree_libraries/zf_gpio.c:52 (discriminator 1)
    2e80:	4585                	li	a1,1
    2e82:	04000513          	li	a0,64
    2e86:	c8bfe0ef          	jal	ra,1b10 <RCC_APB2PeriphClockCmd>
    2e8a:	a815                	j	2ebe <gpio_init+0xec>
C:\Users\山东张\Desktop\新建文件夹\新建文件夹 (2)\SLAVE527\SLAVE-hui\obj/../Libraries/seekfree_libraries/zf_gpio.c:53
    else if(5 == (pin >> 5)) RCC_APB2PeriphClockCmd(RCC_APB2Periph_GPIOF, ENABLE);
    2e8c:	fdc42783          	lw	a5,-36(s0)
    2e90:	0057d713          	srli	a4,a5,0x5
    2e94:	4795                	li	a5,5
    2e96:	00f71863          	bne	a4,a5,2ea6 <gpio_init+0xd4>
C:\Users\山东张\Desktop\新建文件夹\新建文件夹 (2)\SLAVE527\SLAVE-hui\obj/../Libraries/seekfree_libraries/zf_gpio.c:53 (discriminator 1)
    2e9a:	4585                	li	a1,1
    2e9c:	08000513          	li	a0,128
    2ea0:	c71fe0ef          	jal	ra,1b10 <RCC_APB2PeriphClockCmd>
    2ea4:	a829                	j	2ebe <gpio_init+0xec>
C:\Users\山东张\Desktop\新建文件夹\新建文件夹 (2)\SLAVE527\SLAVE-hui\obj/../Libraries/seekfree_libraries/zf_gpio.c:54
    else if(6 == (pin >> 5)) RCC_APB2PeriphClockCmd(RCC_APB2Periph_GPIOG, ENABLE);
    2ea6:	fdc42783          	lw	a5,-36(s0)
    2eaa:	0057d713          	srli	a4,a5,0x5
    2eae:	4799                	li	a5,6
    2eb0:	00f71763          	bne	a4,a5,2ebe <gpio_init+0xec>
C:\Users\山东张\Desktop\新建文件夹\新建文件夹 (2)\SLAVE527\SLAVE-hui\obj/../Libraries/seekfree_libraries/zf_gpio.c:54 (discriminator 1)
    2eb4:	4585                	li	a1,1
    2eb6:	10000513          	li	a0,256
    2eba:	c57fe0ef          	jal	ra,1b10 <RCC_APB2PeriphClockCmd>
C:\Users\山东张\Desktop\新建文件夹\新建文件夹 (2)\SLAVE527\SLAVE-hui\obj/../Libraries/seekfree_libraries/zf_gpio.c:58


    //设置引脚号
    GPIO_InitStructure.GPIO_Pin = (uint16)(1 << io_pin);
    2ebe:	fee44783          	lbu	a5,-18(s0)
    2ec2:	4705                	li	a4,1
    2ec4:	00f717b3          	sll	a5,a4,a5
    2ec8:	07c2                	slli	a5,a5,0x10
    2eca:	83c1                	srli	a5,a5,0x10
    2ecc:	fef41023          	sh	a5,-32(s0)
C:\Users\山东张\Desktop\新建文件夹\新建文件夹 (2)\SLAVE527\SLAVE-hui\obj/../Libraries/seekfree_libraries/zf_gpio.c:60

    if(GPO == dir)
    2ed0:	fd842703          	lw	a4,-40(s0)
    2ed4:	4785                	li	a5,1
    2ed6:	02f71763          	bne	a4,a5,2f04 <gpio_init+0x132>
C:\Users\山东张\Desktop\新建文件夹\新建文件夹 (2)\SLAVE527\SLAVE-hui\obj/../Libraries/seekfree_libraries/zf_gpio.c:63
    {
        //只有输出需要设置速度
        if((uint16)pinconf >> 8 == 0) GPIO_InitStructure.GPIO_Speed = (GPIOSpeed_TypeDef)(GPIO_Speed_50MHz);  //防止没有填写这个参数,默认设置50Mhz
    2eda:	fd042783          	lw	a5,-48(s0)
    2ede:	07c2                	slli	a5,a5,0x10
    2ee0:	83c1                	srli	a5,a5,0x10
    2ee2:	83a1                	srli	a5,a5,0x8
    2ee4:	07c2                	slli	a5,a5,0x10
    2ee6:	83c1                	srli	a5,a5,0x10
    2ee8:	e789                	bnez	a5,2ef2 <gpio_init+0x120>
C:\Users\山东张\Desktop\新建文件夹\新建文件夹 (2)\SLAVE527\SLAVE-hui\obj/../Libraries/seekfree_libraries/zf_gpio.c:63 (discriminator 1)
    2eea:	478d                	li	a5,3
    2eec:	fef42223          	sw	a5,-28(s0)
    2ef0:	a811                	j	2f04 <gpio_init+0x132>
C:\Users\山东张\Desktop\新建文件夹\新建文件夹 (2)\SLAVE527\SLAVE-hui\obj/../Libraries/seekfree_libraries/zf_gpio.c:64
        else GPIO_InitStructure.GPIO_Speed = (GPIOSpeed_TypeDef)((uint16)pinconf >> 8);                       //已经填写了该参数。根据值来设置
    2ef2:	fd042783          	lw	a5,-48(s0)
    2ef6:	07c2                	slli	a5,a5,0x10
    2ef8:	83c1                	srli	a5,a5,0x10
    2efa:	83a1                	srli	a5,a5,0x8
    2efc:	07c2                	slli	a5,a5,0x10
    2efe:	83c1                	srli	a5,a5,0x10
    2f00:	fef42223          	sw	a5,-28(s0)
C:\Users\山东张\Desktop\新建文件夹\新建文件夹 (2)\SLAVE527\SLAVE-hui\obj/../Libraries/seekfree_libraries/zf_gpio.c:68
    }

    //设置模式
    GPIO_InitStructure.GPIO_Mode = (GPIOMode_TypeDef)((uint16)pinconf & 0xff);
    2f04:	fd042783          	lw	a5,-48(s0)
    2f08:	07c2                	slli	a5,a5,0x10
    2f0a:	83c1                	srli	a5,a5,0x10
    2f0c:	0ff7f793          	andi	a5,a5,255
    2f10:	fef42423          	sw	a5,-24(s0)
C:\Users\山东张\Desktop\新建文件夹\新建文件夹 (2)\SLAVE527\SLAVE-hui\obj/../Libraries/seekfree_libraries/zf_gpio.c:69
    GPIO_Init((GPIO_TypeDef *)(GPION[io_group]), &GPIO_InitStructure);
    2f14:	fef44703          	lbu	a4,-17(s0)
    2f18:	6795                	lui	a5,0x5
    2f1a:	070a                	slli	a4,a4,0x2
    2f1c:	5b078793          	addi	a5,a5,1456 # 55b0 <GPION>
    2f20:	97ba                	add	a5,a5,a4
    2f22:	439c                	lw	a5,0(a5)
    2f24:	873e                	mv	a4,a5
    2f26:	fe040793          	addi	a5,s0,-32
    2f2a:	85be                	mv	a1,a5
    2f2c:	853a                	mv	a0,a4
    2f2e:	bf0fe0ef          	jal	ra,131e <GPIO_Init>
C:\Users\山东张\Desktop\新建文件夹\新建文件夹 (2)\SLAVE527\SLAVE-hui\obj/../Libraries/seekfree_libraries/zf_gpio.c:71

    if(GPO == dir)
    2f32:	fd842703          	lw	a4,-40(s0)
    2f36:	4785                	li	a5,1
    2f38:	02f71b63          	bne	a4,a5,2f6e <gpio_init+0x19c>
C:\Users\山东张\Desktop\新建文件夹\新建文件夹 (2)\SLAVE527\SLAVE-hui\obj/../Libraries/seekfree_libraries/zf_gpio.c:74
    {
        //只有输出需要设置引脚状态
        GPIO_WriteBit((GPIO_TypeDef *)(GPION[io_group]), (uint16)(1 << io_pin), dat);
    2f3c:	fef44703          	lbu	a4,-17(s0)
    2f40:	6795                	lui	a5,0x5
    2f42:	070a                	slli	a4,a4,0x2
    2f44:	5b078793          	addi	a5,a5,1456 # 55b0 <GPION>
    2f48:	97ba                	add	a5,a5,a4
    2f4a:	439c                	lw	a5,0(a5)
    2f4c:	86be                	mv	a3,a5
    2f4e:	fee44783          	lbu	a5,-18(s0)
    2f52:	4705                	li	a4,1
    2f54:	00f717b3          	sll	a5,a4,a5
    2f58:	07c2                	slli	a5,a5,0x10
    2f5a:	83c1                	srli	a5,a5,0x10
    2f5c:	fd744703          	lbu	a4,-41(s0)
    2f60:	863a                	mv	a2,a4
    2f62:	85be                	mv	a1,a5
    2f64:	8536                	mv	a0,a3
    2f66:	de2fe0ef          	jal	ra,1548 <GPIO_WriteBit>
    2f6a:	a011                	j	2f6e <gpio_init+0x19c>
C:\Users\山东张\Desktop\新建文件夹\新建文件夹 (2)\SLAVE527\SLAVE-hui\obj/../Libraries/seekfree_libraries/zf_gpio.c:46
    if(PIN_NULL == pin) return;
    2f6c:	0001                	nop
C:\Users\山东张\Desktop\新建文件夹\新建文件夹 (2)\SLAVE527\SLAVE-hui\obj/../Libraries/seekfree_libraries/zf_gpio.c:76
    }
}
    2f6e:	50b2                	lw	ra,44(sp)
    2f70:	5422                	lw	s0,40(sp)
    2f72:	6145                	addi	sp,sp,48
    2f74:	8082                	ret

00002f76 <gpio_set>:
gpio_set():
C:\Users\山东张\Desktop\新建文件夹\新建文件夹 (2)\SLAVE527\SLAVE-hui\obj/../Libraries/seekfree_libraries/zf_gpio.c:86
//  @param      dat         引脚的电平状态，输出时有效 0：低电平 1：高电平
//  @return     void
//  Sample usage:           gpio_set(D0, 0);//D0输出低电平
//-------------------------------------------------------------------------------------------------------------------
void gpio_set(PIN_enum pin, uint8 dat)
{
    2f76:	7179                	addi	sp,sp,-48
    2f78:	d622                	sw	s0,44(sp)
    2f7a:	1800                	addi	s0,sp,48
    2f7c:	fca42e23          	sw	a0,-36(s0)
    2f80:	87ae                	mv	a5,a1
    2f82:	fcf40da3          	sb	a5,-37(s0)
C:\Users\山东张\Desktop\新建文件夹\新建文件夹 (2)\SLAVE527\SLAVE-hui\obj/../Libraries/seekfree_libraries/zf_gpio.c:87
    uint8 io_group = (pin & 0xE0) >> 5;
    2f86:	fdc42783          	lw	a5,-36(s0)
    2f8a:	8395                	srli	a5,a5,0x5
    2f8c:	0ff7f793          	andi	a5,a5,255
    2f90:	8b9d                	andi	a5,a5,7
    2f92:	fef407a3          	sb	a5,-17(s0)
C:\Users\山东张\Desktop\新建文件夹\新建文件夹 (2)\SLAVE527\SLAVE-hui\obj/../Libraries/seekfree_libraries/zf_gpio.c:88
    uint8 io_pin = pin & 0x1F;
    2f96:	fdc42783          	lw	a5,-36(s0)
    2f9a:	0ff7f793          	andi	a5,a5,255
    2f9e:	8bfd                	andi	a5,a5,31
    2fa0:	fef40723          	sb	a5,-18(s0)
C:\Users\山东张\Desktop\新建文件夹\新建文件夹 (2)\SLAVE527\SLAVE-hui\obj/../Libraries/seekfree_libraries/zf_gpio.c:90

    if (dat == 1)
    2fa4:	fdb44703          	lbu	a4,-37(s0)
    2fa8:	4785                	li	a5,1
    2faa:	02f71263          	bne	a4,a5,2fce <gpio_set+0x58>
C:\Users\山东张\Desktop\新建文件夹\新建文件夹 (2)\SLAVE527\SLAVE-hui\obj/../Libraries/seekfree_libraries/zf_gpio.c:91
         ((GPIO_TypeDef *)(GPION[io_group]))->BSHR = 1 << io_pin;
    2fae:	fee44783          	lbu	a5,-18(s0)
    2fb2:	4705                	li	a4,1
    2fb4:	00f716b3          	sll	a3,a4,a5
    2fb8:	fef44703          	lbu	a4,-17(s0)
    2fbc:	6795                	lui	a5,0x5
    2fbe:	070a                	slli	a4,a4,0x2
    2fc0:	5b078793          	addi	a5,a5,1456 # 55b0 <GPION>
    2fc4:	97ba                	add	a5,a5,a4
    2fc6:	439c                	lw	a5,0(a5)
    2fc8:	8736                	mv	a4,a3
    2fca:	cb98                	sw	a4,16(a5)
C:\Users\山东张\Desktop\新建文件夹\新建文件夹 (2)\SLAVE527\SLAVE-hui\obj/../Libraries/seekfree_libraries/zf_gpio.c:94
    else
         ((GPIO_TypeDef *)(GPION[io_group]))->BCR = 1 << io_pin;
}
    2fcc:	a005                	j	2fec <gpio_set+0x76>
C:\Users\山东张\Desktop\新建文件夹\新建文件夹 (2)\SLAVE527\SLAVE-hui\obj/../Libraries/seekfree_libraries/zf_gpio.c:93
         ((GPIO_TypeDef *)(GPION[io_group]))->BCR = 1 << io_pin;
    2fce:	fee44783          	lbu	a5,-18(s0)
    2fd2:	4705                	li	a4,1
    2fd4:	00f716b3          	sll	a3,a4,a5
    2fd8:	fef44703          	lbu	a4,-17(s0)
    2fdc:	6795                	lui	a5,0x5
    2fde:	070a                	slli	a4,a4,0x2
    2fe0:	5b078793          	addi	a5,a5,1456 # 55b0 <GPION>
    2fe4:	97ba                	add	a5,a5,a4
    2fe6:	439c                	lw	a5,0(a5)
    2fe8:	8736                	mv	a4,a3
    2fea:	cbd8                	sw	a4,20(a5)
C:\Users\山东张\Desktop\新建文件夹\新建文件夹 (2)\SLAVE527\SLAVE-hui\obj/../Libraries/seekfree_libraries/zf_gpio.c:94
}
    2fec:	0001                	nop
    2fee:	5432                	lw	s0,44(sp)
    2ff0:	6145                	addi	sp,sp,48
    2ff2:	8082                	ret

00002ff4 <gpio_get>:
gpio_get():
C:\Users\山东张\Desktop\新建文件夹\新建文件夹 (2)\SLAVE527\SLAVE-hui\obj/../Libraries/seekfree_libraries/zf_gpio.c:103
//  @param      pin         选择的引脚 (可选择范围由 common.h 内PIN_enum枚举值确定)
//  @return     uint8       0：低电平 1：高电平
//  Sample usage:           uint8 status = gpio_get(D0);//获取D0引脚电平
//-------------------------------------------------------------------------------------------------------------------
uint8 gpio_get(PIN_enum pin)
{
    2ff4:	7179                	addi	sp,sp,-48
    2ff6:	d622                	sw	s0,44(sp)
    2ff8:	1800                	addi	s0,sp,48
    2ffa:	fca42e23          	sw	a0,-36(s0)
C:\Users\山东张\Desktop\新建文件夹\新建文件夹 (2)\SLAVE527\SLAVE-hui\obj/../Libraries/seekfree_libraries/zf_gpio.c:104
    uint8 io_group = (pin & 0xE0) >> 5;
    2ffe:	fdc42783          	lw	a5,-36(s0)
    3002:	8395                	srli	a5,a5,0x5
    3004:	0ff7f793          	andi	a5,a5,255
    3008:	8b9d                	andi	a5,a5,7
    300a:	fef407a3          	sb	a5,-17(s0)
C:\Users\山东张\Desktop\新建文件夹\新建文件夹 (2)\SLAVE527\SLAVE-hui\obj/../Libraries/seekfree_libraries/zf_gpio.c:105
    uint8 io_pin = pin & 0x1F;
    300e:	fdc42783          	lw	a5,-36(s0)
    3012:	0ff7f793          	andi	a5,a5,255
    3016:	8bfd                	andi	a5,a5,31
    3018:	fef40723          	sb	a5,-18(s0)
C:\Users\山东张\Desktop\新建文件夹\新建文件夹 (2)\SLAVE527\SLAVE-hui\obj/../Libraries/seekfree_libraries/zf_gpio.c:107

    if((((GPIO_TypeDef *)(GPION[io_group]))->INDR & (1 << io_pin)) != 0)
    301c:	fef44703          	lbu	a4,-17(s0)
    3020:	6795                	lui	a5,0x5
    3022:	070a                	slli	a4,a4,0x2
    3024:	5b078793          	addi	a5,a5,1456 # 55b0 <GPION>
    3028:	97ba                	add	a5,a5,a4
    302a:	439c                	lw	a5,0(a5)
    302c:	479c                	lw	a5,8(a5)
    302e:	fee44703          	lbu	a4,-18(s0)
    3032:	4685                	li	a3,1
    3034:	00e69733          	sll	a4,a3,a4
    3038:	8ff9                	and	a5,a5,a4
    303a:	c399                	beqz	a5,3040 <gpio_get+0x4c>
C:\Users\山东张\Desktop\新建文件夹\新建文件夹 (2)\SLAVE527\SLAVE-hui\obj/../Libraries/seekfree_libraries/zf_gpio.c:109
    {
        return 1;
    303c:	4785                	li	a5,1
    303e:	a011                	j	3042 <gpio_get+0x4e>
C:\Users\山东张\Desktop\新建文件夹\新建文件夹 (2)\SLAVE527\SLAVE-hui\obj/../Libraries/seekfree_libraries/zf_gpio.c:111
    }
    return 0;
    3040:	4781                	li	a5,0
C:\Users\山东张\Desktop\新建文件夹\新建文件夹 (2)\SLAVE527\SLAVE-hui\obj/../Libraries/seekfree_libraries/zf_gpio.c:114


}
    3042:	853e                	mv	a0,a5
    3044:	5432                	lw	s0,44(sp)
    3046:	6145                	addi	sp,sp,48
    3048:	8082                	ret

0000304a <gpio_interrupt_init>:
gpio_interrupt_init():
C:\Users\山东张\Desktop\新建文件夹\新建文件夹 (2)\SLAVE527\SLAVE-hui\obj/../Libraries/seekfree_libraries/zf_gpio.c:141
//  @param      trigger     中断触发方式 选择范围参见h文件TRIGGER_enum枚举
//  @return     void
//  Sample usage:           gpio_interrupt_init(D0, RISING, GPIO_INT_CONFIG);//D0上升沿中断
//-------------------------------------------------------------------------------------------------------------------
void gpio_interrupt_init(PIN_enum pin,TRIGGER_enum trigger, uint32 pinconf)
{
    304a:	7179                	addi	sp,sp,-48
    304c:	d606                	sw	ra,44(sp)
    304e:	d422                	sw	s0,40(sp)
    3050:	1800                	addi	s0,sp,48
    3052:	fca42e23          	sw	a0,-36(s0)
    3056:	fcb42c23          	sw	a1,-40(s0)
    305a:	fcc42a23          	sw	a2,-44(s0)
C:\Users\山东张\Desktop\新建文件夹\新建文件夹 (2)\SLAVE527\SLAVE-hui\obj/../Libraries/seekfree_libraries/zf_gpio.c:143
    EXTI_InitTypeDef EXTI_InitStructure;
    RCC_APB2PeriphClockCmd(RCC_APB2Periph_AFIO,ENABLE);
    305e:	4585                	li	a1,1
    3060:	4505                	li	a0,1
    3062:	aaffe0ef          	jal	ra,1b10 <RCC_APB2PeriphClockCmd>
C:\Users\山东张\Desktop\新建文件夹\新建文件夹 (2)\SLAVE527\SLAVE-hui\obj/../Libraries/seekfree_libraries/zf_gpio.c:144
    gpio_init(pin, GPI, 0, pinconf);
    3066:	fd442683          	lw	a3,-44(s0)
    306a:	4601                	li	a2,0
    306c:	4581                	li	a1,0
    306e:	fdc42503          	lw	a0,-36(s0)
    3072:	3385                	jal	2dd2 <gpio_init>
C:\Users\山东张\Desktop\新建文件夹\新建文件夹 (2)\SLAVE527\SLAVE-hui\obj/../Libraries/seekfree_libraries/zf_gpio.c:145
    GPIO_EXTILineConfig(pin >> 5, pin & 0x1F);              //引脚中断号配置
    3074:	fdc42783          	lw	a5,-36(s0)
    3078:	8395                	srli	a5,a5,0x5
    307a:	0ff7f713          	andi	a4,a5,255
    307e:	fdc42783          	lw	a5,-36(s0)
    3082:	0ff7f793          	andi	a5,a5,255
    3086:	8bfd                	andi	a5,a5,31
    3088:	0ff7f793          	andi	a5,a5,255
    308c:	85be                	mv	a1,a5
    308e:	853a                	mv	a0,a4
    3090:	e2cfe0ef          	jal	ra,16bc <GPIO_EXTILineConfig>
C:\Users\山东张\Desktop\新建文件夹\新建文件夹 (2)\SLAVE527\SLAVE-hui\obj/../Libraries/seekfree_libraries/zf_gpio.c:146
    EXTI_InitStructure.EXTI_Line = 1 << (pin & 0x1F);       //引脚号配置
    3094:	fdc42783          	lw	a5,-36(s0)
    3098:	8bfd                	andi	a5,a5,31
    309a:	4705                	li	a4,1
    309c:	00f717b3          	sll	a5,a4,a5
    30a0:	fef42023          	sw	a5,-32(s0)
C:\Users\山东张\Desktop\新建文件夹\新建文件夹 (2)\SLAVE527\SLAVE-hui\obj/../Libraries/seekfree_libraries/zf_gpio.c:147
    EXTI_InitStructure.EXTI_Mode = EXTI_Mode_Interrupt;     //触发模式
    30a4:	fe042223          	sw	zero,-28(s0)
C:\Users\山东张\Desktop\新建文件夹\新建文件夹 (2)\SLAVE527\SLAVE-hui\obj/../Libraries/seekfree_libraries/zf_gpio.c:148
    EXTI_InitStructure.EXTI_Trigger = trigger;              //触发方式
    30a8:	fd842783          	lw	a5,-40(s0)
    30ac:	fef42423          	sw	a5,-24(s0)
C:\Users\山东张\Desktop\新建文件夹\新建文件夹 (2)\SLAVE527\SLAVE-hui\obj/../Libraries/seekfree_libraries/zf_gpio.c:149
    EXTI_InitStructure.EXTI_LineCmd = ENABLE;               //使能或者失能
    30b0:	4785                	li	a5,1
    30b2:	fef42623          	sw	a5,-20(s0)
C:\Users\山东张\Desktop\新建文件夹\新建文件夹 (2)\SLAVE527\SLAVE-hui\obj/../Libraries/seekfree_libraries/zf_gpio.c:150
    EXTI_Init(&EXTI_InitStructure);
    30b6:	fe040793          	addi	a5,s0,-32
    30ba:	853e                	mv	a0,a5
    30bc:	87cfe0ef          	jal	ra,1138 <EXTI_Init>
C:\Users\山东张\Desktop\新建文件夹\新建文件夹 (2)\SLAVE527\SLAVE-hui\obj/../Libraries/seekfree_libraries/zf_gpio.c:151
}
    30c0:	0001                	nop
    30c2:	50b2                	lw	ra,44(sp)
    30c4:	5422                	lw	s0,40(sp)
    30c6:	6145                	addi	sp,sp,48
    30c8:	8082                	ret

000030ca <nvic_init>:
nvic_init():
C:\Users\山东张\Desktop\新建文件夹\新建文件夹 (2)\SLAVE527\SLAVE-hui\obj/../Libraries/seekfree_libraries/zf_nvic.c:38
//  @param      status                      使能或者失能
//  @return     void
//  Sample usage:                           nvic_init(EXTI0_IRQn,0, 0, ENABLE); //外部中断0使能,抢占优先级最高，次优先级最高。
//-------------------------------------------------------------------------------------------------------------------
void nvic_init(IRQn_Type irqn,uint8 preemption_priority, uint8 sub_priority,uint8 status)
{
    30ca:	7179                	addi	sp,sp,-48
    30cc:	d606                	sw	ra,44(sp)
    30ce:	d422                	sw	s0,40(sp)
    30d0:	1800                	addi	s0,sp,48
    30d2:	fca42e23          	sw	a0,-36(s0)
    30d6:	87ae                	mv	a5,a1
    30d8:	8736                	mv	a4,a3
    30da:	fcf40da3          	sb	a5,-37(s0)
    30de:	87b2                	mv	a5,a2
    30e0:	fcf40d23          	sb	a5,-38(s0)
    30e4:	87ba                	mv	a5,a4
    30e6:	fcf40ca3          	sb	a5,-39(s0)
C:\Users\山东张\Desktop\新建文件夹\新建文件夹 (2)\SLAVE527\SLAVE-hui\obj/../Libraries/seekfree_libraries/zf_nvic.c:41
    NVIC_InitTypeDef NVIC_InitStructure;

    NVIC_InitStructure.NVIC_IRQChannel = irqn;                                  //中断号设置
    30ea:	fdc42783          	lw	a5,-36(s0)
    30ee:	0ff7f793          	andi	a5,a5,255
    30f2:	fef40423          	sb	a5,-24(s0)
C:\Users\山东张\Desktop\新建文件夹\新建文件夹 (2)\SLAVE527\SLAVE-hui\obj/../Libraries/seekfree_libraries/zf_nvic.c:42
    NVIC_InitStructure.NVIC_IRQChannelPreemptionPriority=preemption_priority;   //抢占优先级值越小，优先级越高
    30f6:	fdb44783          	lbu	a5,-37(s0)
    30fa:	fef404a3          	sb	a5,-23(s0)
C:\Users\山东张\Desktop\新建文件夹\新建文件夹 (2)\SLAVE527\SLAVE-hui\obj/../Libraries/seekfree_libraries/zf_nvic.c:43
    NVIC_InitStructure.NVIC_IRQChannelSubPriority = sub_priority;               //次优先级值越小，优先级越高
    30fe:	fda44783          	lbu	a5,-38(s0)
    3102:	fef40523          	sb	a5,-22(s0)
C:\Users\山东张\Desktop\新建文件夹\新建文件夹 (2)\SLAVE527\SLAVE-hui\obj/../Libraries/seekfree_libraries/zf_nvic.c:44
    NVIC_InitStructure.NVIC_IRQChannelCmd = status;                             //使能
    3106:	fd944783          	lbu	a5,-39(s0)
    310a:	fef42623          	sw	a5,-20(s0)
C:\Users\山东张\Desktop\新建文件夹\新建文件夹 (2)\SLAVE527\SLAVE-hui\obj/../Libraries/seekfree_libraries/zf_nvic.c:45
    NVIC_Init(&NVIC_InitStructure);
    310e:	fe840793          	addi	a5,s0,-24
    3112:	853e                	mv	a0,a5
    3114:	ed8fe0ef          	jal	ra,17ec <NVIC_Init>
C:\Users\山东张\Desktop\新建文件夹\新建文件夹 (2)\SLAVE527\SLAVE-hui\obj/../Libraries/seekfree_libraries/zf_nvic.c:48

    //保存状态值
    irq_status.ienr0 |= (PFIC->ISR[0] & 0xFFFFF000);    //[31:12]
    3118:	e000e7b7          	lui	a5,0xe000e
    311c:	4398                	lw	a4,0(a5)
    311e:	77fd                	lui	a5,0xfffff
    3120:	8f7d                	and	a4,a4,a5
    3122:	200027b7          	lui	a5,0x20002
    3126:	6907a783          	lw	a5,1680(a5) # 20002690 <irq_status>
    312a:	8f5d                	or	a4,a4,a5
    312c:	200027b7          	lui	a5,0x20002
    3130:	68e7a823          	sw	a4,1680(a5) # 20002690 <irq_status>
C:\Users\山东张\Desktop\新建文件夹\新建文件夹 (2)\SLAVE527\SLAVE-hui\obj/../Libraries/seekfree_libraries/zf_nvic.c:49
    irq_status.ienr1 |= (PFIC->ISR[1] & 0x0FFFFFFF);    //[27:0]
    3134:	e000e7b7          	lui	a5,0xe000e
    3138:	43d8                	lw	a4,4(a5)
    313a:	100007b7          	lui	a5,0x10000
    313e:	17fd                	addi	a5,a5,-1
    3140:	8f7d                	and	a4,a4,a5
    3142:	200027b7          	lui	a5,0x20002
    3146:	69078793          	addi	a5,a5,1680 # 20002690 <irq_status>
    314a:	43dc                	lw	a5,4(a5)
    314c:	8f5d                	or	a4,a4,a5
    314e:	200027b7          	lui	a5,0x20002
    3152:	69078793          	addi	a5,a5,1680 # 20002690 <irq_status>
    3156:	c3d8                	sw	a4,4(a5)
C:\Users\山东张\Desktop\新建文件夹\新建文件夹 (2)\SLAVE527\SLAVE-hui\obj/../Libraries/seekfree_libraries/zf_nvic.c:50
    if(irq_status.flag == 1)
    3158:	200027b7          	lui	a5,0x20002
    315c:	69078793          	addi	a5,a5,1680 # 20002690 <irq_status>
    3160:	0087c703          	lbu	a4,8(a5)
    3164:	4785                	li	a5,1
    3166:	00f71363          	bne	a4,a5,316c <nvic_init+0xa2>
C:\Users\山东张\Desktop\新建文件夹\新建文件夹 (2)\SLAVE527\SLAVE-hui\obj/../Libraries/seekfree_libraries/zf_nvic.c:52
    {
        close_all_irq();
    316a:	2031                	jal	3176 <close_all_irq>
C:\Users\山东张\Desktop\新建文件夹\新建文件夹 (2)\SLAVE527\SLAVE-hui\obj/../Libraries/seekfree_libraries/zf_nvic.c:54
    }
}
    316c:	0001                	nop
    316e:	50b2                	lw	ra,44(sp)
    3170:	5422                	lw	s0,40(sp)
    3172:	6145                	addi	sp,sp,48
    3174:	8082                	ret

00003176 <close_all_irq>:
close_all_irq():
C:\Users\山东张\Desktop\新建文件夹\新建文件夹 (2)\SLAVE527\SLAVE-hui\obj/../Libraries/seekfree_libraries/zf_nvic.c:63
//  @return     void
//  @since      v1.0
//  Sample usage:
//-------------------------------------------------------------------------------------------------------------------
void close_all_irq(void)
{
    3176:	1141                	addi	sp,sp,-16
    3178:	c622                	sw	s0,12(sp)
    317a:	0800                	addi	s0,sp,16
C:\Users\山东张\Desktop\新建文件夹\新建文件夹 (2)\SLAVE527\SLAVE-hui\obj/../Libraries/seekfree_libraries/zf_nvic.c:65
    //写1，清空状态
    PFIC->IRER[0] = 0xffffffff;
    317c:	e000e7b7          	lui	a5,0xe000e
    3180:	577d                	li	a4,-1
    3182:	18e7a023          	sw	a4,384(a5) # e000e180 <_eusrstack+0xc0009180>
C:\Users\山东张\Desktop\新建文件夹\新建文件夹 (2)\SLAVE527\SLAVE-hui\obj/../Libraries/seekfree_libraries/zf_nvic.c:66
    PFIC->IRER[1] = 0xffffffff;
    3186:	e000e7b7          	lui	a5,0xe000e
    318a:	577d                	li	a4,-1
    318c:	18e7a223          	sw	a4,388(a5) # e000e184 <_eusrstack+0xc0009184>
C:\Users\山东张\Desktop\新建文件夹\新建文件夹 (2)\SLAVE527\SLAVE-hui\obj/../Libraries/seekfree_libraries/zf_nvic.c:67
}
    3190:	0001                	nop
    3192:	4432                	lw	s0,12(sp)
    3194:	0141                	addi	sp,sp,16
    3196:	8082                	ret

00003198 <sys_recover_irq>:
sys_recover_irq():
C:\Users\山东张\Desktop\新建文件夹\新建文件夹 (2)\SLAVE527\SLAVE-hui\obj/../Libraries/seekfree_libraries/zf_nvic.c:77
//  @return     void
//  @since      v1.0
//  Sample usage:
//-------------------------------------------------------------------------------------------------------------------
void sys_recover_irq(void)
{
    3198:	1141                	addi	sp,sp,-16
    319a:	c622                	sw	s0,12(sp)
    319c:	0800                	addi	s0,sp,16
C:\Users\山东张\Desktop\新建文件夹\新建文件夹 (2)\SLAVE527\SLAVE-hui\obj/../Libraries/seekfree_libraries/zf_nvic.c:78
    PFIC->IENR[0] = irq_status.ienr0;
    319e:	e000e7b7          	lui	a5,0xe000e
    31a2:	20002737          	lui	a4,0x20002
    31a6:	69072703          	lw	a4,1680(a4) # 20002690 <irq_status>
    31aa:	10e7a023          	sw	a4,256(a5) # e000e100 <_eusrstack+0xc0009100>
C:\Users\山东张\Desktop\新建文件夹\新建文件夹 (2)\SLAVE527\SLAVE-hui\obj/../Libraries/seekfree_libraries/zf_nvic.c:79
    PFIC->IENR[1] = irq_status.ienr1;
    31ae:	e000e7b7          	lui	a5,0xe000e
    31b2:	20002737          	lui	a4,0x20002
    31b6:	69070713          	addi	a4,a4,1680 # 20002690 <irq_status>
    31ba:	4358                	lw	a4,4(a4)
    31bc:	10e7a223          	sw	a4,260(a5) # e000e104 <_eusrstack+0xc0009104>
C:\Users\山东张\Desktop\新建文件夹\新建文件夹 (2)\SLAVE527\SLAVE-hui\obj/../Libraries/seekfree_libraries/zf_nvic.c:80
}
    31c0:	0001                	nop
    31c2:	4432                	lw	s0,12(sp)
    31c4:	0141                	addi	sp,sp,16
    31c6:	8082                	ret

000031c8 <DisableGlobalIRQ>:
DisableGlobalIRQ():
C:\Users\山东张\Desktop\新建文件夹\新建文件夹 (2)\SLAVE527\SLAVE-hui\obj/../Libraries/seekfree_libraries/zf_nvic.c:90
//  @return     void
//  @since      v1.0
//  Sample usage:
//-------------------------------------------------------------------------------------------------------------------
uint8 DisableGlobalIRQ(void)
{
    31c8:	1101                	addi	sp,sp,-32
    31ca:	ce06                	sw	ra,28(sp)
    31cc:	cc22                	sw	s0,24(sp)
    31ce:	1000                	addi	s0,sp,32
C:\Users\山东张\Desktop\新建文件夹\新建文件夹 (2)\SLAVE527\SLAVE-hui\obj/../Libraries/seekfree_libraries/zf_nvic.c:92
    uint8 state;
    irq_status.flag = 1;
    31d0:	200027b7          	lui	a5,0x20002
    31d4:	69078793          	addi	a5,a5,1680 # 20002690 <irq_status>
    31d8:	4705                	li	a4,1
    31da:	00e78423          	sb	a4,8(a5)
C:\Users\山东张\Desktop\新建文件夹\新建文件夹 (2)\SLAVE527\SLAVE-hui\obj/../Libraries/seekfree_libraries/zf_nvic.c:93
    if((irq_status.ienr0 == 0) && (irq_status.ienr1 == 0))   state = 0;  //没有就返回0
    31de:	200027b7          	lui	a5,0x20002
    31e2:	6907a783          	lw	a5,1680(a5) # 20002690 <irq_status>
    31e6:	eb91                	bnez	a5,31fa <DisableGlobalIRQ+0x32>
C:\Users\山东张\Desktop\新建文件夹\新建文件夹 (2)\SLAVE527\SLAVE-hui\obj/../Libraries/seekfree_libraries/zf_nvic.c:93 (discriminator 1)
    31e8:	200027b7          	lui	a5,0x20002
    31ec:	69078793          	addi	a5,a5,1680 # 20002690 <irq_status>
    31f0:	43dc                	lw	a5,4(a5)
    31f2:	e781                	bnez	a5,31fa <DisableGlobalIRQ+0x32>
C:\Users\山东张\Desktop\新建文件夹\新建文件夹 (2)\SLAVE527\SLAVE-hui\obj/../Libraries/seekfree_libraries/zf_nvic.c:93 (discriminator 2)
    31f4:	fe0407a3          	sb	zero,-17(s0)
    31f8:	a021                	j	3200 <DisableGlobalIRQ+0x38>
C:\Users\山东张\Desktop\新建文件夹\新建文件夹 (2)\SLAVE527\SLAVE-hui\obj/../Libraries/seekfree_libraries/zf_nvic.c:94
    else state = 1;  //有中断就返回1
    31fa:	4785                	li	a5,1
    31fc:	fef407a3          	sb	a5,-17(s0)
C:\Users\山东张\Desktop\新建文件夹\新建文件夹 (2)\SLAVE527\SLAVE-hui\obj/../Libraries/seekfree_libraries/zf_nvic.c:95
    close_all_irq();
    3200:	3f9d                	jal	3176 <close_all_irq>
C:\Users\山东张\Desktop\新建文件夹\新建文件夹 (2)\SLAVE527\SLAVE-hui\obj/../Libraries/seekfree_libraries/zf_nvic.c:96
    return state;
    3202:	fef44783          	lbu	a5,-17(s0)
C:\Users\山东张\Desktop\新建文件夹\新建文件夹 (2)\SLAVE527\SLAVE-hui\obj/../Libraries/seekfree_libraries/zf_nvic.c:97
}
    3206:	853e                	mv	a0,a5
    3208:	40f2                	lw	ra,28(sp)
    320a:	4462                	lw	s0,24(sp)
    320c:	6105                	addi	sp,sp,32
    320e:	8082                	ret

00003210 <EnableGlobalIRQ>:
EnableGlobalIRQ():
C:\Users\山东张\Desktop\新建文件夹\新建文件夹 (2)\SLAVE527\SLAVE-hui\obj/../Libraries/seekfree_libraries/zf_nvic.c:107
//  @return     void
//  @since      v1.0
//  Sample usage:
//-------------------------------------------------------------------------------------------------------------------
void EnableGlobalIRQ(uint8 state)
{
    3210:	1101                	addi	sp,sp,-32
    3212:	ce06                	sw	ra,28(sp)
    3214:	cc22                	sw	s0,24(sp)
    3216:	1000                	addi	s0,sp,32
    3218:	87aa                	mv	a5,a0
    321a:	fef407a3          	sb	a5,-17(s0)
C:\Users\山东张\Desktop\新建文件夹\新建文件夹 (2)\SLAVE527\SLAVE-hui\obj/../Libraries/seekfree_libraries/zf_nvic.c:108
    if(state == 0)
    321e:	fef44783          	lbu	a5,-17(s0)
    3222:	eb81                	bnez	a5,3232 <EnableGlobalIRQ+0x22>
C:\Users\山东张\Desktop\新建文件夹\新建文件夹 (2)\SLAVE527\SLAVE-hui\obj/../Libraries/seekfree_libraries/zf_nvic.c:110
    {
        irq_status.flag = 0;
    3224:	200027b7          	lui	a5,0x20002
    3228:	69078793          	addi	a5,a5,1680 # 20002690 <irq_status>
    322c:	00078423          	sb	zero,8(a5)
C:\Users\山东张\Desktop\新建文件夹\新建文件夹 (2)\SLAVE527\SLAVE-hui\obj/../Libraries/seekfree_libraries/zf_nvic.c:111
        sys_recover_irq();
    3230:	37a5                	jal	3198 <sys_recover_irq>
C:\Users\山东张\Desktop\新建文件夹\新建文件夹 (2)\SLAVE527\SLAVE-hui\obj/../Libraries/seekfree_libraries/zf_nvic.c:113
    }
}
    3232:	0001                	nop
    3234:	40f2                	lw	ra,28(sp)
    3236:	4462                	lw	s0,24(sp)
    3238:	6105                	addi	sp,sp,32
    323a:	8082                	ret

0000323c <timer_pit_interrupt_ms>:
timer_pit_interrupt_ms():
C:\Users\山东张\Desktop\新建文件夹\新建文件夹 (2)\SLAVE527\SLAVE-hui\obj/../Libraries/seekfree_libraries/zf_pit.c:36
//  @param      ms          定时周期(1-32767)
//  @return     void
//  Sample usage:           timer_pit_interrupt(TIMER_1, 5); 使用定时器1作为5ms一次的周期中断
//-------------------------------------------------------------------------------------------------------------------
void timer_pit_interrupt_ms(TIMERN_enum timern, uint16 ms)
{
    323c:	7179                	addi	sp,sp,-48
    323e:	d606                	sw	ra,44(sp)
    3240:	d422                	sw	s0,40(sp)
    3242:	1800                	addi	s0,sp,48
    3244:	fca42e23          	sw	a0,-36(s0)
    3248:	87ae                	mv	a5,a1
    324a:	fcf41d23          	sh	a5,-38(s0)
C:\Users\山东张\Desktop\新建文件夹\新建文件夹 (2)\SLAVE527\SLAVE-hui\obj/../Libraries/seekfree_libraries/zf_pit.c:39
    TIM_TimeBaseInitTypeDef  TIM_TimeBaseStructure;

    if(TIMER_1 == timern)
    324e:	fdc42783          	lw	a5,-36(s0)
    3252:	eb81                	bnez	a5,3262 <timer_pit_interrupt_ms+0x26>
C:\Users\山东张\Desktop\新建文件夹\新建文件夹 (2)\SLAVE527\SLAVE-hui\obj/../Libraries/seekfree_libraries/zf_pit.c:40
        RCC_APB2PeriphClockCmd(RCC_APB2Periph_TIM1, ENABLE);                //时钟使能
    3254:	4585                	li	a1,1
    3256:	6785                	lui	a5,0x1
    3258:	80078513          	addi	a0,a5,-2048 # 800 <__stack_size>
    325c:	8b5fe0ef          	jal	ra,1b10 <RCC_APB2PeriphClockCmd>
    3260:	a835                	j	329c <timer_pit_interrupt_ms+0x60>
C:\Users\山东张\Desktop\新建文件夹\新建文件夹 (2)\SLAVE527\SLAVE-hui\obj/../Libraries/seekfree_libraries/zf_pit.c:41
    else if(TIMER_2 == timern)
    3262:	fdc42703          	lw	a4,-36(s0)
    3266:	4785                	li	a5,1
    3268:	00f71763          	bne	a4,a5,3276 <timer_pit_interrupt_ms+0x3a>
C:\Users\山东张\Desktop\新建文件夹\新建文件夹 (2)\SLAVE527\SLAVE-hui\obj/../Libraries/seekfree_libraries/zf_pit.c:42
        RCC_APB1PeriphClockCmd(RCC_APB1Periph_TIM2, ENABLE);                //时钟使能
    326c:	4585                	li	a1,1
    326e:	4505                	li	a0,1
    3270:	8e7fe0ef          	jal	ra,1b56 <RCC_APB1PeriphClockCmd>
    3274:	a025                	j	329c <timer_pit_interrupt_ms+0x60>
C:\Users\山东张\Desktop\新建文件夹\新建文件夹 (2)\SLAVE527\SLAVE-hui\obj/../Libraries/seekfree_libraries/zf_pit.c:43
    else if(TIMER_3 == timern)
    3276:	fdc42703          	lw	a4,-36(s0)
    327a:	4789                	li	a5,2
    327c:	00f71763          	bne	a4,a5,328a <timer_pit_interrupt_ms+0x4e>
C:\Users\山东张\Desktop\新建文件夹\新建文件夹 (2)\SLAVE527\SLAVE-hui\obj/../Libraries/seekfree_libraries/zf_pit.c:44
        RCC_APB1PeriphClockCmd(RCC_APB1Periph_TIM3, ENABLE);                //时钟使能
    3280:	4585                	li	a1,1
    3282:	4509                	li	a0,2
    3284:	8d3fe0ef          	jal	ra,1b56 <RCC_APB1PeriphClockCmd>
    3288:	a811                	j	329c <timer_pit_interrupt_ms+0x60>
C:\Users\山东张\Desktop\新建文件夹\新建文件夹 (2)\SLAVE527\SLAVE-hui\obj/../Libraries/seekfree_libraries/zf_pit.c:45
    else if(TIMER_4 == timern)
    328a:	fdc42703          	lw	a4,-36(s0)
    328e:	478d                	li	a5,3
    3290:	00f71663          	bne	a4,a5,329c <timer_pit_interrupt_ms+0x60>
C:\Users\山东张\Desktop\新建文件夹\新建文件夹 (2)\SLAVE527\SLAVE-hui\obj/../Libraries/seekfree_libraries/zf_pit.c:46
        RCC_APB1PeriphClockCmd(RCC_APB1Periph_TIM4, ENABLE);                //时钟使能
    3294:	4585                	li	a1,1
    3296:	4511                	li	a0,4
    3298:	8bffe0ef          	jal	ra,1b56 <RCC_APB1PeriphClockCmd>
C:\Users\山东张\Desktop\新建文件夹\新建文件夹 (2)\SLAVE527\SLAVE-hui\obj/../Libraries/seekfree_libraries/zf_pit.c:50

    //定时器TIM3初始化,计数器
    //ATRLR寄存器设置为1 ，则计数0和1，一共2次
    assert(ms);
    329c:	fda45783          	lhu	a5,-38(s0)
    32a0:	ef91                	bnez	a5,32bc <timer_pit_interrupt_ms+0x80>
C:\Users\山东张\Desktop\新建文件夹\新建文件夹 (2)\SLAVE527\SLAVE-hui\obj/../Libraries/seekfree_libraries/zf_pit.c:50 (discriminator 1)
    32a2:	6795                	lui	a5,0x5
    32a4:	57c78693          	addi	a3,a5,1404 # 557c <_exit+0x4>
    32a8:	6795                	lui	a5,0x5
    32aa:	5c078613          	addi	a2,a5,1472 # 55c0 <__func__.3548>
    32ae:	03200593          	li	a1,50
    32b2:	6795                	lui	a5,0x5
    32b4:	58078513          	addi	a0,a5,1408 # 5580 <_exit+0x8>
    32b8:	028010ef          	jal	ra,42e0 <__assert_func>
C:\Users\山东张\Desktop\新建文件夹\新建文件夹 (2)\SLAVE527\SLAVE-hui\obj/../Libraries/seekfree_libraries/zf_pit.c:53


    TIM_TimeBaseStructure.TIM_Period = sys_clk/2000 - 1;                    //计数44000
    32bc:	8381a703          	lw	a4,-1992(gp) # 200000f0 <sys_clk>
    32c0:	7d000793          	li	a5,2000
    32c4:	02f757b3          	divu	a5,a4,a5
    32c8:	07c2                	slli	a5,a5,0x10
    32ca:	83c1                	srli	a5,a5,0x10
    32cc:	17fd                	addi	a5,a5,-1
    32ce:	07c2                	slli	a5,a5,0x10
    32d0:	83c1                	srli	a5,a5,0x10
    32d2:	fef41423          	sh	a5,-24(s0)
C:\Users\山东张\Desktop\新建文件夹\新建文件夹 (2)\SLAVE527\SLAVE-hui\obj/../Libraries/seekfree_libraries/zf_pit.c:54
    TIM_TimeBaseStructure.TIM_Prescaler = 2*ms - 1;                      //设置为1MHZ计数一次,也就是1us计数一次
    32d6:	fda45783          	lhu	a5,-38(s0)
    32da:	0786                	slli	a5,a5,0x1
    32dc:	07c2                	slli	a5,a5,0x10
    32de:	83c1                	srli	a5,a5,0x10
    32e0:	17fd                	addi	a5,a5,-1
    32e2:	07c2                	slli	a5,a5,0x10
    32e4:	83c1                	srli	a5,a5,0x10
    32e6:	fef41223          	sh	a5,-28(s0)
C:\Users\山东张\Desktop\新建文件夹\新建文件夹 (2)\SLAVE527\SLAVE-hui\obj/../Libraries/seekfree_libraries/zf_pit.c:56

    TIM_TimeBaseStructure.TIM_ClockDivision = TIM_CKD_DIV1;                 //设置时钟分割:TDTS = Tck_tim
    32ea:	fe041523          	sh	zero,-22(s0)
C:\Users\山东张\Desktop\新建文件夹\新建文件夹 (2)\SLAVE527\SLAVE-hui\obj/../Libraries/seekfree_libraries/zf_pit.c:57
    TIM_TimeBaseStructure.TIM_CounterMode = TIM_CounterMode_Up;             //TIM向上计数模式
    32ee:	fe041323          	sh	zero,-26(s0)
C:\Users\山东张\Desktop\新建文件夹\新建文件夹 (2)\SLAVE527\SLAVE-hui\obj/../Libraries/seekfree_libraries/zf_pit.c:58
    TIM_TimeBaseStructure.TIM_RepetitionCounter = 0;                        //重复计数器设置为0
    32f2:	fe040623          	sb	zero,-20(s0)
C:\Users\山东张\Desktop\新建文件夹\新建文件夹 (2)\SLAVE527\SLAVE-hui\obj/../Libraries/seekfree_libraries/zf_pit.c:59
    TIM_TimeBaseInit((TIM_TypeDef *)TIMERN[timern], &TIM_TimeBaseStructure);//根据指定的参数初始化TIMx的时间基数单位
    32f6:	6795                	lui	a5,0x5
    32f8:	fdc42703          	lw	a4,-36(s0)
    32fc:	070a                	slli	a4,a4,0x2
    32fe:	5d878793          	addi	a5,a5,1496 # 55d8 <TIMERN>
    3302:	97ba                	add	a5,a5,a4
    3304:	439c                	lw	a5,0(a5)
    3306:	873e                	mv	a4,a5
    3308:	fe440793          	addi	a5,s0,-28
    330c:	85be                	mv	a1,a5
    330e:	853a                	mv	a0,a4
    3310:	88dfe0ef          	jal	ra,1b9c <TIM_TimeBaseInit>
C:\Users\山东张\Desktop\新建文件夹\新建文件夹 (2)\SLAVE527\SLAVE-hui\obj/../Libraries/seekfree_libraries/zf_pit.c:61

    TIM_ITConfig((TIM_TypeDef *)TIMERN[timern],TIM_IT_Update,ENABLE );      //使能指定的TIM中断,允许更新中断
    3314:	6795                	lui	a5,0x5
    3316:	fdc42703          	lw	a4,-36(s0)
    331a:	070a                	slli	a4,a4,0x2
    331c:	5d878793          	addi	a5,a5,1496 # 55d8 <TIMERN>
    3320:	97ba                	add	a5,a5,a4
    3322:	439c                	lw	a5,0(a5)
    3324:	4605                	li	a2,1
    3326:	4585                	li	a1,1
    3328:	853e                	mv	a0,a5
    332a:	a01fe0ef          	jal	ra,1d2a <TIM_ITConfig>
C:\Users\山东张\Desktop\新建文件夹\新建文件夹 (2)\SLAVE527\SLAVE-hui\obj/../Libraries/seekfree_libraries/zf_pit.c:62
    TIM_ClearITPendingBit((TIM_TypeDef *)TIMERN[timern], TIM_IT_Update);
    332e:	6795                	lui	a5,0x5
    3330:	fdc42703          	lw	a4,-36(s0)
    3334:	070a                	slli	a4,a4,0x2
    3336:	5d878793          	addi	a5,a5,1496 # 55d8 <TIMERN>
    333a:	97ba                	add	a5,a5,a4
    333c:	439c                	lw	a5,0(a5)
    333e:	4585                	li	a1,1
    3340:	853e                	mv	a0,a5
    3342:	e13fe0ef          	jal	ra,2154 <TIM_ClearITPendingBit>
C:\Users\山东张\Desktop\新建文件夹\新建文件夹 (2)\SLAVE527\SLAVE-hui\obj/../Libraries/seekfree_libraries/zf_pit.c:65

    //中断优先级NVIC设置
    if(TIMER_1 == timern)
    3346:	fdc42783          	lw	a5,-36(s0)
    334a:	eb81                	bnez	a5,335a <timer_pit_interrupt_ms+0x11e>
C:\Users\山东张\Desktop\新建文件夹\新建文件夹 (2)\SLAVE527\SLAVE-hui\obj/../Libraries/seekfree_libraries/zf_pit.c:66
        nvic_init(TIM1_UP_IRQn, 1, 2, ENABLE);
    334c:	4685                	li	a3,1
    334e:	4609                	li	a2,2
    3350:	4585                	li	a1,1
    3352:	02900513          	li	a0,41
    3356:	3b95                	jal	30ca <nvic_init>
    3358:	a0a1                	j	33a0 <timer_pit_interrupt_ms+0x164>
C:\Users\山东张\Desktop\新建文件夹\新建文件夹 (2)\SLAVE527\SLAVE-hui\obj/../Libraries/seekfree_libraries/zf_pit.c:67
    else if(TIMER_2 == timern)
    335a:	fdc42703          	lw	a4,-36(s0)
    335e:	4785                	li	a5,1
    3360:	00f71963          	bne	a4,a5,3372 <timer_pit_interrupt_ms+0x136>
C:\Users\山东张\Desktop\新建文件夹\新建文件夹 (2)\SLAVE527\SLAVE-hui\obj/../Libraries/seekfree_libraries/zf_pit.c:68
        nvic_init(TIM2_IRQn, 1, 2, ENABLE);
    3364:	4685                	li	a3,1
    3366:	4609                	li	a2,2
    3368:	4585                	li	a1,1
    336a:	02c00513          	li	a0,44
    336e:	3bb1                	jal	30ca <nvic_init>
    3370:	a805                	j	33a0 <timer_pit_interrupt_ms+0x164>
C:\Users\山东张\Desktop\新建文件夹\新建文件夹 (2)\SLAVE527\SLAVE-hui\obj/../Libraries/seekfree_libraries/zf_pit.c:69
    else if(TIMER_3 == timern)
    3372:	fdc42703          	lw	a4,-36(s0)
    3376:	4789                	li	a5,2
    3378:	00f71963          	bne	a4,a5,338a <timer_pit_interrupt_ms+0x14e>
C:\Users\山东张\Desktop\新建文件夹\新建文件夹 (2)\SLAVE527\SLAVE-hui\obj/../Libraries/seekfree_libraries/zf_pit.c:70
        nvic_init(TIM3_IRQn, 1, 2, ENABLE);
    337c:	4685                	li	a3,1
    337e:	4609                	li	a2,2
    3380:	4585                	li	a1,1
    3382:	02d00513          	li	a0,45
    3386:	3391                	jal	30ca <nvic_init>
    3388:	a821                	j	33a0 <timer_pit_interrupt_ms+0x164>
C:\Users\山东张\Desktop\新建文件夹\新建文件夹 (2)\SLAVE527\SLAVE-hui\obj/../Libraries/seekfree_libraries/zf_pit.c:71
    else if(TIMER_4 == timern)
    338a:	fdc42703          	lw	a4,-36(s0)
    338e:	478d                	li	a5,3
    3390:	00f71863          	bne	a4,a5,33a0 <timer_pit_interrupt_ms+0x164>
C:\Users\山东张\Desktop\新建文件夹\新建文件夹 (2)\SLAVE527\SLAVE-hui\obj/../Libraries/seekfree_libraries/zf_pit.c:72
        nvic_init(TIM4_IRQn, 1, 2, ENABLE);
    3394:	4685                	li	a3,1
    3396:	4609                	li	a2,2
    3398:	4585                	li	a1,1
    339a:	02e00513          	li	a0,46
    339e:	3335                	jal	30ca <nvic_init>
C:\Users\山东张\Desktop\新建文件夹\新建文件夹 (2)\SLAVE527\SLAVE-hui\obj/../Libraries/seekfree_libraries/zf_pit.c:74

    TIM_Cmd((TIM_TypeDef *)TIMERN[timern], ENABLE);  //使能TIMx
    33a0:	6795                	lui	a5,0x5
    33a2:	fdc42703          	lw	a4,-36(s0)
    33a6:	070a                	slli	a4,a4,0x2
    33a8:	5d878793          	addi	a5,a5,1496 # 55d8 <TIMERN>
    33ac:	97ba                	add	a5,a5,a4
    33ae:	439c                	lw	a5,0(a5)
    33b0:	4585                	li	a1,1
    33b2:	853e                	mv	a0,a5
    33b4:	91ffe0ef          	jal	ra,1cd2 <TIM_Cmd>
C:\Users\山东张\Desktop\新建文件夹\新建文件夹 (2)\SLAVE527\SLAVE-hui\obj/../Libraries/seekfree_libraries/zf_pit.c:76

}
    33b8:	0001                	nop
    33ba:	50b2                	lw	ra,44(sp)
    33bc:	5422                	lw	s0,40(sp)
    33be:	6145                	addi	sp,sp,48
    33c0:	8082                	ret

000033c2 <timer_gpio_quad_init>:
timer_gpio_quad_init():
C:\Users\山东张\Desktop\新建文件夹\新建文件夹 (2)\SLAVE527\SLAVE-hui\obj/../Libraries/seekfree_libraries/zf_qtimer.c:40
//  @param      phaseB      通道B以及引脚
//  @return     void
//  Sample usage:           内部使用，用户无需关心
//-------------------------------------------------------------------------------------------------------------------
void timer_gpio_quad_init(TIMER_PIN_enum phaseA, TIMER_PIN_enum phaseB)
{
    33c2:	1101                	addi	sp,sp,-32
    33c4:	ce06                	sw	ra,28(sp)
    33c6:	cc22                	sw	s0,24(sp)
    33c8:	1000                	addi	s0,sp,32
    33ca:	fea42623          	sw	a0,-20(s0)
    33ce:	feb42423          	sw	a1,-24(s0)
C:\Users\山东张\Desktop\新建文件夹\新建文件夹 (2)\SLAVE527\SLAVE-hui\obj/../Libraries/seekfree_libraries/zf_qtimer.c:41
    if(TIMER1_CHA_A8 == phaseA)       gpio_init(A8, GPI, 0, IN_FLOAT);
    33d2:	fec42783          	lw	a5,-20(s0)
    33d6:	eb81                	bnez	a5,33e6 <timer_gpio_quad_init+0x24>
C:\Users\山东张\Desktop\新建文件夹\新建文件夹 (2)\SLAVE527\SLAVE-hui\obj/../Libraries/seekfree_libraries/zf_qtimer.c:41 (discriminator 1)
    33d8:	4691                	li	a3,4
    33da:	4601                	li	a2,0
    33dc:	4581                	li	a1,0
    33de:	4521                	li	a0,8
    33e0:	9f3ff0ef          	jal	ra,2dd2 <gpio_init>
    33e4:	a859                	j	347a <timer_gpio_quad_init+0xb8>
C:\Users\山东张\Desktop\新建文件夹\新建文件夹 (2)\SLAVE527\SLAVE-hui\obj/../Libraries/seekfree_libraries/zf_qtimer.c:42
    else if(TIMER2_CHA_A0 == phaseA)  gpio_init(A0, GPI, 0, IN_FLOAT);
    33e6:	fec42703          	lw	a4,-20(s0)
    33ea:	4789                	li	a5,2
    33ec:	00f71963          	bne	a4,a5,33fe <timer_gpio_quad_init+0x3c>
C:\Users\山东张\Desktop\新建文件夹\新建文件夹 (2)\SLAVE527\SLAVE-hui\obj/../Libraries/seekfree_libraries/zf_qtimer.c:42 (discriminator 1)
    33f0:	4691                	li	a3,4
    33f2:	4601                	li	a2,0
    33f4:	4581                	li	a1,0
    33f6:	4501                	li	a0,0
    33f8:	9dbff0ef          	jal	ra,2dd2 <gpio_init>
    33fc:	a8bd                	j	347a <timer_gpio_quad_init+0xb8>
C:\Users\山东张\Desktop\新建文件夹\新建文件夹 (2)\SLAVE527\SLAVE-hui\obj/../Libraries/seekfree_libraries/zf_qtimer.c:43
    else if(TIMER2_CHA_A15 == phaseA) gpio_init(A15, GPI, 0, IN_FLOAT);
    33fe:	fec42703          	lw	a4,-20(s0)
    3402:	4791                	li	a5,4
    3404:	00f71963          	bne	a4,a5,3416 <timer_gpio_quad_init+0x54>
C:\Users\山东张\Desktop\新建文件夹\新建文件夹 (2)\SLAVE527\SLAVE-hui\obj/../Libraries/seekfree_libraries/zf_qtimer.c:43 (discriminator 1)
    3408:	4691                	li	a3,4
    340a:	4601                	li	a2,0
    340c:	4581                	li	a1,0
    340e:	453d                	li	a0,15
    3410:	9c3ff0ef          	jal	ra,2dd2 <gpio_init>
    3414:	a09d                	j	347a <timer_gpio_quad_init+0xb8>
C:\Users\山东张\Desktop\新建文件夹\新建文件夹 (2)\SLAVE527\SLAVE-hui\obj/../Libraries/seekfree_libraries/zf_qtimer.c:44
    else if(TIMER3_CHA_A6 == phaseA)  gpio_init(A6, GPI, 0, IN_FLOAT);
    3416:	fec42703          	lw	a4,-20(s0)
    341a:	4799                	li	a5,6
    341c:	00f71963          	bne	a4,a5,342e <timer_gpio_quad_init+0x6c>
C:\Users\山东张\Desktop\新建文件夹\新建文件夹 (2)\SLAVE527\SLAVE-hui\obj/../Libraries/seekfree_libraries/zf_qtimer.c:44 (discriminator 1)
    3420:	4691                	li	a3,4
    3422:	4601                	li	a2,0
    3424:	4581                	li	a1,0
    3426:	4519                	li	a0,6
    3428:	9abff0ef          	jal	ra,2dd2 <gpio_init>
    342c:	a0b9                	j	347a <timer_gpio_quad_init+0xb8>
C:\Users\山东张\Desktop\新建文件夹\新建文件夹 (2)\SLAVE527\SLAVE-hui\obj/../Libraries/seekfree_libraries/zf_qtimer.c:45
    else if(TIMER3_CHA_C6 == phaseA)  gpio_init(C6, GPI, 0, IN_FLOAT);
    342e:	fec42703          	lw	a4,-20(s0)
    3432:	47a1                	li	a5,8
    3434:	00f71a63          	bne	a4,a5,3448 <timer_gpio_quad_init+0x86>
C:\Users\山东张\Desktop\新建文件夹\新建文件夹 (2)\SLAVE527\SLAVE-hui\obj/../Libraries/seekfree_libraries/zf_qtimer.c:45 (discriminator 1)
    3438:	4691                	li	a3,4
    343a:	4601                	li	a2,0
    343c:	4581                	li	a1,0
    343e:	04600513          	li	a0,70
    3442:	991ff0ef          	jal	ra,2dd2 <gpio_init>
    3446:	a815                	j	347a <timer_gpio_quad_init+0xb8>
C:\Users\山东张\Desktop\新建文件夹\新建文件夹 (2)\SLAVE527\SLAVE-hui\obj/../Libraries/seekfree_libraries/zf_qtimer.c:46
    else if(TIMER3_CHA_B4 == phaseA)  gpio_init(B4, GPI, 0, IN_FLOAT);
    3448:	fec42703          	lw	a4,-20(s0)
    344c:	47a9                	li	a5,10
    344e:	00f71a63          	bne	a4,a5,3462 <timer_gpio_quad_init+0xa0>
C:\Users\山东张\Desktop\新建文件夹\新建文件夹 (2)\SLAVE527\SLAVE-hui\obj/../Libraries/seekfree_libraries/zf_qtimer.c:46 (discriminator 1)
    3452:	4691                	li	a3,4
    3454:	4601                	li	a2,0
    3456:	4581                	li	a1,0
    3458:	02400513          	li	a0,36
    345c:	977ff0ef          	jal	ra,2dd2 <gpio_init>
    3460:	a829                	j	347a <timer_gpio_quad_init+0xb8>
C:\Users\山东张\Desktop\新建文件夹\新建文件夹 (2)\SLAVE527\SLAVE-hui\obj/../Libraries/seekfree_libraries/zf_qtimer.c:47
    else if(TIMER4_CHA_B6 == phaseA)  gpio_init(B6, GPI, 0, IN_FLOAT);
    3462:	fec42703          	lw	a4,-20(s0)
    3466:	47b1                	li	a5,12
    3468:	00f71963          	bne	a4,a5,347a <timer_gpio_quad_init+0xb8>
C:\Users\山东张\Desktop\新建文件夹\新建文件夹 (2)\SLAVE527\SLAVE-hui\obj/../Libraries/seekfree_libraries/zf_qtimer.c:47 (discriminator 1)
    346c:	4691                	li	a3,4
    346e:	4601                	li	a2,0
    3470:	4581                	li	a1,0
    3472:	02600513          	li	a0,38
    3476:	95dff0ef          	jal	ra,2dd2 <gpio_init>
C:\Users\山东张\Desktop\新建文件夹\新建文件夹 (2)\SLAVE527\SLAVE-hui\obj/../Libraries/seekfree_libraries/zf_qtimer.c:49

    if(TIMER1_CHB_A9 == phaseB)       gpio_init(A9, GPI, 0, IN_FLOAT);
    347a:	fe842703          	lw	a4,-24(s0)
    347e:	4785                	li	a5,1
    3480:	00f71963          	bne	a4,a5,3492 <timer_gpio_quad_init+0xd0>
C:\Users\山东张\Desktop\新建文件夹\新建文件夹 (2)\SLAVE527\SLAVE-hui\obj/../Libraries/seekfree_libraries/zf_qtimer.c:49 (discriminator 1)
    3484:	4691                	li	a3,4
    3486:	4601                	li	a2,0
    3488:	4581                	li	a1,0
    348a:	4525                	li	a0,9
    348c:	947ff0ef          	jal	ra,2dd2 <gpio_init>
C:\Users\山东张\Desktop\新建文件夹\新建文件夹 (2)\SLAVE527\SLAVE-hui\obj/../Libraries/seekfree_libraries/zf_qtimer.c:57 (discriminator 1)
    else if(TIMER3_CHB_A7 == phaseB)  gpio_init(A7, GPI, 0, IN_FLOAT);
    else if(TIMER3_CHB_C7 == phaseB)  gpio_init(C7, GPI, 0, IN_FLOAT);
    else if(TIMER3_CHB_B5 == phaseB)  gpio_init(B5, GPI, 0, IN_FLOAT);
    else if(TIMER4_CHB_B7 == phaseB)  gpio_init(B7, GPI, 0, IN_FLOAT);

}
    3490:	a861                	j	3528 <timer_gpio_quad_init+0x166>
C:\Users\山东张\Desktop\新建文件夹\新建文件夹 (2)\SLAVE527\SLAVE-hui\obj/../Libraries/seekfree_libraries/zf_qtimer.c:50
    else if(TIMER2_CHB_A1 == phaseB)  gpio_init(A1, GPI, 0, IN_FLOAT);
    3492:	fe842703          	lw	a4,-24(s0)
    3496:	478d                	li	a5,3
    3498:	00f71963          	bne	a4,a5,34aa <timer_gpio_quad_init+0xe8>
C:\Users\山东张\Desktop\新建文件夹\新建文件夹 (2)\SLAVE527\SLAVE-hui\obj/../Libraries/seekfree_libraries/zf_qtimer.c:50 (discriminator 1)
    349c:	4691                	li	a3,4
    349e:	4601                	li	a2,0
    34a0:	4581                	li	a1,0
    34a2:	4505                	li	a0,1
    34a4:	92fff0ef          	jal	ra,2dd2 <gpio_init>
C:\Users\山东张\Desktop\新建文件夹\新建文件夹 (2)\SLAVE527\SLAVE-hui\obj/../Libraries/seekfree_libraries/zf_qtimer.c:57 (discriminator 1)
}
    34a8:	a041                	j	3528 <timer_gpio_quad_init+0x166>
C:\Users\山东张\Desktop\新建文件夹\新建文件夹 (2)\SLAVE527\SLAVE-hui\obj/../Libraries/seekfree_libraries/zf_qtimer.c:51
    else if(TIMER2_CHB_B3 == phaseB)  gpio_init(B3, GPI, 0, IN_FLOAT);
    34aa:	fe842703          	lw	a4,-24(s0)
    34ae:	4795                	li	a5,5
    34b0:	00f71a63          	bne	a4,a5,34c4 <timer_gpio_quad_init+0x102>
C:\Users\山东张\Desktop\新建文件夹\新建文件夹 (2)\SLAVE527\SLAVE-hui\obj/../Libraries/seekfree_libraries/zf_qtimer.c:51 (discriminator 1)
    34b4:	4691                	li	a3,4
    34b6:	4601                	li	a2,0
    34b8:	4581                	li	a1,0
    34ba:	02300513          	li	a0,35
    34be:	915ff0ef          	jal	ra,2dd2 <gpio_init>
C:\Users\山东张\Desktop\新建文件夹\新建文件夹 (2)\SLAVE527\SLAVE-hui\obj/../Libraries/seekfree_libraries/zf_qtimer.c:57 (discriminator 1)
}
    34c2:	a09d                	j	3528 <timer_gpio_quad_init+0x166>
C:\Users\山东张\Desktop\新建文件夹\新建文件夹 (2)\SLAVE527\SLAVE-hui\obj/../Libraries/seekfree_libraries/zf_qtimer.c:52
    else if(TIMER3_CHB_A7 == phaseB)  gpio_init(A7, GPI, 0, IN_FLOAT);
    34c4:	fe842703          	lw	a4,-24(s0)
    34c8:	479d                	li	a5,7
    34ca:	00f71963          	bne	a4,a5,34dc <timer_gpio_quad_init+0x11a>
C:\Users\山东张\Desktop\新建文件夹\新建文件夹 (2)\SLAVE527\SLAVE-hui\obj/../Libraries/seekfree_libraries/zf_qtimer.c:52 (discriminator 1)
    34ce:	4691                	li	a3,4
    34d0:	4601                	li	a2,0
    34d2:	4581                	li	a1,0
    34d4:	451d                	li	a0,7
    34d6:	8fdff0ef          	jal	ra,2dd2 <gpio_init>
C:\Users\山东张\Desktop\新建文件夹\新建文件夹 (2)\SLAVE527\SLAVE-hui\obj/../Libraries/seekfree_libraries/zf_qtimer.c:57 (discriminator 1)
}
    34da:	a0b9                	j	3528 <timer_gpio_quad_init+0x166>
C:\Users\山东张\Desktop\新建文件夹\新建文件夹 (2)\SLAVE527\SLAVE-hui\obj/../Libraries/seekfree_libraries/zf_qtimer.c:53
    else if(TIMER3_CHB_C7 == phaseB)  gpio_init(C7, GPI, 0, IN_FLOAT);
    34dc:	fe842703          	lw	a4,-24(s0)
    34e0:	47a5                	li	a5,9
    34e2:	00f71a63          	bne	a4,a5,34f6 <timer_gpio_quad_init+0x134>
C:\Users\山东张\Desktop\新建文件夹\新建文件夹 (2)\SLAVE527\SLAVE-hui\obj/../Libraries/seekfree_libraries/zf_qtimer.c:53 (discriminator 1)
    34e6:	4691                	li	a3,4
    34e8:	4601                	li	a2,0
    34ea:	4581                	li	a1,0
    34ec:	04700513          	li	a0,71
    34f0:	8e3ff0ef          	jal	ra,2dd2 <gpio_init>
C:\Users\山东张\Desktop\新建文件夹\新建文件夹 (2)\SLAVE527\SLAVE-hui\obj/../Libraries/seekfree_libraries/zf_qtimer.c:57 (discriminator 1)
}
    34f4:	a815                	j	3528 <timer_gpio_quad_init+0x166>
C:\Users\山东张\Desktop\新建文件夹\新建文件夹 (2)\SLAVE527\SLAVE-hui\obj/../Libraries/seekfree_libraries/zf_qtimer.c:54
    else if(TIMER3_CHB_B5 == phaseB)  gpio_init(B5, GPI, 0, IN_FLOAT);
    34f6:	fe842703          	lw	a4,-24(s0)
    34fa:	47ad                	li	a5,11
    34fc:	00f71a63          	bne	a4,a5,3510 <timer_gpio_quad_init+0x14e>
C:\Users\山东张\Desktop\新建文件夹\新建文件夹 (2)\SLAVE527\SLAVE-hui\obj/../Libraries/seekfree_libraries/zf_qtimer.c:54 (discriminator 1)
    3500:	4691                	li	a3,4
    3502:	4601                	li	a2,0
    3504:	4581                	li	a1,0
    3506:	02500513          	li	a0,37
    350a:	8c9ff0ef          	jal	ra,2dd2 <gpio_init>
C:\Users\山东张\Desktop\新建文件夹\新建文件夹 (2)\SLAVE527\SLAVE-hui\obj/../Libraries/seekfree_libraries/zf_qtimer.c:57 (discriminator 1)
}
    350e:	a829                	j	3528 <timer_gpio_quad_init+0x166>
C:\Users\山东张\Desktop\新建文件夹\新建文件夹 (2)\SLAVE527\SLAVE-hui\obj/../Libraries/seekfree_libraries/zf_qtimer.c:55
    else if(TIMER4_CHB_B7 == phaseB)  gpio_init(B7, GPI, 0, IN_FLOAT);
    3510:	fe842703          	lw	a4,-24(s0)
    3514:	47b5                	li	a5,13
    3516:	00f71963          	bne	a4,a5,3528 <timer_gpio_quad_init+0x166>
C:\Users\山东张\Desktop\新建文件夹\新建文件夹 (2)\SLAVE527\SLAVE-hui\obj/../Libraries/seekfree_libraries/zf_qtimer.c:55 (discriminator 1)
    351a:	4691                	li	a3,4
    351c:	4601                	li	a2,0
    351e:	4581                	li	a1,0
    3520:	02700513          	li	a0,39
    3524:	8afff0ef          	jal	ra,2dd2 <gpio_init>
C:\Users\山东张\Desktop\新建文件夹\新建文件夹 (2)\SLAVE527\SLAVE-hui\obj/../Libraries/seekfree_libraries/zf_qtimer.c:57
}
    3528:	0001                	nop
    352a:	40f2                	lw	ra,28(sp)
    352c:	4462                	lw	s0,24(sp)
    352e:	6105                	addi	sp,sp,32
    3530:	8082                	ret

00003532 <timer_quad_init>:
timer_quad_init():
C:\Users\山东张\Desktop\新建文件夹\新建文件夹 (2)\SLAVE527\SLAVE-hui\obj/../Libraries/seekfree_libraries/zf_qtimer.c:69
//  @param      phaseB      通道B以及引脚
//  @return     void
//  Sample usage:           推荐使用正交解码编码器。
//-------------------------------------------------------------------------------------------------------------------
void timer_quad_init(TIMERN_enum timern, TIMER_PIN_enum phaseA, TIMER_PIN_enum phaseB)
{
    3532:	7179                	addi	sp,sp,-48
    3534:	d606                	sw	ra,44(sp)
    3536:	d422                	sw	s0,40(sp)
    3538:	1800                	addi	s0,sp,48
    353a:	fca42e23          	sw	a0,-36(s0)
    353e:	fcb42c23          	sw	a1,-40(s0)
    3542:	fcc42a23          	sw	a2,-44(s0)
C:\Users\山东张\Desktop\新建文件夹\新建文件夹 (2)\SLAVE527\SLAVE-hui\obj/../Libraries/seekfree_libraries/zf_qtimer.c:72
    TIM_TimeBaseInitTypeDef TIM_TimeBaseStructure;

    if(TIMER_1 == timern)       RCC_APB2PeriphClockCmd(RCC_APB2Periph_TIM1, ENABLE);//使能定时器1的时钟
    3546:	fdc42783          	lw	a5,-36(s0)
    354a:	eb81                	bnez	a5,355a <timer_quad_init+0x28>
C:\Users\山东张\Desktop\新建文件夹\新建文件夹 (2)\SLAVE527\SLAVE-hui\obj/../Libraries/seekfree_libraries/zf_qtimer.c:72 (discriminator 1)
    354c:	4585                	li	a1,1
    354e:	6785                	lui	a5,0x1
    3550:	80078513          	addi	a0,a5,-2048 # 800 <__stack_size>
    3554:	dbcfe0ef          	jal	ra,1b10 <RCC_APB2PeriphClockCmd>
    3558:	a835                	j	3594 <timer_quad_init+0x62>
C:\Users\山东张\Desktop\新建文件夹\新建文件夹 (2)\SLAVE527\SLAVE-hui\obj/../Libraries/seekfree_libraries/zf_qtimer.c:73
    else  if(TIMER_2 == timern) RCC_APB1PeriphClockCmd(RCC_APB1Periph_TIM2, ENABLE);//使能定时器2的时钟
    355a:	fdc42703          	lw	a4,-36(s0)
    355e:	4785                	li	a5,1
    3560:	00f71763          	bne	a4,a5,356e <timer_quad_init+0x3c>
C:\Users\山东张\Desktop\新建文件夹\新建文件夹 (2)\SLAVE527\SLAVE-hui\obj/../Libraries/seekfree_libraries/zf_qtimer.c:73 (discriminator 1)
    3564:	4585                	li	a1,1
    3566:	4505                	li	a0,1
    3568:	deefe0ef          	jal	ra,1b56 <RCC_APB1PeriphClockCmd>
    356c:	a025                	j	3594 <timer_quad_init+0x62>
C:\Users\山东张\Desktop\新建文件夹\新建文件夹 (2)\SLAVE527\SLAVE-hui\obj/../Libraries/seekfree_libraries/zf_qtimer.c:74
    else  if(TIMER_3 == timern) RCC_APB1PeriphClockCmd(RCC_APB1Periph_TIM3, ENABLE);//使能定时器3的时钟
    356e:	fdc42703          	lw	a4,-36(s0)
    3572:	4789                	li	a5,2
    3574:	00f71763          	bne	a4,a5,3582 <timer_quad_init+0x50>
C:\Users\山东张\Desktop\新建文件夹\新建文件夹 (2)\SLAVE527\SLAVE-hui\obj/../Libraries/seekfree_libraries/zf_qtimer.c:74 (discriminator 1)
    3578:	4585                	li	a1,1
    357a:	4509                	li	a0,2
    357c:	ddafe0ef          	jal	ra,1b56 <RCC_APB1PeriphClockCmd>
    3580:	a811                	j	3594 <timer_quad_init+0x62>
C:\Users\山东张\Desktop\新建文件夹\新建文件夹 (2)\SLAVE527\SLAVE-hui\obj/../Libraries/seekfree_libraries/zf_qtimer.c:75
    else  if(TIMER_4 == timern) RCC_APB1PeriphClockCmd(RCC_APB1Periph_TIM4, ENABLE);//使能定时器4的时钟
    3582:	fdc42703          	lw	a4,-36(s0)
    3586:	478d                	li	a5,3
    3588:	00f71663          	bne	a4,a5,3594 <timer_quad_init+0x62>
C:\Users\山东张\Desktop\新建文件夹\新建文件夹 (2)\SLAVE527\SLAVE-hui\obj/../Libraries/seekfree_libraries/zf_qtimer.c:75 (discriminator 1)
    358c:	4585                	li	a1,1
    358e:	4511                	li	a0,4
    3590:	dc6fe0ef          	jal	ra,1b56 <RCC_APB1PeriphClockCmd>
C:\Users\山东张\Desktop\新建文件夹\新建文件夹 (2)\SLAVE527\SLAVE-hui\obj/../Libraries/seekfree_libraries/zf_qtimer.c:77

    timer_gpio_quad_init(phaseA, phaseB);                                           //初始化引脚
    3594:	fd442583          	lw	a1,-44(s0)
    3598:	fd842503          	lw	a0,-40(s0)
    359c:	351d                	jal	33c2 <timer_gpio_quad_init>
C:\Users\山东张\Desktop\新建文件夹\新建文件夹 (2)\SLAVE527\SLAVE-hui\obj/../Libraries/seekfree_libraries/zf_qtimer.c:79

    RCC_APB2PeriphClockCmd(RCC_APB2Periph_AFIO, ENABLE);                            //使能AFIO复用功能模块时钟
    359e:	4585                	li	a1,1
    35a0:	4505                	li	a0,1
    35a2:	d6efe0ef          	jal	ra,1b10 <RCC_APB2PeriphClockCmd>
C:\Users\山东张\Desktop\新建文件夹\新建文件夹 (2)\SLAVE527\SLAVE-hui\obj/../Libraries/seekfree_libraries/zf_qtimer.c:81

    if(TIMER2_CHA_A15 == phaseA && TIMER2_CHB_B3 == phaseB)                         //引脚重映射
    35a6:	fd842703          	lw	a4,-40(s0)
    35aa:	4791                	li	a5,4
    35ac:	00f71f63          	bne	a4,a5,35ca <timer_quad_init+0x98>
C:\Users\山东张\Desktop\新建文件夹\新建文件夹 (2)\SLAVE527\SLAVE-hui\obj/../Libraries/seekfree_libraries/zf_qtimer.c:81 (discriminator 1)
    35b0:	fd442703          	lw	a4,-44(s0)
    35b4:	4795                	li	a5,5
    35b6:	00f71a63          	bne	a4,a5,35ca <timer_quad_init+0x98>
C:\Users\山东张\Desktop\新建文件夹\新建文件夹 (2)\SLAVE527\SLAVE-hui\obj/../Libraries/seekfree_libraries/zf_qtimer.c:82
        GPIO_PinRemapConfig(GPIO_FullRemap_TIM2, ENABLE);
    35ba:	4585                	li	a1,1
    35bc:	001807b7          	lui	a5,0x180
    35c0:	30078513          	addi	a0,a5,768 # 180300 <_data_lma+0x17ac14>
    35c4:	fbdfd0ef          	jal	ra,1580 <GPIO_PinRemapConfig>
    35c8:	a0a1                	j	3610 <timer_quad_init+0xde>
C:\Users\山东张\Desktop\新建文件夹\新建文件夹 (2)\SLAVE527\SLAVE-hui\obj/../Libraries/seekfree_libraries/zf_qtimer.c:83
    else    if(TIMER3_CHA_C6 == phaseA && TIMER3_CHB_C7 == phaseB)
    35ca:	fd842703          	lw	a4,-40(s0)
    35ce:	47a1                	li	a5,8
    35d0:	00f71f63          	bne	a4,a5,35ee <timer_quad_init+0xbc>
C:\Users\山东张\Desktop\新建文件夹\新建文件夹 (2)\SLAVE527\SLAVE-hui\obj/../Libraries/seekfree_libraries/zf_qtimer.c:83 (discriminator 1)
    35d4:	fd442703          	lw	a4,-44(s0)
    35d8:	47a5                	li	a5,9
    35da:	00f71a63          	bne	a4,a5,35ee <timer_quad_init+0xbc>
C:\Users\山东张\Desktop\新建文件夹\新建文件夹 (2)\SLAVE527\SLAVE-hui\obj/../Libraries/seekfree_libraries/zf_qtimer.c:84
        GPIO_PinRemapConfig(GPIO_FullRemap_TIM3, ENABLE);
    35de:	4585                	li	a1,1
    35e0:	001a17b7          	lui	a5,0x1a1
    35e4:	c0078513          	addi	a0,a5,-1024 # 1a0c00 <_data_lma+0x19b514>
    35e8:	f99fd0ef          	jal	ra,1580 <GPIO_PinRemapConfig>
    35ec:	a015                	j	3610 <timer_quad_init+0xde>
C:\Users\山东张\Desktop\新建文件夹\新建文件夹 (2)\SLAVE527\SLAVE-hui\obj/../Libraries/seekfree_libraries/zf_qtimer.c:85
    else    if(TIMER3_CHA_B4 == phaseA && TIMER3_CHB_B5 == phaseB)
    35ee:	fd842703          	lw	a4,-40(s0)
    35f2:	47a9                	li	a5,10
    35f4:	00f71e63          	bne	a4,a5,3610 <timer_quad_init+0xde>
C:\Users\山东张\Desktop\新建文件夹\新建文件夹 (2)\SLAVE527\SLAVE-hui\obj/../Libraries/seekfree_libraries/zf_qtimer.c:85 (discriminator 1)
    35f8:	fd442703          	lw	a4,-44(s0)
    35fc:	47ad                	li	a5,11
    35fe:	00f71963          	bne	a4,a5,3610 <timer_quad_init+0xde>
C:\Users\山东张\Desktop\新建文件夹\新建文件夹 (2)\SLAVE527\SLAVE-hui\obj/../Libraries/seekfree_libraries/zf_qtimer.c:86
        GPIO_PinRemapConfig(GPIO_PartialRemap_TIM3, ENABLE);
    3602:	4585                	li	a1,1
    3604:	001a17b7          	lui	a5,0x1a1
    3608:	80078513          	addi	a0,a5,-2048 # 1a0800 <_data_lma+0x19b114>
    360c:	f75fd0ef          	jal	ra,1580 <GPIO_PinRemapConfig>
C:\Users\山东张\Desktop\新建文件夹\新建文件夹 (2)\SLAVE527\SLAVE-hui\obj/../Libraries/seekfree_libraries/zf_qtimer.c:88

    TIM_TimeBaseStructInit(&TIM_TimeBaseStructure);
    3610:	fe440793          	addi	a5,s0,-28
    3614:	853e                	mv	a0,a5
    3616:	e80fe0ef          	jal	ra,1c96 <TIM_TimeBaseStructInit>
C:\Users\山东张\Desktop\新建文件夹\新建文件夹 (2)\SLAVE527\SLAVE-hui\obj/../Libraries/seekfree_libraries/zf_qtimer.c:89
    TIM_TimeBaseStructure.TIM_Prescaler = 1;                                        //预分频器
    361a:	4785                	li	a5,1
    361c:	fef41223          	sh	a5,-28(s0)
C:\Users\山东张\Desktop\新建文件夹\新建文件夹 (2)\SLAVE527\SLAVE-hui\obj/../Libraries/seekfree_libraries/zf_qtimer.c:90
    TIM_TimeBaseStructure.TIM_Period = 0xFFFF;                                      //设定计数器自动重装值
    3620:	57fd                	li	a5,-1
    3622:	fef41423          	sh	a5,-24(s0)
C:\Users\山东张\Desktop\新建文件夹\新建文件夹 (2)\SLAVE527\SLAVE-hui\obj/../Libraries/seekfree_libraries/zf_qtimer.c:91
    TIM_TimeBaseStructure.TIM_ClockDivision = TIM_CKD_DIV1;                         //选择时钟分频：不分频
    3626:	fe041523          	sh	zero,-22(s0)
C:\Users\山东张\Desktop\新建文件夹\新建文件夹 (2)\SLAVE527\SLAVE-hui\obj/../Libraries/seekfree_libraries/zf_qtimer.c:92
    TIM_TimeBaseStructure.TIM_CounterMode = TIM_CounterMode_Up;                     //TIM向上计数
    362a:	fe041323          	sh	zero,-26(s0)
C:\Users\山东张\Desktop\新建文件夹\新建文件夹 (2)\SLAVE527\SLAVE-hui\obj/../Libraries/seekfree_libraries/zf_qtimer.c:93
    TIM_TimeBaseStructure.TIM_RepetitionCounter = 0;                                //重复计数器
    362e:	fe040623          	sb	zero,-20(s0)
C:\Users\山东张\Desktop\新建文件夹\新建文件夹 (2)\SLAVE527\SLAVE-hui\obj/../Libraries/seekfree_libraries/zf_qtimer.c:94
    TIM_TimeBaseInit((TIM_TypeDef*)(TIMERN[timern]), &TIM_TimeBaseStructure);       //初始化结构体
    3632:	6795                	lui	a5,0x5
    3634:	fdc42703          	lw	a4,-36(s0)
    3638:	070a                	slli	a4,a4,0x2
    363a:	5d878793          	addi	a5,a5,1496 # 55d8 <TIMERN>
    363e:	97ba                	add	a5,a5,a4
    3640:	439c                	lw	a5,0(a5)
    3642:	873e                	mv	a4,a5
    3644:	fe440793          	addi	a5,s0,-28
    3648:	85be                	mv	a1,a5
    364a:	853a                	mv	a0,a4
    364c:	d50fe0ef          	jal	ra,1b9c <TIM_TimeBaseInit>
C:\Users\山东张\Desktop\新建文件夹\新建文件夹 (2)\SLAVE527\SLAVE-hui\obj/../Libraries/seekfree_libraries/zf_qtimer.c:95
    TIM_EncoderInterfaceConfig((TIM_TypeDef*)(TIMERN[timern]), TIM_EncoderMode_TI2 , TIM_ICPolarity_Rising, TIM_ICPolarity_Rising);//使用编码器模式
    3650:	6795                	lui	a5,0x5
    3652:	fdc42703          	lw	a4,-36(s0)
    3656:	070a                	slli	a4,a4,0x2
    3658:	5d878793          	addi	a5,a5,1496 # 55d8 <TIMERN>
    365c:	97ba                	add	a5,a5,a4
    365e:	439c                	lw	a5,0(a5)
    3660:	4681                	li	a3,0
    3662:	4601                	li	a2,0
    3664:	4589                	li	a1,2
    3666:	853e                	mv	a0,a5
    3668:	8f7fe0ef          	jal	ra,1f5e <TIM_EncoderInterfaceConfig>
C:\Users\山东张\Desktop\新建文件夹\新建文件夹 (2)\SLAVE527\SLAVE-hui\obj/../Libraries/seekfree_libraries/zf_qtimer.c:97

    TIM_Cmd((TIM_TypeDef*)(TIMERN[timern]), ENABLE);                                //定时器使能
    366c:	6795                	lui	a5,0x5
    366e:	fdc42703          	lw	a4,-36(s0)
    3672:	070a                	slli	a4,a4,0x2
    3674:	5d878793          	addi	a5,a5,1496 # 55d8 <TIMERN>
    3678:	97ba                	add	a5,a5,a4
    367a:	439c                	lw	a5,0(a5)
    367c:	4585                	li	a1,1
    367e:	853e                	mv	a0,a5
    3680:	e52fe0ef          	jal	ra,1cd2 <TIM_Cmd>
C:\Users\山东张\Desktop\新建文件夹\新建文件夹 (2)\SLAVE527\SLAVE-hui\obj/../Libraries/seekfree_libraries/zf_qtimer.c:98
}
    3684:	0001                	nop
    3686:	50b2                	lw	ra,44(sp)
    3688:	5422                	lw	s0,40(sp)
    368a:	6145                	addi	sp,sp,48
    368c:	8082                	ret

0000368e <timer_quad_get>:
timer_quad_get():
C:\Users\山东张\Desktop\新建文件夹\新建文件夹 (2)\SLAVE527\SLAVE-hui\obj/../Libraries/seekfree_libraries/zf_qtimer.c:107
//  @param      timern      定时器枚举体
//  @return     void
//  Sample usage:
//-------------------------------------------------------------------------------------------------------------------
int16 timer_quad_get(TIMERN_enum timern)
{
    368e:	7179                	addi	sp,sp,-48
    3690:	d622                	sw	s0,44(sp)
    3692:	1800                	addi	s0,sp,48
    3694:	fca42e23          	sw	a0,-36(s0)
C:\Users\山东张\Desktop\新建文件夹\新建文件夹 (2)\SLAVE527\SLAVE-hui\obj/../Libraries/seekfree_libraries/zf_qtimer.c:108
    int16 count = ((TIM_TypeDef*)(TIMERN[timern]))->CNT;
    3698:	6795                	lui	a5,0x5
    369a:	fdc42703          	lw	a4,-36(s0)
    369e:	070a                	slli	a4,a4,0x2
    36a0:	5d878793          	addi	a5,a5,1496 # 55d8 <TIMERN>
    36a4:	97ba                	add	a5,a5,a4
    36a6:	439c                	lw	a5,0(a5)
    36a8:	0247d783          	lhu	a5,36(a5)
    36ac:	07c2                	slli	a5,a5,0x10
    36ae:	83c1                	srli	a5,a5,0x10
    36b0:	fef41723          	sh	a5,-18(s0)
C:\Users\山东张\Desktop\新建文件夹\新建文件夹 (2)\SLAVE527\SLAVE-hui\obj/../Libraries/seekfree_libraries/zf_qtimer.c:109
    return count;
    36b4:	fee41783          	lh	a5,-18(s0)
C:\Users\山东张\Desktop\新建文件夹\新建文件夹 (2)\SLAVE527\SLAVE-hui\obj/../Libraries/seekfree_libraries/zf_qtimer.c:110
}
    36b8:	853e                	mv	a0,a5
    36ba:	5432                	lw	s0,44(sp)
    36bc:	6145                	addi	sp,sp,48
    36be:	8082                	ret

000036c0 <timer_quad_clear>:
timer_quad_clear():
C:\Users\山东张\Desktop\新建文件夹\新建文件夹 (2)\SLAVE527\SLAVE-hui\obj/../Libraries/seekfree_libraries/zf_qtimer.c:119
//  @param      timern      定时器枚举体
//  @return     void
//  Sample usage:
//-------------------------------------------------------------------------------------------------------------------
void timer_quad_clear(TIMERN_enum timern)
{
    36c0:	1101                	addi	sp,sp,-32
    36c2:	ce22                	sw	s0,28(sp)
    36c4:	1000                	addi	s0,sp,32
    36c6:	fea42623          	sw	a0,-20(s0)
C:\Users\山东张\Desktop\新建文件夹\新建文件夹 (2)\SLAVE527\SLAVE-hui\obj/../Libraries/seekfree_libraries/zf_qtimer.c:120
    ((TIM_TypeDef*)(TIMERN[timern]))->CNT = 0;
    36ca:	6795                	lui	a5,0x5
    36cc:	fec42703          	lw	a4,-20(s0)
    36d0:	070a                	slli	a4,a4,0x2
    36d2:	5d878793          	addi	a5,a5,1496 # 55d8 <TIMERN>
    36d6:	97ba                	add	a5,a5,a4
    36d8:	439c                	lw	a5,0(a5)
    36da:	02079223          	sh	zero,36(a5)
C:\Users\山东张\Desktop\新建文件夹\新建文件夹 (2)\SLAVE527\SLAVE-hui\obj/../Libraries/seekfree_libraries/zf_qtimer.c:121
}
    36de:	0001                	nop
    36e0:	4472                	lw	s0,28(sp)
    36e2:	6105                	addi	sp,sp,32
    36e4:	8082                	ret

000036e6 <systick_delay>:
systick_delay():
C:\Users\山东张\Desktop\新建文件夹\新建文件夹 (2)\SLAVE527\SLAVE-hui\obj/../Libraries/seekfree_libraries/zf_systick.c:29
//  @param      time                us
//  @return     void
//  Sample usage:                   内部使用，用户无需关心
//-------------------------------------------------------------------------------------------------------------------
void systick_delay(uint64 time)
{
    36e6:	1101                	addi	sp,sp,-32
    36e8:	ce22                	sw	s0,28(sp)
    36ea:	1000                	addi	s0,sp,32
    36ec:	fea42423          	sw	a0,-24(s0)
    36f0:	feb42623          	sw	a1,-20(s0)
C:\Users\山东张\Desktop\新建文件夹\新建文件夹 (2)\SLAVE527\SLAVE-hui\obj/../Libraries/seekfree_libraries/zf_systick.c:30
    SysTick->CTLR = 0;
    36f4:	e000f737          	lui	a4,0xe000f
    36f8:	00072023          	sw	zero,0(a4) # e000f000 <_eusrstack+0xc000a000>
C:\Users\山东张\Desktop\新建文件夹\新建文件夹 (2)\SLAVE527\SLAVE-hui\obj/../Libraries/seekfree_libraries/zf_systick.c:31
    SysTick->CNTL0 = 0;
    36fc:	e000f737          	lui	a4,0xe000f
    3700:	00070223          	sb	zero,4(a4) # e000f004 <_eusrstack+0xc000a004>
C:\Users\山东张\Desktop\新建文件夹\新建文件夹 (2)\SLAVE527\SLAVE-hui\obj/../Libraries/seekfree_libraries/zf_systick.c:32
    SysTick->CNTL1 = 0;
    3704:	e000f737          	lui	a4,0xe000f
    3708:	000702a3          	sb	zero,5(a4) # e000f005 <_eusrstack+0xc000a005>
C:\Users\山东张\Desktop\新建文件夹\新建文件夹 (2)\SLAVE527\SLAVE-hui\obj/../Libraries/seekfree_libraries/zf_systick.c:33
    SysTick->CNTL2 = 0;
    370c:	e000f737          	lui	a4,0xe000f
    3710:	00070323          	sb	zero,6(a4) # e000f006 <_eusrstack+0xc000a006>
C:\Users\山东张\Desktop\新建文件夹\新建文件夹 (2)\SLAVE527\SLAVE-hui\obj/../Libraries/seekfree_libraries/zf_systick.c:34
    SysTick->CNTL3 = 0;
    3714:	e000f737          	lui	a4,0xe000f
    3718:	000703a3          	sb	zero,7(a4) # e000f007 <_eusrstack+0xc000a007>
C:\Users\山东张\Desktop\新建文件夹\新建文件夹 (2)\SLAVE527\SLAVE-hui\obj/../Libraries/seekfree_libraries/zf_systick.c:35
    SysTick->CNTH0 = 0;
    371c:	e000f737          	lui	a4,0xe000f
    3720:	00070423          	sb	zero,8(a4) # e000f008 <_eusrstack+0xc000a008>
C:\Users\山东张\Desktop\新建文件夹\新建文件夹 (2)\SLAVE527\SLAVE-hui\obj/../Libraries/seekfree_libraries/zf_systick.c:36
    SysTick->CNTH1 = 0;
    3724:	e000f737          	lui	a4,0xe000f
    3728:	000704a3          	sb	zero,9(a4) # e000f009 <_eusrstack+0xc000a009>
C:\Users\山东张\Desktop\新建文件夹\新建文件夹 (2)\SLAVE527\SLAVE-hui\obj/../Libraries/seekfree_libraries/zf_systick.c:37
    SysTick->CNTH2 = 0;
    372c:	e000f737          	lui	a4,0xe000f
    3730:	00070523          	sb	zero,10(a4) # e000f00a <_eusrstack+0xc000a00a>
C:\Users\山东张\Desktop\新建文件夹\新建文件夹 (2)\SLAVE527\SLAVE-hui\obj/../Libraries/seekfree_libraries/zf_systick.c:38
    SysTick->CNTH3 = 0;
    3734:	e000f737          	lui	a4,0xe000f
    3738:	000705a3          	sb	zero,11(a4) # e000f00b <_eusrstack+0xc000a00b>
C:\Users\山东张\Desktop\新建文件夹\新建文件夹 (2)\SLAVE527\SLAVE-hui\obj/../Libraries/seekfree_libraries/zf_systick.c:39
    SysTick->CTLR = 1;          //启动系统计数器 systick（HCLK/8 时基） us
    373c:	e000f737          	lui	a4,0xe000f
    3740:	4685                	li	a3,1
    3742:	c314                	sw	a3,0(a4)
C:\Users\山东张\Desktop\新建文件夹\新建文件夹 (2)\SLAVE527\SLAVE-hui\obj/../Libraries/seekfree_libraries/zf_systick.c:41

    while((*(volatile uint32*)0xE000F004) <= time);
    3744:	0001                	nop
C:\Users\山东张\Desktop\新建文件夹\新建文件夹 (2)\SLAVE527\SLAVE-hui\obj/../Libraries/seekfree_libraries/zf_systick.c:41 (discriminator 1)
    3746:	e000f737          	lui	a4,0xe000f
    374a:	0711                	addi	a4,a4,4
    374c:	4318                	lw	a4,0(a4)
    374e:	87ba                	mv	a5,a4
    3750:	4801                	li	a6,0
    3752:	fec42703          	lw	a4,-20(s0)
    3756:	86c2                	mv	a3,a6
    3758:	00d76d63          	bltu	a4,a3,3772 <systick_delay+0x8c>
    375c:	fec42703          	lw	a4,-20(s0)
    3760:	86c2                	mv	a3,a6
    3762:	fed712e3          	bne	a4,a3,3746 <systick_delay+0x60>
    3766:	fe842703          	lw	a4,-24(s0)
    376a:	86be                	mv	a3,a5
    376c:	00d76363          	bltu	a4,a3,3772 <systick_delay+0x8c>
    3770:	bfd9                	j	3746 <systick_delay+0x60>
C:\Users\山东张\Desktop\新建文件夹\新建文件夹 (2)\SLAVE527\SLAVE-hui\obj/../Libraries/seekfree_libraries/zf_systick.c:42
}
    3772:	0001                	nop
    3774:	4472                	lw	s0,28(sp)
    3776:	6105                	addi	sp,sp,32
    3778:	8082                	ret

0000377a <uart_gpio_init>:
uart_gpio_init():
C:\Users\山东张\Desktop\新建文件夹\新建文件夹 (2)\SLAVE527\SLAVE-hui\obj/../Libraries/seekfree_libraries/zf_uart.c:38
//  @param      rx_pin      串口接收引脚号
//  @return     void
//  Sample usage:           内部使用，用户无需关心
//-------------------------------------------------------------------------------------------------------------------
void uart_gpio_init(UARTPIN_enum tx_pin, UARTPIN_enum rx_pin)
{
    377a:	1101                	addi	sp,sp,-32
    377c:	ce06                	sw	ra,28(sp)
    377e:	cc22                	sw	s0,24(sp)
    3780:	1000                	addi	s0,sp,32
    3782:	fea42623          	sw	a0,-20(s0)
    3786:	feb42423          	sw	a1,-24(s0)
C:\Users\山东张\Desktop\新建文件夹\新建文件夹 (2)\SLAVE527\SLAVE-hui\obj/../Libraries/seekfree_libraries/zf_uart.c:39
    if(tx_pin == UART1_TX_A9 && rx_pin == UART1_RX_A10)
    378a:	fec42783          	lw	a5,-20(s0)
    378e:	e785                	bnez	a5,37b6 <uart_gpio_init+0x3c>
C:\Users\山东张\Desktop\新建文件夹\新建文件夹 (2)\SLAVE527\SLAVE-hui\obj/../Libraries/seekfree_libraries/zf_uart.c:39 (discriminator 1)
    3790:	fe842703          	lw	a4,-24(s0)
    3794:	4785                	li	a5,1
    3796:	02f71063          	bne	a4,a5,37b6 <uart_gpio_init+0x3c>
C:\Users\山东张\Desktop\新建文件夹\新建文件夹 (2)\SLAVE527\SLAVE-hui\obj/../Libraries/seekfree_libraries/zf_uart.c:41
    {
        gpio_init(A9, GPO, 0, SPEED_50MHZ|OUT_AF_PP);
    379a:	31800693          	li	a3,792
    379e:	4601                	li	a2,0
    37a0:	4585                	li	a1,1
    37a2:	4525                	li	a0,9
    37a4:	e2eff0ef          	jal	ra,2dd2 <gpio_init>
C:\Users\山东张\Desktop\新建文件夹\新建文件夹 (2)\SLAVE527\SLAVE-hui\obj/../Libraries/seekfree_libraries/zf_uart.c:42
        gpio_init(A10, GPI, 0, IN_FLOAT);
    37a8:	4691                	li	a3,4
    37aa:	4601                	li	a2,0
    37ac:	4581                	li	a1,0
    37ae:	4529                	li	a0,10
    37b0:	e22ff0ef          	jal	ra,2dd2 <gpio_init>
C:\Users\山东张\Desktop\新建文件夹\新建文件夹 (2)\SLAVE527\SLAVE-hui\obj/../Libraries/seekfree_libraries/zf_uart.c:67
    else if(tx_pin == UART3_TX_C10)
    {
        gpio_init(C10, GPO, 0, SPEED_50MHZ|OUT_AF_PP);
        gpio_init(C11, GPI, 0, IN_FLOAT);
    }
}
    37b4:	a065                	j	385c <uart_gpio_init+0xe2>
C:\Users\山东张\Desktop\新建文件夹\新建文件夹 (2)\SLAVE527\SLAVE-hui\obj/../Libraries/seekfree_libraries/zf_uart.c:44
    else if(tx_pin == UART1_TX_B6)
    37b6:	fec42703          	lw	a4,-20(s0)
    37ba:	4789                	li	a5,2
    37bc:	02f71263          	bne	a4,a5,37e0 <uart_gpio_init+0x66>
C:\Users\山东张\Desktop\新建文件夹\新建文件夹 (2)\SLAVE527\SLAVE-hui\obj/../Libraries/seekfree_libraries/zf_uart.c:46
        gpio_init(B6, GPO, 0, SPEED_50MHZ|OUT_AF_PP);
    37c0:	31800693          	li	a3,792
    37c4:	4601                	li	a2,0
    37c6:	4585                	li	a1,1
    37c8:	02600513          	li	a0,38
    37cc:	e06ff0ef          	jal	ra,2dd2 <gpio_init>
C:\Users\山东张\Desktop\新建文件夹\新建文件夹 (2)\SLAVE527\SLAVE-hui\obj/../Libraries/seekfree_libraries/zf_uart.c:47
        gpio_init(B7, GPI, 0, IN_FLOAT);
    37d0:	4691                	li	a3,4
    37d2:	4601                	li	a2,0
    37d4:	4581                	li	a1,0
    37d6:	02700513          	li	a0,39
    37da:	df8ff0ef          	jal	ra,2dd2 <gpio_init>
C:\Users\山东张\Desktop\新建文件夹\新建文件夹 (2)\SLAVE527\SLAVE-hui\obj/../Libraries/seekfree_libraries/zf_uart.c:67
}
    37de:	a8bd                	j	385c <uart_gpio_init+0xe2>
C:\Users\山东张\Desktop\新建文件夹\新建文件夹 (2)\SLAVE527\SLAVE-hui\obj/../Libraries/seekfree_libraries/zf_uart.c:50
    else if(tx_pin == UART2_TX_A2)
    37e0:	fec42703          	lw	a4,-20(s0)
    37e4:	47c1                	li	a5,16
    37e6:	02f71063          	bne	a4,a5,3806 <uart_gpio_init+0x8c>
C:\Users\山东张\Desktop\新建文件夹\新建文件夹 (2)\SLAVE527\SLAVE-hui\obj/../Libraries/seekfree_libraries/zf_uart.c:52
        gpio_init(A2, GPO, 0, SPEED_50MHZ|OUT_AF_PP);
    37ea:	31800693          	li	a3,792
    37ee:	4601                	li	a2,0
    37f0:	4585                	li	a1,1
    37f2:	4509                	li	a0,2
    37f4:	ddeff0ef          	jal	ra,2dd2 <gpio_init>
C:\Users\山东张\Desktop\新建文件夹\新建文件夹 (2)\SLAVE527\SLAVE-hui\obj/../Libraries/seekfree_libraries/zf_uart.c:53
        gpio_init(A3, GPI, 0, IN_FLOAT);
    37f8:	4691                	li	a3,4
    37fa:	4601                	li	a2,0
    37fc:	4581                	li	a1,0
    37fe:	450d                	li	a0,3
    3800:	dd2ff0ef          	jal	ra,2dd2 <gpio_init>
C:\Users\山东张\Desktop\新建文件夹\新建文件夹 (2)\SLAVE527\SLAVE-hui\obj/../Libraries/seekfree_libraries/zf_uart.c:67
}
    3804:	a8a1                	j	385c <uart_gpio_init+0xe2>
C:\Users\山东张\Desktop\新建文件夹\新建文件夹 (2)\SLAVE527\SLAVE-hui\obj/../Libraries/seekfree_libraries/zf_uart.c:56
    else if(tx_pin == UART3_TX_B10)
    3806:	fec42703          	lw	a4,-20(s0)
    380a:	02000793          	li	a5,32
    380e:	02f71263          	bne	a4,a5,3832 <uart_gpio_init+0xb8>
C:\Users\山东张\Desktop\新建文件夹\新建文件夹 (2)\SLAVE527\SLAVE-hui\obj/../Libraries/seekfree_libraries/zf_uart.c:58
        gpio_init(B10, GPO, 0, SPEED_50MHZ|OUT_AF_PP);
    3812:	31800693          	li	a3,792
    3816:	4601                	li	a2,0
    3818:	4585                	li	a1,1
    381a:	02a00513          	li	a0,42
    381e:	db4ff0ef          	jal	ra,2dd2 <gpio_init>
C:\Users\山东张\Desktop\新建文件夹\新建文件夹 (2)\SLAVE527\SLAVE-hui\obj/../Libraries/seekfree_libraries/zf_uart.c:59
        gpio_init(B11, GPI, 0, IN_FLOAT);
    3822:	4691                	li	a3,4
    3824:	4601                	li	a2,0
    3826:	4581                	li	a1,0
    3828:	02b00513          	li	a0,43
    382c:	da6ff0ef          	jal	ra,2dd2 <gpio_init>
C:\Users\山东张\Desktop\新建文件夹\新建文件夹 (2)\SLAVE527\SLAVE-hui\obj/../Libraries/seekfree_libraries/zf_uart.c:67
}
    3830:	a035                	j	385c <uart_gpio_init+0xe2>
C:\Users\山东张\Desktop\新建文件夹\新建文件夹 (2)\SLAVE527\SLAVE-hui\obj/../Libraries/seekfree_libraries/zf_uart.c:62
    else if(tx_pin == UART3_TX_C10)
    3832:	fec42703          	lw	a4,-20(s0)
    3836:	02200793          	li	a5,34
    383a:	02f71163          	bne	a4,a5,385c <uart_gpio_init+0xe2>
C:\Users\山东张\Desktop\新建文件夹\新建文件夹 (2)\SLAVE527\SLAVE-hui\obj/../Libraries/seekfree_libraries/zf_uart.c:64
        gpio_init(C10, GPO, 0, SPEED_50MHZ|OUT_AF_PP);
    383e:	31800693          	li	a3,792
    3842:	4601                	li	a2,0
    3844:	4585                	li	a1,1
    3846:	04a00513          	li	a0,74
    384a:	d88ff0ef          	jal	ra,2dd2 <gpio_init>
C:\Users\山东张\Desktop\新建文件夹\新建文件夹 (2)\SLAVE527\SLAVE-hui\obj/../Libraries/seekfree_libraries/zf_uart.c:65
        gpio_init(C11, GPI, 0, IN_FLOAT);
    384e:	4691                	li	a3,4
    3850:	4601                	li	a2,0
    3852:	4581                	li	a1,0
    3854:	04b00513          	li	a0,75
    3858:	d7aff0ef          	jal	ra,2dd2 <gpio_init>
C:\Users\山东张\Desktop\新建文件夹\新建文件夹 (2)\SLAVE527\SLAVE-hui\obj/../Libraries/seekfree_libraries/zf_uart.c:67
}
    385c:	0001                	nop
    385e:	40f2                	lw	ra,28(sp)
    3860:	4462                	lw	s0,24(sp)
    3862:	6105                	addi	sp,sp,32
    3864:	8082                	ret

00003866 <uart_init>:
uart_init():
C:\Users\山东张\Desktop\新建文件夹\新建文件夹 (2)\SLAVE527\SLAVE-hui\obj/../Libraries/seekfree_libraries/zf_uart.c:79
//  @param      rx_pin      串口接收引脚号
//  @return     void
//  Sample usage:           uart_init(UART_1, 115200, UART1_TX_A9, UART1_RX_A10); //串口1初始化引脚号,TX为A9,RX为A10
//-------------------------------------------------------------------------------------------------------------------
void uart_init(UARTN_enum uartn, uint32 baud, UARTPIN_enum tx_pin, UARTPIN_enum rx_pin)
{
    3866:	7179                	addi	sp,sp,-48
    3868:	d606                	sw	ra,44(sp)
    386a:	d422                	sw	s0,40(sp)
    386c:	1800                	addi	s0,sp,48
    386e:	fca42e23          	sw	a0,-36(s0)
    3872:	fcb42c23          	sw	a1,-40(s0)
    3876:	fcc42a23          	sw	a2,-44(s0)
    387a:	fcd42823          	sw	a3,-48(s0)
C:\Users\山东张\Desktop\新建文件夹\新建文件夹 (2)\SLAVE527\SLAVE-hui\obj/../Libraries/seekfree_libraries/zf_uart.c:83
    USART_InitTypeDef USART_InitStructure;


    RCC_APB2PeriphClockCmd(RCC_APB2Periph_AFIO, ENABLE);
    387e:	4585                	li	a1,1
    3880:	4505                	li	a0,1
    3882:	a8efe0ef          	jal	ra,1b10 <RCC_APB2PeriphClockCmd>
C:\Users\山东张\Desktop\新建文件夹\新建文件夹 (2)\SLAVE527\SLAVE-hui\obj/../Libraries/seekfree_libraries/zf_uart.c:86

    //引脚初始化
    uart_gpio_init(tx_pin, rx_pin);
    3886:	fd042583          	lw	a1,-48(s0)
    388a:	fd442503          	lw	a0,-44(s0)
    388e:	35f5                	jal	377a <uart_gpio_init>
C:\Users\山东张\Desktop\新建文件夹\新建文件夹 (2)\SLAVE527\SLAVE-hui\obj/../Libraries/seekfree_libraries/zf_uart.c:88

    if(UART1_TX_B6 == tx_pin && UART1_RX_B7 == rx_pin)                         //引脚重映射
    3890:	fd442703          	lw	a4,-44(s0)
    3894:	4789                	li	a5,2
    3896:	00f71b63          	bne	a4,a5,38ac <uart_init+0x46>
C:\Users\山东张\Desktop\新建文件夹\新建文件夹 (2)\SLAVE527\SLAVE-hui\obj/../Libraries/seekfree_libraries/zf_uart.c:88 (discriminator 1)
    389a:	fd042703          	lw	a4,-48(s0)
    389e:	478d                	li	a5,3
    38a0:	00f71663          	bne	a4,a5,38ac <uart_init+0x46>
C:\Users\山东张\Desktop\新建文件夹\新建文件夹 (2)\SLAVE527\SLAVE-hui\obj/../Libraries/seekfree_libraries/zf_uart.c:89
        GPIO_PinRemapConfig(GPIO_Remap_USART1, ENABLE);
    38a4:	4585                	li	a1,1
    38a6:	4511                	li	a0,4
    38a8:	cd9fd0ef          	jal	ra,1580 <GPIO_PinRemapConfig>
C:\Users\山东张\Desktop\新建文件夹\新建文件夹 (2)\SLAVE527\SLAVE-hui\obj/../Libraries/seekfree_libraries/zf_uart.c:90
    if(UART3_TX_C10 == tx_pin && UART3_RX_C11 == rx_pin)
    38ac:	fd442703          	lw	a4,-44(s0)
    38b0:	02200793          	li	a5,34
    38b4:	00f71f63          	bne	a4,a5,38d2 <uart_init+0x6c>
C:\Users\山东张\Desktop\新建文件夹\新建文件夹 (2)\SLAVE527\SLAVE-hui\obj/../Libraries/seekfree_libraries/zf_uart.c:90 (discriminator 1)
    38b8:	fd042703          	lw	a4,-48(s0)
    38bc:	02300793          	li	a5,35
    38c0:	00f71963          	bne	a4,a5,38d2 <uart_init+0x6c>
C:\Users\山东张\Desktop\新建文件夹\新建文件夹 (2)\SLAVE527\SLAVE-hui\obj/../Libraries/seekfree_libraries/zf_uart.c:91
        GPIO_PinRemapConfig(GPIO_PartialRemap_USART3, ENABLE);
    38c4:	4585                	li	a1,1
    38c6:	001407b7          	lui	a5,0x140
    38ca:	01078513          	addi	a0,a5,16 # 140010 <_data_lma+0x13a924>
    38ce:	cb3fd0ef          	jal	ra,1580 <GPIO_PinRemapConfig>
C:\Users\山东张\Desktop\新建文件夹\新建文件夹 (2)\SLAVE527\SLAVE-hui\obj/../Libraries/seekfree_libraries/zf_uart.c:94

    //串口总线使能
    if(UART_1 == uartn) RCC_APB2PeriphClockCmd(RCC_APB2Periph_USART1, ENABLE);
    38d2:	fdc42783          	lw	a5,-36(s0)
    38d6:	e791                	bnez	a5,38e2 <uart_init+0x7c>
C:\Users\山东张\Desktop\新建文件夹\新建文件夹 (2)\SLAVE527\SLAVE-hui\obj/../Libraries/seekfree_libraries/zf_uart.c:94 (discriminator 1)
    38d8:	4585                	li	a1,1
    38da:	6511                	lui	a0,0x4
    38dc:	a34fe0ef          	jal	ra,1b10 <RCC_APB2PeriphClockCmd>
    38e0:	a035                	j	390c <uart_init+0xa6>
C:\Users\山东张\Desktop\新建文件夹\新建文件夹 (2)\SLAVE527\SLAVE-hui\obj/../Libraries/seekfree_libraries/zf_uart.c:95
    else if(UART_2 == uartn) RCC_APB1PeriphClockCmd(RCC_APB1Periph_USART2, ENABLE);
    38e2:	fdc42703          	lw	a4,-36(s0)
    38e6:	4785                	li	a5,1
    38e8:	00f71863          	bne	a4,a5,38f8 <uart_init+0x92>
C:\Users\山东张\Desktop\新建文件夹\新建文件夹 (2)\SLAVE527\SLAVE-hui\obj/../Libraries/seekfree_libraries/zf_uart.c:95 (discriminator 1)
    38ec:	4585                	li	a1,1
    38ee:	00020537          	lui	a0,0x20
    38f2:	a64fe0ef          	jal	ra,1b56 <RCC_APB1PeriphClockCmd>
    38f6:	a819                	j	390c <uart_init+0xa6>
C:\Users\山东张\Desktop\新建文件夹\新建文件夹 (2)\SLAVE527\SLAVE-hui\obj/../Libraries/seekfree_libraries/zf_uart.c:96
    else if(UART_3 == uartn) RCC_APB1PeriphClockCmd(RCC_APB1Periph_USART3, ENABLE);
    38f8:	fdc42703          	lw	a4,-36(s0)
    38fc:	4789                	li	a5,2
    38fe:	00f71763          	bne	a4,a5,390c <uart_init+0xa6>
C:\Users\山东张\Desktop\新建文件夹\新建文件夹 (2)\SLAVE527\SLAVE-hui\obj/../Libraries/seekfree_libraries/zf_uart.c:96 (discriminator 1)
    3902:	4585                	li	a1,1
    3904:	00040537          	lui	a0,0x40
    3908:	a4efe0ef          	jal	ra,1b56 <RCC_APB1PeriphClockCmd>
C:\Users\山东张\Desktop\新建文件夹\新建文件夹 (2)\SLAVE527\SLAVE-hui\obj/../Libraries/seekfree_libraries/zf_uart.c:99

    //串口参数配置
    USART_InitStructure.USART_BaudRate = baud;
    390c:	fd842783          	lw	a5,-40(s0)
    3910:	fef42023          	sw	a5,-32(s0)
C:\Users\山东张\Desktop\新建文件夹\新建文件夹 (2)\SLAVE527\SLAVE-hui\obj/../Libraries/seekfree_libraries/zf_uart.c:100
    USART_InitStructure.USART_WordLength = USART_WordLength_8b;
    3914:	fe041223          	sh	zero,-28(s0)
C:\Users\山东张\Desktop\新建文件夹\新建文件夹 (2)\SLAVE527\SLAVE-hui\obj/../Libraries/seekfree_libraries/zf_uart.c:101
    USART_InitStructure.USART_StopBits = USART_StopBits_1;
    3918:	fe041323          	sh	zero,-26(s0)
C:\Users\山东张\Desktop\新建文件夹\新建文件夹 (2)\SLAVE527\SLAVE-hui\obj/../Libraries/seekfree_libraries/zf_uart.c:102
    USART_InitStructure.USART_Parity = USART_Parity_No;
    391c:	fe041423          	sh	zero,-24(s0)
C:\Users\山东张\Desktop\新建文件夹\新建文件夹 (2)\SLAVE527\SLAVE-hui\obj/../Libraries/seekfree_libraries/zf_uart.c:103
    USART_InitStructure.USART_HardwareFlowControl = USART_HardwareFlowControl_None;
    3920:	fe041623          	sh	zero,-20(s0)
C:\Users\山东张\Desktop\新建文件夹\新建文件夹 (2)\SLAVE527\SLAVE-hui\obj/../Libraries/seekfree_libraries/zf_uart.c:104
    USART_InitStructure.USART_Mode = USART_Mode_Tx | USART_Mode_Rx;
    3924:	47b1                	li	a5,12
    3926:	fef41523          	sh	a5,-22(s0)
C:\Users\山东张\Desktop\新建文件夹\新建文件夹 (2)\SLAVE527\SLAVE-hui\obj/../Libraries/seekfree_libraries/zf_uart.c:107

    //使能串口
    USART_Init((USART_TypeDef*)UARTN[uartn], &USART_InitStructure);
    392a:	6795                	lui	a5,0x5
    392c:	fdc42703          	lw	a4,-36(s0)
    3930:	070a                	slli	a4,a4,0x2
    3932:	5e878793          	addi	a5,a5,1512 # 55e8 <UARTN>
    3936:	97ba                	add	a5,a5,a4
    3938:	439c                	lw	a5,0(a5)
    393a:	873e                	mv	a4,a5
    393c:	fe040793          	addi	a5,s0,-32
    3940:	85be                	mv	a1,a5
    3942:	853a                	mv	a0,a4
    3944:	83ffe0ef          	jal	ra,2182 <USART_Init>
C:\Users\山东张\Desktop\新建文件夹\新建文件夹 (2)\SLAVE527\SLAVE-hui\obj/../Libraries/seekfree_libraries/zf_uart.c:108
    USART_Cmd((USART_TypeDef*)UARTN[uartn], ENABLE);
    3948:	6795                	lui	a5,0x5
    394a:	fdc42703          	lw	a4,-36(s0)
    394e:	070a                	slli	a4,a4,0x2
    3950:	5e878793          	addi	a5,a5,1512 # 55e8 <UARTN>
    3954:	97ba                	add	a5,a5,a4
    3956:	439c                	lw	a5,0(a5)
    3958:	4585                	li	a1,1
    395a:	853e                	mv	a0,a5
    395c:	a5bfe0ef          	jal	ra,23b6 <USART_Cmd>
C:\Users\山东张\Desktop\新建文件夹\新建文件夹 (2)\SLAVE527\SLAVE-hui\obj/../Libraries/seekfree_libraries/zf_uart.c:111


}
    3960:	0001                	nop
    3962:	50b2                	lw	ra,44(sp)
    3964:	5422                	lw	s0,40(sp)
    3966:	6145                	addi	sp,sp,48
    3968:	8082                	ret

0000396a <uart_putchar>:
uart_putchar():
C:\Users\山东张\Desktop\新建文件夹\新建文件夹 (2)\SLAVE527\SLAVE-hui\obj/../Libraries/seekfree_libraries/zf_uart.c:122
//  @param      dat         串口数据
//  @return     void
//  Sample usage:           uart_putchar(UART_1, 0x43);        //串口1发送0x43。
//-------------------------------------------------------------------------------------------------------------------
void uart_putchar(UARTN_enum uartn, uint8 dat)
{
    396a:	1101                	addi	sp,sp,-32
    396c:	ce22                	sw	s0,28(sp)
    396e:	1000                	addi	s0,sp,32
    3970:	fea42623          	sw	a0,-20(s0)
    3974:	87ae                	mv	a5,a1
    3976:	fef405a3          	sb	a5,-21(s0)
C:\Users\山东张\Desktop\新建文件夹\新建文件夹 (2)\SLAVE527\SLAVE-hui\obj/../Libraries/seekfree_libraries/zf_uart.c:123
    while((((USART_TypeDef*)UARTN[uartn])->STATR & USART_FLAG_TXE)==0);
    397a:	0001                	nop
C:\Users\山东张\Desktop\新建文件夹\新建文件夹 (2)\SLAVE527\SLAVE-hui\obj/../Libraries/seekfree_libraries/zf_uart.c:123 (discriminator 1)
    397c:	6795                	lui	a5,0x5
    397e:	fec42703          	lw	a4,-20(s0)
    3982:	070a                	slli	a4,a4,0x2
    3984:	5e878793          	addi	a5,a5,1512 # 55e8 <UARTN>
    3988:	97ba                	add	a5,a5,a4
    398a:	439c                	lw	a5,0(a5)
    398c:	0007d783          	lhu	a5,0(a5)
    3990:	07c2                	slli	a5,a5,0x10
    3992:	83c1                	srli	a5,a5,0x10
    3994:	0807f793          	andi	a5,a5,128
    3998:	d3f5                	beqz	a5,397c <uart_putchar+0x12>
C:\Users\山东张\Desktop\新建文件夹\新建文件夹 (2)\SLAVE527\SLAVE-hui\obj/../Libraries/seekfree_libraries/zf_uart.c:124
    ((USART_TypeDef*)UARTN[uartn])->DATAR = dat;
    399a:	6795                	lui	a5,0x5
    399c:	fec42703          	lw	a4,-20(s0)
    39a0:	070a                	slli	a4,a4,0x2
    39a2:	5e878793          	addi	a5,a5,1512 # 55e8 <UARTN>
    39a6:	97ba                	add	a5,a5,a4
    39a8:	439c                	lw	a5,0(a5)
    39aa:	873e                	mv	a4,a5
    39ac:	feb44783          	lbu	a5,-21(s0)
    39b0:	07c2                	slli	a5,a5,0x10
    39b2:	83c1                	srli	a5,a5,0x10
    39b4:	00f71223          	sh	a5,4(a4) # e000f004 <_eusrstack+0xc000a004>
C:\Users\山东张\Desktop\新建文件夹\新建文件夹 (2)\SLAVE527\SLAVE-hui\obj/../Libraries/seekfree_libraries/zf_uart.c:125
}
    39b8:	0001                	nop
    39ba:	4472                	lw	s0,28(sp)
    39bc:	6105                	addi	sp,sp,32
    39be:	8082                	ret

000039c0 <uart_putbuff>:
uart_putbuff():
C:\Users\山东张\Desktop\新建文件夹\新建文件夹 (2)\SLAVE527\SLAVE-hui\obj/../Libraries/seekfree_libraries/zf_uart.c:136
//  @param      len         数据长度
//  @return     void
//  Sample usage:           uart_putbuff(UART_1, buff, 10);     //串口1发送10个buff数组。
//-------------------------------------------------------------------------------------------------------------------
void uart_putbuff(UARTN_enum uartn, uint8 *buff, uint32 len)
{
    39c0:	1101                	addi	sp,sp,-32
    39c2:	ce06                	sw	ra,28(sp)
    39c4:	cc22                	sw	s0,24(sp)
    39c6:	1000                	addi	s0,sp,32
    39c8:	fea42623          	sw	a0,-20(s0)
    39cc:	feb42423          	sw	a1,-24(s0)
    39d0:	fec42223          	sw	a2,-28(s0)
C:\Users\山东张\Desktop\新建文件夹\新建文件夹 (2)\SLAVE527\SLAVE-hui\obj/../Libraries/seekfree_libraries/zf_uart.c:137
    while(len--)
    39d4:	a829                	j	39ee <uart_putbuff+0x2e>
C:\Users\山东张\Desktop\新建文件夹\新建文件夹 (2)\SLAVE527\SLAVE-hui\obj/../Libraries/seekfree_libraries/zf_uart.c:138
        uart_putchar(uartn, *buff++);
    39d6:	fe842783          	lw	a5,-24(s0)
    39da:	00178713          	addi	a4,a5,1
    39de:	fee42423          	sw	a4,-24(s0)
    39e2:	0007c783          	lbu	a5,0(a5)
    39e6:	85be                	mv	a1,a5
    39e8:	fec42503          	lw	a0,-20(s0)
    39ec:	3fbd                	jal	396a <uart_putchar>
C:\Users\山东张\Desktop\新建文件夹\新建文件夹 (2)\SLAVE527\SLAVE-hui\obj/../Libraries/seekfree_libraries/zf_uart.c:137
    while(len--)
    39ee:	fe442783          	lw	a5,-28(s0)
    39f2:	fff78713          	addi	a4,a5,-1
    39f6:	fee42223          	sw	a4,-28(s0)
    39fa:	fff1                	bnez	a5,39d6 <uart_putbuff+0x16>
C:\Users\山东张\Desktop\新建文件夹\新建文件夹 (2)\SLAVE527\SLAVE-hui\obj/../Libraries/seekfree_libraries/zf_uart.c:139
}
    39fc:	0001                	nop
    39fe:	40f2                	lw	ra,28(sp)
    3a00:	4462                	lw	s0,24(sp)
    3a02:	6105                	addi	sp,sp,32
    3a04:	8082                	ret

00003a06 <uart_rx_irq>:
uart_rx_irq():
C:\Users\山东张\Desktop\新建文件夹\新建文件夹 (2)\SLAVE527\SLAVE-hui\obj/../Libraries/seekfree_libraries/zf_uart.c:165
//  @param      status      使能或者失能
//  @return     void
//  Sample usage:           uart_rx_irq(UART_1, ENABLE);        //打开串口1接收中断
//-------------------------------------------------------------------------------------------------------------------
void uart_rx_irq(UARTN_enum uartn,uint8 status)
{
    3a06:	1101                	addi	sp,sp,-32
    3a08:	ce06                	sw	ra,28(sp)
    3a0a:	cc22                	sw	s0,24(sp)
    3a0c:	1000                	addi	s0,sp,32
    3a0e:	fea42623          	sw	a0,-20(s0)
    3a12:	87ae                	mv	a5,a1
    3a14:	fef405a3          	sb	a5,-21(s0)
C:\Users\山东张\Desktop\新建文件夹\新建文件夹 (2)\SLAVE527\SLAVE-hui\obj/../Libraries/seekfree_libraries/zf_uart.c:166
    USART_ITConfig(((USART_TypeDef*)UARTN[uartn]), USART_IT_RXNE, ENABLE);
    3a18:	6795                	lui	a5,0x5
    3a1a:	fec42703          	lw	a4,-20(s0)
    3a1e:	070a                	slli	a4,a4,0x2
    3a20:	5e878793          	addi	a5,a5,1512 # 55e8 <UARTN>
    3a24:	97ba                	add	a5,a5,a4
    3a26:	439c                	lw	a5,0(a5)
    3a28:	4605                	li	a2,1
    3a2a:	52500593          	li	a1,1317
    3a2e:	853e                	mv	a0,a5
    3a30:	9e7fe0ef          	jal	ra,2416 <USART_ITConfig>
C:\Users\山东张\Desktop\新建文件夹\新建文件夹 (2)\SLAVE527\SLAVE-hui\obj/../Libraries/seekfree_libraries/zf_uart.c:167
    nvic_init(USART1_IRQn + uartn, 1, 0, status);
    3a34:	fec42783          	lw	a5,-20(s0)
    3a38:	03578793          	addi	a5,a5,53
    3a3c:	feb44703          	lbu	a4,-21(s0)
    3a40:	86ba                	mv	a3,a4
    3a42:	4601                	li	a2,0
    3a44:	4585                	li	a1,1
    3a46:	853e                	mv	a0,a5
    3a48:	e82ff0ef          	jal	ra,30ca <nvic_init>
C:\Users\山东张\Desktop\新建文件夹\新建文件夹 (2)\SLAVE527\SLAVE-hui\obj/../Libraries/seekfree_libraries/zf_uart.c:168
}
    3a4c:	0001                	nop
    3a4e:	40f2                	lw	ra,28(sp)
    3a50:	4462                	lw	s0,24(sp)
    3a52:	6105                	addi	sp,sp,32
    3a54:	8082                	ret

00003a56 <board_init>:
board_init():
C:\Users\山东张\Desktop\新建文件夹\新建文件夹 (2)\SLAVE527\SLAVE-hui\obj/../Libraries/board/board.c:9




void board_init(void)
{
    3a56:	1141                	addi	sp,sp,-16
    3a58:	c606                	sw	ra,12(sp)
    3a5a:	c422                	sw	s0,8(sp)
    3a5c:	0800                	addi	s0,sp,16
C:\Users\山东张\Desktop\新建文件夹\新建文件夹 (2)\SLAVE527\SLAVE-hui\obj/../Libraries/board/board.c:11
    //获取系统主频
    sys_clk = 8000000 * (((RCC->CFGR0 >> 18)&0x0F) + 2);
    3a5e:	400217b7          	lui	a5,0x40021
    3a62:	43dc                	lw	a5,4(a5)
    3a64:	83c9                	srli	a5,a5,0x12
    3a66:	00f7f713          	andi	a4,a5,15
    3a6a:	007a17b7          	lui	a5,0x7a1
    3a6e:	20078793          	addi	a5,a5,512 # 7a1200 <_data_lma+0x79bb14>
    3a72:	02f70733          	mul	a4,a4,a5
    3a76:	00f427b7          	lui	a5,0xf42
    3a7a:	40078793          	addi	a5,a5,1024 # f42400 <_data_lma+0xf3cd14>
    3a7e:	973e                	add	a4,a4,a5
    3a80:	82e1ac23          	sw	a4,-1992(gp) # 200000f0 <sys_clk>
C:\Users\山东张\Desktop\新建文件夹\新建文件夹 (2)\SLAVE527\SLAVE-hui\obj/../Libraries/board/board.c:13
    //初始化DEBUG串口
    uart_init(DEBUG_UART, DEBUG_UART_BAUD, DEBUG_UART_TX_PIN, DEBUG_UART_RX_PIN);
    3a84:	02300693          	li	a3,35
    3a88:	02200613          	li	a2,34
    3a8c:	67f1                	lui	a5,0x1c
    3a8e:	20078593          	addi	a1,a5,512 # 1c200 <_data_lma+0x16b14>
    3a92:	4509                	li	a0,2
    3a94:	dd3ff0ef          	jal	ra,3866 <uart_init>
C:\Users\山东张\Desktop\新建文件夹\新建文件夹 (2)\SLAVE527\SLAVE-hui\obj/../Libraries/board/board.c:14
}
    3a98:	0001                	nop
    3a9a:	40b2                	lw	ra,12(sp)
    3a9c:	4422                	lw	s0,8(sp)
    3a9e:	0141                	addi	sp,sp,16
    3aa0:	8082                	ret

00003aa2 <_write>:
_write():
C:\Users\山东张\Desktop\新建文件夹\新建文件夹 (2)\SLAVE527\SLAVE-hui\obj/../Libraries/board/board.c:25
//  @since      v1.0
//  Sample usage:              重定向printf到DEBUG串口上
//-------------------------------------------------------------------------------------------------------------------
#if (1 == PRINTF_ENABLE)
int _write(int fd, char *buf, int size)
{
    3aa2:	7179                	addi	sp,sp,-48
    3aa4:	d606                	sw	ra,44(sp)
    3aa6:	d422                	sw	s0,40(sp)
    3aa8:	1800                	addi	s0,sp,48
    3aaa:	fca42e23          	sw	a0,-36(s0)
    3aae:	fcb42c23          	sw	a1,-40(s0)
    3ab2:	fcc42a23          	sw	a2,-44(s0)
C:\Users\山东张\Desktop\新建文件夹\新建文件夹 (2)\SLAVE527\SLAVE-hui\obj/../Libraries/board/board.c:27
    int i;
    for(i=0; i<size; i++)
    3ab6:	fe042623          	sw	zero,-20(s0)
    3aba:	a0a9                	j	3b04 <_write+0x62>
C:\Users\山东张\Desktop\新建文件夹\新建文件夹 (2)\SLAVE527\SLAVE-hui\obj/../Libraries/board/board.c:29
    {
        while (USART_GetFlagStatus((USART_TypeDef*)UARTN[DEBUG_UART], USART_FLAG_TC) == RESET);
    3abc:	0001                	nop
C:\Users\山东张\Desktop\新建文件夹\新建文件夹 (2)\SLAVE527\SLAVE-hui\obj/../Libraries/board/board.c:29 (discriminator 1)
    3abe:	6795                	lui	a5,0x5
    3ac0:	5e878793          	addi	a5,a5,1512 # 55e8 <UARTN>
    3ac4:	479c                	lw	a5,8(a5)
    3ac6:	04000593          	li	a1,64
    3aca:	853e                	mv	a0,a5
    3acc:	a3dfe0ef          	jal	ra,2508 <USART_GetFlagStatus>
    3ad0:	87aa                	mv	a5,a0
    3ad2:	d7f5                	beqz	a5,3abe <_write+0x1c>
C:\Users\山东张\Desktop\新建文件夹\新建文件夹 (2)\SLAVE527\SLAVE-hui\obj/../Libraries/board/board.c:30 (discriminator 2)
        USART_SendData((USART_TypeDef*)UARTN[DEBUG_UART], *buf++);
    3ad4:	6795                	lui	a5,0x5
    3ad6:	5e878793          	addi	a5,a5,1512 # 55e8 <UARTN>
    3ada:	479c                	lw	a5,8(a5)
    3adc:	86be                	mv	a3,a5
    3ade:	fd842783          	lw	a5,-40(s0)
    3ae2:	00178713          	addi	a4,a5,1
    3ae6:	fce42c23          	sw	a4,-40(s0)
    3aea:	00078783          	lb	a5,0(a5)
    3aee:	07c2                	slli	a5,a5,0x10
    3af0:	83c1                	srli	a5,a5,0x10
    3af2:	85be                	mv	a1,a5
    3af4:	8536                	mv	a0,a3
    3af6:	9e5fe0ef          	jal	ra,24da <USART_SendData>
C:\Users\山东张\Desktop\新建文件夹\新建文件夹 (2)\SLAVE527\SLAVE-hui\obj/../Libraries/board/board.c:27 (discriminator 2)
    for(i=0; i<size; i++)
    3afa:	fec42783          	lw	a5,-20(s0)
    3afe:	0785                	addi	a5,a5,1
    3b00:	fef42623          	sw	a5,-20(s0)
C:\Users\山东张\Desktop\新建文件夹\新建文件夹 (2)\SLAVE527\SLAVE-hui\obj/../Libraries/board/board.c:27 (discriminator 1)
    3b04:	fec42703          	lw	a4,-20(s0)
    3b08:	fd442783          	lw	a5,-44(s0)
    3b0c:	faf748e3          	blt	a4,a5,3abc <_write+0x1a>
C:\Users\山东张\Desktop\新建文件夹\新建文件夹 (2)\SLAVE527\SLAVE-hui\obj/../Libraries/board/board.c:32
    }
    return size;
    3b10:	fd442783          	lw	a5,-44(s0)
C:\Users\山东张\Desktop\新建文件夹\新建文件夹 (2)\SLAVE527\SLAVE-hui\obj/../Libraries/board/board.c:33
}
    3b14:	853e                	mv	a0,a5
    3b16:	50b2                	lw	ra,44(sp)
    3b18:	5422                	lw	s0,40(sp)
    3b1a:	6145                	addi	sp,sp,48
    3b1c:	8082                	ret

00003b1e <SetSysClock>:
SetSysClock():
C:\Users\山东张\Desktop\新建文件夹\新建文件夹 (2)\SLAVE527\SLAVE-hui\obj/../Libraries/board/clock_config.c:11
* Description    : Sets System clock frequency to 72MHz and configure HCLK, PCLK2 and PCLK1 prescalers.
* Input          : None
* Return         : None
*******************************************************************************************/
static void SetSysClock(void)
{
    3b1e:	1101                	addi	sp,sp,-32
    3b20:	ce22                	sw	s0,28(sp)
    3b22:	1000                	addi	s0,sp,32
C:\Users\山东张\Desktop\新建文件夹\新建文件夹 (2)\SLAVE527\SLAVE-hui\obj/../Libraries/board/clock_config.c:12
    __IO uint32_t StartUpCounter = 0, HSEStatus = 0;
    3b24:	fe042623          	sw	zero,-20(s0)
    3b28:	fe042423          	sw	zero,-24(s0)
C:\Users\山东张\Desktop\新建文件夹\新建文件夹 (2)\SLAVE527\SLAVE-hui\obj/../Libraries/board/clock_config.c:14

    RCC->CTLR |= ((uint32_t)RCC_HSEON);
    3b2c:	400217b7          	lui	a5,0x40021
    3b30:	4394                	lw	a3,0(a5)
    3b32:	400217b7          	lui	a5,0x40021
    3b36:	6741                	lui	a4,0x10
    3b38:	8f55                	or	a4,a4,a3
    3b3a:	c398                	sw	a4,0(a5)
C:\Users\山东张\Desktop\新建文件夹\新建文件夹 (2)\SLAVE527\SLAVE-hui\obj/../Libraries/board/clock_config.c:19 (discriminator 2)

    /* Wait till HSE is ready and if Time out is reached exit */
    do
    {
        HSEStatus = RCC->CTLR & RCC_HSERDY;
    3b3c:	400217b7          	lui	a5,0x40021
    3b40:	4398                	lw	a4,0(a5)
    3b42:	000207b7          	lui	a5,0x20
    3b46:	8ff9                	and	a5,a5,a4
    3b48:	fef42423          	sw	a5,-24(s0)
C:\Users\山东张\Desktop\新建文件夹\新建文件夹 (2)\SLAVE527\SLAVE-hui\obj/../Libraries/board/clock_config.c:20 (discriminator 2)
        StartUpCounter++;
    3b4c:	fec42783          	lw	a5,-20(s0)
    3b50:	0785                	addi	a5,a5,1
    3b52:	fef42623          	sw	a5,-20(s0)
C:\Users\山东张\Desktop\新建文件夹\新建文件夹 (2)\SLAVE527\SLAVE-hui\obj/../Libraries/board/clock_config.c:21 (discriminator 2)
    } while((HSEStatus == 0) && (StartUpCounter != HSE_STARTUP_TIMEOUT));
    3b56:	fe842783          	lw	a5,-24(s0)
    3b5a:	e799                	bnez	a5,3b68 <SetSysClock+0x4a>
C:\Users\山东张\Desktop\新建文件夹\新建文件夹 (2)\SLAVE527\SLAVE-hui\obj/../Libraries/board/clock_config.c:21 (discriminator 1)
    3b5c:	fec42703          	lw	a4,-20(s0)
    3b60:	50000793          	li	a5,1280
    3b64:	fcf71ce3          	bne	a4,a5,3b3c <SetSysClock+0x1e>
C:\Users\山东张\Desktop\新建文件夹\新建文件夹 (2)\SLAVE527\SLAVE-hui\obj/../Libraries/board/clock_config.c:23

    if ((RCC->CTLR & RCC_HSERDY) != RESET)
    3b68:	400217b7          	lui	a5,0x40021
    3b6c:	4398                	lw	a4,0(a5)
    3b6e:	000207b7          	lui	a5,0x20
    3b72:	8ff9                	and	a5,a5,a4
    3b74:	c789                	beqz	a5,3b7e <SetSysClock+0x60>
C:\Users\山东张\Desktop\新建文件夹\新建文件夹 (2)\SLAVE527\SLAVE-hui\obj/../Libraries/board/clock_config.c:25
    {
        HSEStatus = (uint32_t)0x01;
    3b76:	4785                	li	a5,1
    3b78:	fef42423          	sw	a5,-24(s0)
    3b7c:	a019                	j	3b82 <SetSysClock+0x64>
C:\Users\山东张\Desktop\新建文件夹\新建文件夹 (2)\SLAVE527\SLAVE-hui\obj/../Libraries/board/clock_config.c:29
    }
    else
    {
        HSEStatus = (uint32_t)0x00;
    3b7e:	fe042423          	sw	zero,-24(s0)
C:\Users\山东张\Desktop\新建文件夹\新建文件夹 (2)\SLAVE527\SLAVE-hui\obj/../Libraries/board/clock_config.c:32
    }

    if (HSEStatus == (uint32_t)0x01)
    3b82:	fe842703          	lw	a4,-24(s0)
    3b86:	4785                	li	a5,1
    3b88:	0cf71763          	bne	a4,a5,3c56 <SetSysClock+0x138>
C:\Users\山东张\Desktop\新建文件夹\新建文件夹 (2)\SLAVE527\SLAVE-hui\obj/../Libraries/board/clock_config.c:35
    {
        /* Enable Prefetch Buffer */
        FLASH->ACTLR |= FLASH_ACTLR_PRFTBE;
    3b8c:	400227b7          	lui	a5,0x40022
    3b90:	4398                	lw	a4,0(a5)
    3b92:	400227b7          	lui	a5,0x40022
    3b96:	01076713          	ori	a4,a4,16
    3b9a:	c398                	sw	a4,0(a5)
C:\Users\山东张\Desktop\新建文件夹\新建文件夹 (2)\SLAVE527\SLAVE-hui\obj/../Libraries/board/clock_config.c:38

        /* Flash 2 wait state */
        FLASH->ACTLR &= (uint32_t)((uint32_t)~FLASH_ACTLR_LATENCY);
    3b9c:	400227b7          	lui	a5,0x40022
    3ba0:	4398                	lw	a4,0(a5)
    3ba2:	400227b7          	lui	a5,0x40022
    3ba6:	9b71                	andi	a4,a4,-4
    3ba8:	c398                	sw	a4,0(a5)
C:\Users\山东张\Desktop\新建文件夹\新建文件夹 (2)\SLAVE527\SLAVE-hui\obj/../Libraries/board/clock_config.c:39
        FLASH->ACTLR |= (uint32_t)FLASH_ACTLR_LATENCY_2;
    3baa:	400227b7          	lui	a5,0x40022
    3bae:	4398                	lw	a4,0(a5)
    3bb0:	400227b7          	lui	a5,0x40022
    3bb4:	00276713          	ori	a4,a4,2
    3bb8:	c398                	sw	a4,0(a5)
C:\Users\山东张\Desktop\新建文件夹\新建文件夹 (2)\SLAVE527\SLAVE-hui\obj/../Libraries/board/clock_config.c:42

        /* HCLK = SYSCLK */
        RCC->CFGR0 |= (uint32_t)RCC_HPRE_DIV1;
    3bba:	40021737          	lui	a4,0x40021
    3bbe:	400217b7          	lui	a5,0x40021
    3bc2:	4358                	lw	a4,4(a4)
    3bc4:	c3d8                	sw	a4,4(a5)
C:\Users\山东张\Desktop\新建文件夹\新建文件夹 (2)\SLAVE527\SLAVE-hui\obj/../Libraries/board/clock_config.c:44
        /* PCLK2 = HCLK */
        RCC->CFGR0 |= (uint32_t)RCC_PPRE2_DIV1;
    3bc6:	40021737          	lui	a4,0x40021
    3bca:	400217b7          	lui	a5,0x40021
    3bce:	4358                	lw	a4,4(a4)
    3bd0:	c3d8                	sw	a4,4(a5)
C:\Users\山东张\Desktop\新建文件夹\新建文件夹 (2)\SLAVE527\SLAVE-hui\obj/../Libraries/board/clock_config.c:46
        /* PCLK1 = HCLK */
        RCC->CFGR0 |= (uint32_t)RCC_PPRE1_DIV1;
    3bd2:	40021737          	lui	a4,0x40021
    3bd6:	400217b7          	lui	a5,0x40021
    3bda:	4358                	lw	a4,4(a4)
    3bdc:	c3d8                	sw	a4,4(a5)
C:\Users\山东张\Desktop\新建文件夹\新建文件夹 (2)\SLAVE527\SLAVE-hui\obj/../Libraries/board/clock_config.c:49


        RCC->CFGR0 &= (uint32_t)((uint32_t)~(RCC_PLLSRC | RCC_PLLXTPRE |
    3bde:	400217b7          	lui	a5,0x40021
    3be2:	43d4                	lw	a3,4(a5)
    3be4:	400217b7          	lui	a5,0x40021
    3be8:	ffc10737          	lui	a4,0xffc10
    3bec:	177d                	addi	a4,a4,-1
    3bee:	8f75                	and	a4,a4,a3
    3bf0:	c3d8                	sw	a4,4(a5)
C:\Users\山东张\Desktop\新建文件夹\新建文件夹 (2)\SLAVE527\SLAVE-hui\obj/../Libraries/board/clock_config.c:52
                                            RCC_PLLMULL));
        /*  PLL configuration: PLLCLK = HSE * ?  */
        RCC->CFGR0 |= (uint32_t)(RCC_PLLSRC_HSE | RCC_PLLMULL11);
    3bf2:	400217b7          	lui	a5,0x40021
    3bf6:	43d4                	lw	a3,4(a5)
    3bf8:	400217b7          	lui	a5,0x40021
    3bfc:	00250737          	lui	a4,0x250
    3c00:	8f55                	or	a4,a4,a3
    3c02:	c3d8                	sw	a4,4(a5)
C:\Users\山东张\Desktop\新建文件夹\新建文件夹 (2)\SLAVE527\SLAVE-hui\obj/../Libraries/board/clock_config.c:54
        /* Enable PLL */
        RCC->CTLR |= RCC_PLLON;
    3c04:	400217b7          	lui	a5,0x40021
    3c08:	4394                	lw	a3,0(a5)
    3c0a:	400217b7          	lui	a5,0x40021
    3c0e:	01000737          	lui	a4,0x1000
    3c12:	8f55                	or	a4,a4,a3
    3c14:	c398                	sw	a4,0(a5)
C:\Users\山东张\Desktop\新建文件夹\新建文件夹 (2)\SLAVE527\SLAVE-hui\obj/../Libraries/board/clock_config.c:56
        /* Wait till PLL is ready */
        while((RCC->CTLR & RCC_PLLRDY) == 0)
    3c16:	0001                	nop
C:\Users\山东张\Desktop\新建文件夹\新建文件夹 (2)\SLAVE527\SLAVE-hui\obj/../Libraries/board/clock_config.c:56 (discriminator 1)
    3c18:	400217b7          	lui	a5,0x40021
    3c1c:	4398                	lw	a4,0(a5)
    3c1e:	020007b7          	lui	a5,0x2000
    3c22:	8ff9                	and	a5,a5,a4
    3c24:	dbf5                	beqz	a5,3c18 <SetSysClock+0xfa>
C:\Users\山东张\Desktop\新建文件夹\新建文件夹 (2)\SLAVE527\SLAVE-hui\obj/../Libraries/board/clock_config.c:60
        {
        }
        /* Select PLL as system clock source */
        RCC->CFGR0 &= (uint32_t)((uint32_t)~(RCC_SW));
    3c26:	400217b7          	lui	a5,0x40021
    3c2a:	43d8                	lw	a4,4(a5)
    3c2c:	400217b7          	lui	a5,0x40021
    3c30:	9b71                	andi	a4,a4,-4
    3c32:	c3d8                	sw	a4,4(a5)
C:\Users\山东张\Desktop\新建文件夹\新建文件夹 (2)\SLAVE527\SLAVE-hui\obj/../Libraries/board/clock_config.c:61
        RCC->CFGR0 |= (uint32_t)RCC_SW_PLL;
    3c34:	400217b7          	lui	a5,0x40021
    3c38:	43d8                	lw	a4,4(a5)
    3c3a:	400217b7          	lui	a5,0x40021
    3c3e:	00276713          	ori	a4,a4,2
    3c42:	c3d8                	sw	a4,4(a5)
C:\Users\山东张\Desktop\新建文件夹\新建文件夹 (2)\SLAVE527\SLAVE-hui\obj/../Libraries/board/clock_config.c:63
        /* Wait till PLL is used as system clock source */
        while ((RCC->CFGR0 & (uint32_t)RCC_SWS) != (uint32_t)0x08)
    3c44:	0001                	nop
C:\Users\山东张\Desktop\新建文件夹\新建文件夹 (2)\SLAVE527\SLAVE-hui\obj/../Libraries/board/clock_config.c:63 (discriminator 1)
    3c46:	400217b7          	lui	a5,0x40021
    3c4a:	43dc                	lw	a5,4(a5)
    3c4c:	00c7f713          	andi	a4,a5,12
    3c50:	47a1                	li	a5,8
    3c52:	fef71ae3          	bne	a4,a5,3c46 <SetSysClock+0x128>
C:\Users\山东张\Desktop\新建文件夹\新建文件夹 (2)\SLAVE527\SLAVE-hui\obj/../Libraries/board/clock_config.c:74
        /*
         * If HSE fails to start-up, the application will have wrong clock
     * configuration. User can add here some code to deal with this error
         */
    }
}
    3c56:	0001                	nop
    3c58:	4472                	lw	s0,28(sp)
    3c5a:	6105                	addi	sp,sp,32
    3c5c:	8082                	ret

00003c5e <SystemInit>:
SystemInit():
C:\Users\山东张\Desktop\新建文件夹\新建文件夹 (2)\SLAVE527\SLAVE-hui\obj/../Libraries/board/clock_config.c:84
*                  the PLL and update the SystemCoreClock variable.
* Input          : None
* Return         : None
*******************************************************************************************/
void SystemInit (void)
{
    3c5e:	1141                	addi	sp,sp,-16
    3c60:	c606                	sw	ra,12(sp)
    3c62:	c422                	sw	s0,8(sp)
    3c64:	0800                	addi	s0,sp,16
C:\Users\山东张\Desktop\新建文件夹\新建文件夹 (2)\SLAVE527\SLAVE-hui\obj/../Libraries/board/clock_config.c:85
    RCC->CTLR |= (uint32_t)0x00000001;
    3c66:	400217b7          	lui	a5,0x40021
    3c6a:	4398                	lw	a4,0(a5)
    3c6c:	400217b7          	lui	a5,0x40021
    3c70:	00176713          	ori	a4,a4,1
    3c74:	c398                	sw	a4,0(a5)
C:\Users\山东张\Desktop\新建文件夹\新建文件夹 (2)\SLAVE527\SLAVE-hui\obj/../Libraries/board/clock_config.c:86
    RCC->CFGR0 &= (uint32_t)0xF8FF0000;
    3c76:	400217b7          	lui	a5,0x40021
    3c7a:	43d4                	lw	a3,4(a5)
    3c7c:	400217b7          	lui	a5,0x40021
    3c80:	f8ff0737          	lui	a4,0xf8ff0
    3c84:	8f75                	and	a4,a4,a3
    3c86:	c3d8                	sw	a4,4(a5)
C:\Users\山东张\Desktop\新建文件夹\新建文件夹 (2)\SLAVE527\SLAVE-hui\obj/../Libraries/board/clock_config.c:87
    RCC->CTLR &= (uint32_t)0xFEF6FFFF;
    3c88:	400217b7          	lui	a5,0x40021
    3c8c:	4394                	lw	a3,0(a5)
    3c8e:	400217b7          	lui	a5,0x40021
    3c92:	fef70737          	lui	a4,0xfef70
    3c96:	177d                	addi	a4,a4,-1
    3c98:	8f75                	and	a4,a4,a3
    3c9a:	c398                	sw	a4,0(a5)
C:\Users\山东张\Desktop\新建文件夹\新建文件夹 (2)\SLAVE527\SLAVE-hui\obj/../Libraries/board/clock_config.c:88
    RCC->CTLR &= (uint32_t)0xFFFBFFFF;
    3c9c:	400217b7          	lui	a5,0x40021
    3ca0:	4394                	lw	a3,0(a5)
    3ca2:	400217b7          	lui	a5,0x40021
    3ca6:	fffc0737          	lui	a4,0xfffc0
    3caa:	177d                	addi	a4,a4,-1
    3cac:	8f75                	and	a4,a4,a3
    3cae:	c398                	sw	a4,0(a5)
C:\Users\山东张\Desktop\新建文件夹\新建文件夹 (2)\SLAVE527\SLAVE-hui\obj/../Libraries/board/clock_config.c:89
    RCC->CFGR0 &= (uint32_t)0xFF80FFFF;
    3cb0:	400217b7          	lui	a5,0x40021
    3cb4:	43d4                	lw	a3,4(a5)
    3cb6:	400217b7          	lui	a5,0x40021
    3cba:	ff810737          	lui	a4,0xff810
    3cbe:	177d                	addi	a4,a4,-1
    3cc0:	8f75                	and	a4,a4,a3
    3cc2:	c3d8                	sw	a4,4(a5)
C:\Users\山东张\Desktop\新建文件夹\新建文件夹 (2)\SLAVE527\SLAVE-hui\obj/../Libraries/board/clock_config.c:90
    RCC->INTR = 0x009F0000;
    3cc4:	400217b7          	lui	a5,0x40021
    3cc8:	009f0737          	lui	a4,0x9f0
    3ccc:	c798                	sw	a4,8(a5)
C:\Users\山东张\Desktop\新建文件夹\新建文件夹 (2)\SLAVE527\SLAVE-hui\obj/../Libraries/board/clock_config.c:91
    SetSysClock();
    3cce:	e51ff0ef          	jal	ra,3b1e <SetSysClock>
C:\Users\山东张\Desktop\新建文件夹\新建文件夹 (2)\SLAVE527\SLAVE-hui\obj/../Libraries/board/clock_config.c:92
}
    3cd2:	0001                	nop
    3cd4:	40b2                	lw	ra,12(sp)
    3cd6:	4422                	lw	s0,8(sp)
    3cd8:	0141                	addi	sp,sp,16
    3cda:	8082                	ret

00003cdc <button_init>:
button_init():
C:\Users\山东张\Desktop\新建文件夹\新建文件夹 (2)\SLAVE527\SLAVE-hui\obj/../CODE/multi_button.c:21
  * @param  pin_level: read the HAL GPIO of the connet button level.
  * @param  active_level: pressed GPIO level.
  * @retval None
  */
void button_init(struct Button* handle, uint8_t(*pin_level)(), uint8_t active_level)
{
    3cdc:	1101                	addi	sp,sp,-32
    3cde:	ce06                	sw	ra,28(sp)
    3ce0:	cc22                	sw	s0,24(sp)
    3ce2:	1000                	addi	s0,sp,32
    3ce4:	fea42623          	sw	a0,-20(s0)
    3ce8:	feb42423          	sw	a1,-24(s0)
    3cec:	87b2                	mv	a5,a2
    3cee:	fef403a3          	sb	a5,-25(s0)
C:\Users\山东张\Desktop\新建文件夹\新建文件夹 (2)\SLAVE527\SLAVE-hui\obj/../CODE/multi_button.c:22
	memset(handle, 0, sizeof(struct Button));
    3cf2:	02800613          	li	a2,40
    3cf6:	4581                	li	a1,0
    3cf8:	fec42503          	lw	a0,-20(s0)
    3cfc:	c44fc0ef          	jal	ra,140 <memset>
C:\Users\山东张\Desktop\新建文件夹\新建文件夹 (2)\SLAVE527\SLAVE-hui\obj/../CODE/multi_button.c:23
	handle->event = (uint8_t)NONE_PRESS;
    3d00:	fec42783          	lw	a5,-20(s0)
    3d04:	0027d703          	lhu	a4,2(a5) # 40021002 <_eusrstack+0x2001c002>
    3d08:	f0f77713          	andi	a4,a4,-241
    3d0c:	08076713          	ori	a4,a4,128
    3d10:	00e79123          	sh	a4,2(a5)
C:\Users\山东张\Desktop\新建文件夹\新建文件夹 (2)\SLAVE527\SLAVE-hui\obj/../CODE/multi_button.c:24
	handle->hal_button_Level = pin_level;
    3d14:	fec42783          	lw	a5,-20(s0)
    3d18:	fe842703          	lw	a4,-24(s0)
    3d1c:	c3d8                	sw	a4,4(a5)
C:\Users\山东张\Desktop\新建文件夹\新建文件夹 (2)\SLAVE527\SLAVE-hui\obj/../CODE/multi_button.c:25
	handle->button_level = handle->hal_button_Level();
    3d1e:	fec42783          	lw	a5,-20(s0)
    3d22:	43dc                	lw	a5,4(a5)
    3d24:	9782                	jalr	a5
    3d26:	87aa                	mv	a5,a0
    3d28:	8b85                	andi	a5,a5,1
    3d2a:	0ff7f713          	andi	a4,a5,255
    3d2e:	fec42783          	lw	a5,-20(s0)
    3d32:	00f71613          	slli	a2,a4,0xf
    3d36:	0027d683          	lhu	a3,2(a5)
    3d3a:	6721                	lui	a4,0x8
    3d3c:	177d                	addi	a4,a4,-1
    3d3e:	8f75                	and	a4,a4,a3
    3d40:	86ba                	mv	a3,a4
    3d42:	8732                	mv	a4,a2
    3d44:	8f55                	or	a4,a4,a3
    3d46:	00e79123          	sh	a4,2(a5)
C:\Users\山东张\Desktop\新建文件夹\新建文件夹 (2)\SLAVE527\SLAVE-hui\obj/../CODE/multi_button.c:26
	handle->active_level = active_level;
    3d4a:	fe744783          	lbu	a5,-25(s0)
    3d4e:	8b85                	andi	a5,a5,1
    3d50:	0ff7f713          	andi	a4,a5,255
    3d54:	fec42783          	lw	a5,-20(s0)
    3d58:	8b05                	andi	a4,a4,1
    3d5a:	00e71613          	slli	a2,a4,0xe
    3d5e:	0027d683          	lhu	a3,2(a5)
    3d62:	7771                	lui	a4,0xffffc
    3d64:	177d                	addi	a4,a4,-1
    3d66:	8f75                	and	a4,a4,a3
    3d68:	86ba                	mv	a3,a4
    3d6a:	8732                	mv	a4,a2
    3d6c:	8f55                	or	a4,a4,a3
    3d6e:	00e79123          	sh	a4,2(a5)
C:\Users\山东张\Desktop\新建文件夹\新建文件夹 (2)\SLAVE527\SLAVE-hui\obj/../CODE/multi_button.c:27
}
    3d72:	0001                	nop
    3d74:	40f2                	lw	ra,28(sp)
    3d76:	4462                	lw	s0,24(sp)
    3d78:	6105                	addi	sp,sp,32
    3d7a:	8082                	ret

00003d7c <button_attach>:
button_attach():
C:\Users\山东张\Desktop\新建文件夹\新建文件夹 (2)\SLAVE527\SLAVE-hui\obj/../CODE/multi_button.c:37
  * @param  event: trigger event type.
  * @param  cb: callback function.
  * @retval None
  */
void button_attach(struct Button* handle, PressEvent event, BtnCallback cb)
{
    3d7c:	1101                	addi	sp,sp,-32
    3d7e:	ce22                	sw	s0,28(sp)
    3d80:	1000                	addi	s0,sp,32
    3d82:	fea42623          	sw	a0,-20(s0)
    3d86:	feb42423          	sw	a1,-24(s0)
    3d8a:	fec42223          	sw	a2,-28(s0)
C:\Users\山东张\Desktop\新建文件夹\新建文件夹 (2)\SLAVE527\SLAVE-hui\obj/../CODE/multi_button.c:38
	handle->cb[event] = cb;
    3d8e:	fec42703          	lw	a4,-20(s0)
    3d92:	fe842783          	lw	a5,-24(s0)
    3d96:	078a                	slli	a5,a5,0x2
    3d98:	97ba                	add	a5,a5,a4
    3d9a:	fe442703          	lw	a4,-28(s0)
    3d9e:	c798                	sw	a4,8(a5)
C:\Users\山东张\Desktop\新建文件夹\新建文件夹 (2)\SLAVE527\SLAVE-hui\obj/../CODE/multi_button.c:39
}
    3da0:	0001                	nop
    3da2:	4472                	lw	s0,28(sp)
    3da4:	6105                	addi	sp,sp,32
    3da6:	8082                	ret

00003da8 <button_handler>:
button_handler():
C:\Users\山东张\Desktop\新建文件夹\新建文件夹 (2)\SLAVE527\SLAVE-hui\obj/../CODE/multi_button.c:57
  * @brief  Button driver core function, driver state machine.
  * @param  handle: the button handle strcut.
  * @retval None
  */
void button_handler(struct Button* handle)
{
    3da8:	7179                	addi	sp,sp,-48
    3daa:	d606                	sw	ra,44(sp)
    3dac:	d422                	sw	s0,40(sp)
    3dae:	1800                	addi	s0,sp,48
    3db0:	fca42e23          	sw	a0,-36(s0)
C:\Users\山东张\Desktop\新建文件夹\新建文件夹 (2)\SLAVE527\SLAVE-hui\obj/../CODE/multi_button.c:58
	uint8_t read_gpio_level = handle->hal_button_Level();
    3db4:	fdc42783          	lw	a5,-36(s0)
    3db8:	43dc                	lw	a5,4(a5)
    3dba:	9782                	jalr	a5
    3dbc:	87aa                	mv	a5,a0
    3dbe:	fef407a3          	sb	a5,-17(s0)
C:\Users\山东张\Desktop\新建文件夹\新建文件夹 (2)\SLAVE527\SLAVE-hui\obj/../CODE/multi_button.c:61

	//ticks counter working..
	if((handle->state) > 0) handle->ticks++;
    3dc2:	fdc42783          	lw	a5,-36(s0)
    3dc6:	0027d783          	lhu	a5,2(a5)
    3dca:	7007f793          	andi	a5,a5,1792
    3dce:	07c2                	slli	a5,a5,0x10
    3dd0:	83c1                	srli	a5,a5,0x10
    3dd2:	cf89                	beqz	a5,3dec <button_handler+0x44>
C:\Users\山东张\Desktop\新建文件夹\新建文件夹 (2)\SLAVE527\SLAVE-hui\obj/../CODE/multi_button.c:61 (discriminator 1)
    3dd4:	fdc42783          	lw	a5,-36(s0)
    3dd8:	0007d783          	lhu	a5,0(a5)
    3ddc:	0785                	addi	a5,a5,1
    3dde:	01079713          	slli	a4,a5,0x10
    3de2:	8341                	srli	a4,a4,0x10
    3de4:	fdc42783          	lw	a5,-36(s0)
    3de8:	00e79023          	sh	a4,0(a5)
C:\Users\山东张\Desktop\新建文件夹\新建文件夹 (2)\SLAVE527\SLAVE-hui\obj/../CODE/multi_button.c:64

	/*------------button debounce handle---------------*/
	if(read_gpio_level != handle->button_level) { //not equal to prev one
    3dec:	fdc42783          	lw	a5,-36(s0)
    3df0:	439c                	lw	a5,0(a5)
    3df2:	83fd                	srli	a5,a5,0x1f
    3df4:	0ff7f793          	andi	a5,a5,255
    3df8:	873e                	mv	a4,a5
    3dfa:	fef44783          	lbu	a5,-17(s0)
    3dfe:	08e78563          	beq	a5,a4,3e88 <button_handler+0xe0>
C:\Users\山东张\Desktop\新建文件夹\新建文件夹 (2)\SLAVE527\SLAVE-hui\obj/../CODE/multi_button.c:66
		//continue read 3 times same new level change
		if(++(handle->debounce_cnt) >= DEBOUNCE_TICKS) {
    3e02:	fdc42783          	lw	a5,-36(s0)
    3e06:	439c                	lw	a5,0(a5)
    3e08:	83ed                	srli	a5,a5,0x1b
    3e0a:	8b9d                	andi	a5,a5,7
    3e0c:	0ff7f793          	andi	a5,a5,255
    3e10:	0785                	addi	a5,a5,1
    3e12:	8b9d                	andi	a5,a5,7
    3e14:	0ff7f713          	andi	a4,a5,255
    3e18:	fdc42783          	lw	a5,-36(s0)
    3e1c:	8b1d                	andi	a4,a4,7
    3e1e:	00b71613          	slli	a2,a4,0xb
    3e22:	0027d683          	lhu	a3,2(a5)
    3e26:	7771                	lui	a4,0xffffc
    3e28:	7ff70713          	addi	a4,a4,2047 # ffffc7ff <_eusrstack+0xdfff77ff>
    3e2c:	8f75                	and	a4,a4,a3
    3e2e:	86ba                	mv	a3,a4
    3e30:	8732                	mv	a4,a2
    3e32:	8f55                	or	a4,a4,a3
    3e34:	00e79123          	sh	a4,2(a5)
    3e38:	fdc42783          	lw	a5,-36(s0)
    3e3c:	439c                	lw	a5,0(a5)
    3e3e:	83ed                	srli	a5,a5,0x1b
    3e40:	8b9d                	andi	a5,a5,7
    3e42:	0ff7f713          	andi	a4,a5,255
    3e46:	4789                	li	a5,2
    3e48:	04e7fa63          	bgeu	a5,a4,3e9c <button_handler+0xf4>
C:\Users\山东张\Desktop\新建文件夹\新建文件夹 (2)\SLAVE527\SLAVE-hui\obj/../CODE/multi_button.c:67
			handle->button_level = read_gpio_level;
    3e4c:	fef44783          	lbu	a5,-17(s0)
    3e50:	8b85                	andi	a5,a5,1
    3e52:	0ff7f713          	andi	a4,a5,255
    3e56:	fdc42783          	lw	a5,-36(s0)
    3e5a:	00f71613          	slli	a2,a4,0xf
    3e5e:	0027d683          	lhu	a3,2(a5)
    3e62:	6721                	lui	a4,0x8
    3e64:	177d                	addi	a4,a4,-1
    3e66:	8f75                	and	a4,a4,a3
    3e68:	86ba                	mv	a3,a4
    3e6a:	8732                	mv	a4,a2
    3e6c:	8f55                	or	a4,a4,a3
    3e6e:	00e79123          	sh	a4,2(a5)
C:\Users\山东张\Desktop\新建文件夹\新建文件夹 (2)\SLAVE527\SLAVE-hui\obj/../CODE/multi_button.c:68
			handle->debounce_cnt = 0;
    3e72:	fdc42783          	lw	a5,-36(s0)
    3e76:	0027d683          	lhu	a3,2(a5)
    3e7a:	7771                	lui	a4,0xffffc
    3e7c:	7ff70713          	addi	a4,a4,2047 # ffffc7ff <_eusrstack+0xdfff77ff>
    3e80:	8f75                	and	a4,a4,a3
    3e82:	00e79123          	sh	a4,2(a5)
    3e86:	a819                	j	3e9c <button_handler+0xf4>
C:\Users\山东张\Desktop\新建文件夹\新建文件夹 (2)\SLAVE527\SLAVE-hui\obj/../CODE/multi_button.c:71
		}
	} else { //leved not change ,counter reset.
		handle->debounce_cnt = 0;
    3e88:	fdc42783          	lw	a5,-36(s0)
    3e8c:	0027d683          	lhu	a3,2(a5)
    3e90:	7771                	lui	a4,0xffffc
    3e92:	7ff70713          	addi	a4,a4,2047 # ffffc7ff <_eusrstack+0xdfff77ff>
    3e96:	8f75                	and	a4,a4,a3
    3e98:	00e79123          	sh	a4,2(a5)
C:\Users\山东张\Desktop\新建文件夹\新建文件夹 (2)\SLAVE527\SLAVE-hui\obj/../CODE/multi_button.c:75
	}

	/*-----------------State machine-------------------*/
	switch (handle->state) {
    3e9c:	fdc42783          	lw	a5,-36(s0)
    3ea0:	439c                	lw	a5,0(a5)
    3ea2:	83e1                	srli	a5,a5,0x18
    3ea4:	8b9d                	andi	a5,a5,7
    3ea6:	0ff7f793          	andi	a5,a5,255
    3eaa:	4715                	li	a4,5
    3eac:	3af76363          	bltu	a4,a5,4252 <button_handler+0x4aa>
    3eb0:	00279713          	slli	a4,a5,0x2
    3eb4:	6795                	lui	a5,0x5
    3eb6:	5f878793          	addi	a5,a5,1528 # 55f8 <UARTN+0x10>
    3eba:	97ba                	add	a5,a5,a4
    3ebc:	439c                	lw	a5,0(a5)
    3ebe:	8782                	jr	a5
C:\Users\山东张\Desktop\新建文件夹\新建文件夹 (2)\SLAVE527\SLAVE-hui\obj/../CODE/multi_button.c:77
	case 0:
		if(handle->button_level == handle->active_level) {	//start press down
    3ec0:	fdc42783          	lw	a5,-36(s0)
    3ec4:	439c                	lw	a5,0(a5)
    3ec6:	83fd                	srli	a5,a5,0x1f
    3ec8:	0ff7f713          	andi	a4,a5,255
    3ecc:	fdc42783          	lw	a5,-36(s0)
    3ed0:	439c                	lw	a5,0(a5)
    3ed2:	83f9                	srli	a5,a5,0x1e
    3ed4:	8b85                	andi	a5,a5,1
    3ed6:	0ff7f793          	andi	a5,a5,255
    3eda:	04f71c63          	bne	a4,a5,3f32 <button_handler+0x18a>
C:\Users\山东张\Desktop\新建文件夹\新建文件夹 (2)\SLAVE527\SLAVE-hui\obj/../CODE/multi_button.c:78
			handle->event = (uint8_t)PRESS_DOWN;
    3ede:	fdc42783          	lw	a5,-36(s0)
    3ee2:	0027d703          	lhu	a4,2(a5)
    3ee6:	f0f77713          	andi	a4,a4,-241
    3eea:	00e79123          	sh	a4,2(a5)
C:\Users\山东张\Desktop\新建文件夹\新建文件夹 (2)\SLAVE527\SLAVE-hui\obj/../CODE/multi_button.c:79
			EVENT_CB(PRESS_DOWN);
    3eee:	fdc42783          	lw	a5,-36(s0)
    3ef2:	479c                	lw	a5,8(a5)
    3ef4:	c799                	beqz	a5,3f02 <button_handler+0x15a>
C:\Users\山东张\Desktop\新建文件夹\新建文件夹 (2)\SLAVE527\SLAVE-hui\obj/../CODE/multi_button.c:79 (discriminator 1)
    3ef6:	fdc42783          	lw	a5,-36(s0)
    3efa:	479c                	lw	a5,8(a5)
    3efc:	fdc42503          	lw	a0,-36(s0)
    3f00:	9782                	jalr	a5
C:\Users\山东张\Desktop\新建文件夹\新建文件夹 (2)\SLAVE527\SLAVE-hui\obj/../CODE/multi_button.c:80
			handle->ticks = 0;
    3f02:	fdc42783          	lw	a5,-36(s0)
    3f06:	00079023          	sh	zero,0(a5)
C:\Users\山东张\Desktop\新建文件夹\新建文件夹 (2)\SLAVE527\SLAVE-hui\obj/../CODE/multi_button.c:81
			handle->repeat = 1;
    3f0a:	fdc42783          	lw	a5,-36(s0)
    3f0e:	0027d703          	lhu	a4,2(a5)
    3f12:	9b41                	andi	a4,a4,-16
    3f14:	00176713          	ori	a4,a4,1
    3f18:	00e79123          	sh	a4,2(a5)
C:\Users\山东张\Desktop\新建文件夹\新建文件夹 (2)\SLAVE527\SLAVE-hui\obj/../CODE/multi_button.c:82
			handle->state = 1;
    3f1c:	fdc42783          	lw	a5,-36(s0)
    3f20:	0027d703          	lhu	a4,2(a5)
    3f24:	8ff77713          	andi	a4,a4,-1793
    3f28:	10076713          	ori	a4,a4,256
    3f2c:	00e79123          	sh	a4,2(a5)
C:\Users\山东张\Desktop\新建文件夹\新建文件夹 (2)\SLAVE527\SLAVE-hui\obj/../CODE/multi_button.c:86
		} else {
			handle->event = (uint8_t)NONE_PRESS;
		}
		break;
    3f30:	a60d                	j	4252 <button_handler+0x4aa>
C:\Users\山东张\Desktop\新建文件夹\新建文件夹 (2)\SLAVE527\SLAVE-hui\obj/../CODE/multi_button.c:84
			handle->event = (uint8_t)NONE_PRESS;
    3f32:	fdc42783          	lw	a5,-36(s0)
    3f36:	0027d703          	lhu	a4,2(a5)
    3f3a:	f0f77713          	andi	a4,a4,-241
    3f3e:	08076713          	ori	a4,a4,128
    3f42:	00e79123          	sh	a4,2(a5)
C:\Users\山东张\Desktop\新建文件夹\新建文件夹 (2)\SLAVE527\SLAVE-hui\obj/../CODE/multi_button.c:86
		break;
    3f46:	a631                	j	4252 <button_handler+0x4aa>
C:\Users\山东张\Desktop\新建文件夹\新建文件夹 (2)\SLAVE527\SLAVE-hui\obj/../CODE/multi_button.c:89

	case 1:
		if(handle->button_level != handle->active_level) { //released press up
    3f48:	fdc42783          	lw	a5,-36(s0)
    3f4c:	439c                	lw	a5,0(a5)
    3f4e:	83fd                	srli	a5,a5,0x1f
    3f50:	0ff7f713          	andi	a4,a5,255
    3f54:	fdc42783          	lw	a5,-36(s0)
    3f58:	439c                	lw	a5,0(a5)
    3f5a:	83f9                	srli	a5,a5,0x1e
    3f5c:	8b85                	andi	a5,a5,1
    3f5e:	0ff7f793          	andi	a5,a5,255
    3f62:	04f70563          	beq	a4,a5,3fac <button_handler+0x204>
C:\Users\山东张\Desktop\新建文件夹\新建文件夹 (2)\SLAVE527\SLAVE-hui\obj/../CODE/multi_button.c:90
			handle->event = (uint8_t)PRESS_UP;
    3f66:	fdc42783          	lw	a5,-36(s0)
    3f6a:	0027d703          	lhu	a4,2(a5)
    3f6e:	f0f77713          	andi	a4,a4,-241
    3f72:	01076713          	ori	a4,a4,16
    3f76:	00e79123          	sh	a4,2(a5)
C:\Users\山东张\Desktop\新建文件夹\新建文件夹 (2)\SLAVE527\SLAVE-hui\obj/../CODE/multi_button.c:91
			EVENT_CB(PRESS_UP);
    3f7a:	fdc42783          	lw	a5,-36(s0)
    3f7e:	47dc                	lw	a5,12(a5)
    3f80:	c799                	beqz	a5,3f8e <button_handler+0x1e6>
C:\Users\山东张\Desktop\新建文件夹\新建文件夹 (2)\SLAVE527\SLAVE-hui\obj/../CODE/multi_button.c:91 (discriminator 1)
    3f82:	fdc42783          	lw	a5,-36(s0)
    3f86:	47dc                	lw	a5,12(a5)
    3f88:	fdc42503          	lw	a0,-36(s0)
    3f8c:	9782                	jalr	a5
C:\Users\山东张\Desktop\新建文件夹\新建文件夹 (2)\SLAVE527\SLAVE-hui\obj/../CODE/multi_button.c:92
			handle->ticks = 0;
    3f8e:	fdc42783          	lw	a5,-36(s0)
    3f92:	00079023          	sh	zero,0(a5)
C:\Users\山东张\Desktop\新建文件夹\新建文件夹 (2)\SLAVE527\SLAVE-hui\obj/../CODE/multi_button.c:93
			handle->state = 2;
    3f96:	fdc42783          	lw	a5,-36(s0)
    3f9a:	0027d703          	lhu	a4,2(a5)
    3f9e:	8ff77713          	andi	a4,a4,-1793
    3fa2:	20076713          	ori	a4,a4,512
    3fa6:	00e79123          	sh	a4,2(a5)
C:\Users\山东张\Desktop\新建文件夹\新建文件夹 (2)\SLAVE527\SLAVE-hui\obj/../CODE/multi_button.c:100
		} else if(handle->ticks > LONG_TICKS) {
			handle->event = (uint8_t)LONG_PRESS_START;
			EVENT_CB(LONG_PRESS_START);
			handle->state = 5;
		}
		break;
    3faa:	ac69                	j	4244 <button_handler+0x49c>
C:\Users\山东张\Desktop\新建文件夹\新建文件夹 (2)\SLAVE527\SLAVE-hui\obj/../CODE/multi_button.c:95
		} else if(handle->ticks > LONG_TICKS) {
    3fac:	fdc42783          	lw	a5,-36(s0)
    3fb0:	0007d703          	lhu	a4,0(a5)
    3fb4:	0c800793          	li	a5,200
    3fb8:	28e7f663          	bgeu	a5,a4,4244 <button_handler+0x49c>
C:\Users\山东张\Desktop\新建文件夹\新建文件夹 (2)\SLAVE527\SLAVE-hui\obj/../CODE/multi_button.c:96
			handle->event = (uint8_t)LONG_PRESS_START;
    3fbc:	fdc42783          	lw	a5,-36(s0)
    3fc0:	0027d703          	lhu	a4,2(a5)
    3fc4:	f0f77713          	andi	a4,a4,-241
    3fc8:	05076713          	ori	a4,a4,80
    3fcc:	00e79123          	sh	a4,2(a5)
C:\Users\山东张\Desktop\新建文件夹\新建文件夹 (2)\SLAVE527\SLAVE-hui\obj/../CODE/multi_button.c:97
			EVENT_CB(LONG_PRESS_START);
    3fd0:	fdc42783          	lw	a5,-36(s0)
    3fd4:	4fdc                	lw	a5,28(a5)
    3fd6:	c799                	beqz	a5,3fe4 <button_handler+0x23c>
C:\Users\山东张\Desktop\新建文件夹\新建文件夹 (2)\SLAVE527\SLAVE-hui\obj/../CODE/multi_button.c:97 (discriminator 1)
    3fd8:	fdc42783          	lw	a5,-36(s0)
    3fdc:	4fdc                	lw	a5,28(a5)
    3fde:	fdc42503          	lw	a0,-36(s0)
    3fe2:	9782                	jalr	a5
C:\Users\山东张\Desktop\新建文件夹\新建文件夹 (2)\SLAVE527\SLAVE-hui\obj/../CODE/multi_button.c:98
			handle->state = 5;
    3fe4:	fdc42783          	lw	a5,-36(s0)
    3fe8:	0027d703          	lhu	a4,2(a5)
    3fec:	8ff77713          	andi	a4,a4,-1793
    3ff0:	50076713          	ori	a4,a4,1280
    3ff4:	00e79123          	sh	a4,2(a5)
C:\Users\山东张\Desktop\新建文件夹\新建文件夹 (2)\SLAVE527\SLAVE-hui\obj/../CODE/multi_button.c:100
		break;
    3ff8:	a4b1                	j	4244 <button_handler+0x49c>
C:\Users\山东张\Desktop\新建文件夹\新建文件夹 (2)\SLAVE527\SLAVE-hui\obj/../CODE/multi_button.c:103

	case 2:
		if(handle->button_level == handle->active_level) { //press down again
    3ffa:	fdc42783          	lw	a5,-36(s0)
    3ffe:	439c                	lw	a5,0(a5)
    4000:	83fd                	srli	a5,a5,0x1f
    4002:	0ff7f713          	andi	a4,a5,255
    4006:	fdc42783          	lw	a5,-36(s0)
    400a:	439c                	lw	a5,0(a5)
    400c:	83f9                	srli	a5,a5,0x1e
    400e:	8b85                	andi	a5,a5,1
    4010:	0ff7f793          	andi	a5,a5,255
    4014:	08f71463          	bne	a4,a5,409c <button_handler+0x2f4>
C:\Users\山东张\Desktop\新建文件夹\新建文件夹 (2)\SLAVE527\SLAVE-hui\obj/../CODE/multi_button.c:104
			handle->event = (uint8_t)PRESS_DOWN;
    4018:	fdc42783          	lw	a5,-36(s0)
    401c:	0027d703          	lhu	a4,2(a5)
    4020:	f0f77713          	andi	a4,a4,-241
    4024:	00e79123          	sh	a4,2(a5)
C:\Users\山东张\Desktop\新建文件夹\新建文件夹 (2)\SLAVE527\SLAVE-hui\obj/../CODE/multi_button.c:105
			EVENT_CB(PRESS_DOWN);
    4028:	fdc42783          	lw	a5,-36(s0)
    402c:	479c                	lw	a5,8(a5)
    402e:	c799                	beqz	a5,403c <button_handler+0x294>
C:\Users\山东张\Desktop\新建文件夹\新建文件夹 (2)\SLAVE527\SLAVE-hui\obj/../CODE/multi_button.c:105 (discriminator 1)
    4030:	fdc42783          	lw	a5,-36(s0)
    4034:	479c                	lw	a5,8(a5)
    4036:	fdc42503          	lw	a0,-36(s0)
    403a:	9782                	jalr	a5
C:\Users\山东张\Desktop\新建文件夹\新建文件夹 (2)\SLAVE527\SLAVE-hui\obj/../CODE/multi_button.c:106
			handle->repeat++;
    403c:	fdc42783          	lw	a5,-36(s0)
    4040:	439c                	lw	a5,0(a5)
    4042:	83c1                	srli	a5,a5,0x10
    4044:	8bbd                	andi	a5,a5,15
    4046:	0ff7f793          	andi	a5,a5,255
    404a:	0785                	addi	a5,a5,1
    404c:	8bbd                	andi	a5,a5,15
    404e:	0ff7f713          	andi	a4,a5,255
    4052:	fdc42783          	lw	a5,-36(s0)
    4056:	00f77613          	andi	a2,a4,15
    405a:	0027d703          	lhu	a4,2(a5)
    405e:	9b41                	andi	a4,a4,-16
    4060:	86ba                	mv	a3,a4
    4062:	8732                	mv	a4,a2
    4064:	8f55                	or	a4,a4,a3
    4066:	00e79123          	sh	a4,2(a5)
C:\Users\山东张\Desktop\新建文件夹\新建文件夹 (2)\SLAVE527\SLAVE-hui\obj/../CODE/multi_button.c:107
			EVENT_CB(PRESS_REPEAT); // repeat hit
    406a:	fdc42783          	lw	a5,-36(s0)
    406e:	4b9c                	lw	a5,16(a5)
    4070:	c799                	beqz	a5,407e <button_handler+0x2d6>
C:\Users\山东张\Desktop\新建文件夹\新建文件夹 (2)\SLAVE527\SLAVE-hui\obj/../CODE/multi_button.c:107 (discriminator 1)
    4072:	fdc42783          	lw	a5,-36(s0)
    4076:	4b9c                	lw	a5,16(a5)
    4078:	fdc42503          	lw	a0,-36(s0)
    407c:	9782                	jalr	a5
C:\Users\山东张\Desktop\新建文件夹\新建文件夹 (2)\SLAVE527\SLAVE-hui\obj/../CODE/multi_button.c:108
			handle->ticks = 0;
    407e:	fdc42783          	lw	a5,-36(s0)
    4082:	00079023          	sh	zero,0(a5)
C:\Users\山东张\Desktop\新建文件夹\新建文件夹 (2)\SLAVE527\SLAVE-hui\obj/../CODE/multi_button.c:109
			handle->state = 3;
    4086:	fdc42783          	lw	a5,-36(s0)
    408a:	0027d703          	lhu	a4,2(a5)
    408e:	8ff77713          	andi	a4,a4,-1793
    4092:	30076713          	ori	a4,a4,768
    4096:	00e79123          	sh	a4,2(a5)
C:\Users\山东张\Desktop\新建文件夹\新建文件夹 (2)\SLAVE527\SLAVE-hui\obj/../CODE/multi_button.c:120
				handle->event = (uint8_t)DOUBLE_CLICK;
				EVENT_CB(DOUBLE_CLICK); // repeat hit
			}
			handle->state = 0;
		}
		break;
    409a:	a27d                	j	4248 <button_handler+0x4a0>
C:\Users\山东张\Desktop\新建文件夹\新建文件夹 (2)\SLAVE527\SLAVE-hui\obj/../CODE/multi_button.c:110
		} else if(handle->ticks > SHORT_TICKS) { //released timeout
    409c:	fdc42783          	lw	a5,-36(s0)
    40a0:	0007d703          	lhu	a4,0(a5)
    40a4:	03c00793          	li	a5,60
    40a8:	1ae7f063          	bgeu	a5,a4,4248 <button_handler+0x4a0>
C:\Users\山东张\Desktop\新建文件夹\新建文件夹 (2)\SLAVE527\SLAVE-hui\obj/../CODE/multi_button.c:111
			if(handle->repeat == 1) {
    40ac:	fdc42783          	lw	a5,-36(s0)
    40b0:	0027d783          	lhu	a5,2(a5)
    40b4:	8bbd                	andi	a5,a5,15
    40b6:	01079713          	slli	a4,a5,0x10
    40ba:	8341                	srli	a4,a4,0x10
    40bc:	4785                	li	a5,1
    40be:	02f71763          	bne	a4,a5,40ec <button_handler+0x344>
C:\Users\山东张\Desktop\新建文件夹\新建文件夹 (2)\SLAVE527\SLAVE-hui\obj/../CODE/multi_button.c:112
				handle->event = (uint8_t)SINGLE_CLICK;
    40c2:	fdc42783          	lw	a5,-36(s0)
    40c6:	0027d703          	lhu	a4,2(a5)
    40ca:	f0f77713          	andi	a4,a4,-241
    40ce:	03076713          	ori	a4,a4,48
    40d2:	00e79123          	sh	a4,2(a5)
C:\Users\山东张\Desktop\新建文件夹\新建文件夹 (2)\SLAVE527\SLAVE-hui\obj/../CODE/multi_button.c:113
				EVENT_CB(SINGLE_CLICK);
    40d6:	fdc42783          	lw	a5,-36(s0)
    40da:	4bdc                	lw	a5,20(a5)
    40dc:	c7b9                	beqz	a5,412a <button_handler+0x382>
C:\Users\山东张\Desktop\新建文件夹\新建文件夹 (2)\SLAVE527\SLAVE-hui\obj/../CODE/multi_button.c:113 (discriminator 1)
    40de:	fdc42783          	lw	a5,-36(s0)
    40e2:	4bdc                	lw	a5,20(a5)
    40e4:	fdc42503          	lw	a0,-36(s0)
    40e8:	9782                	jalr	a5
    40ea:	a081                	j	412a <button_handler+0x382>
C:\Users\山东张\Desktop\新建文件夹\新建文件夹 (2)\SLAVE527\SLAVE-hui\obj/../CODE/multi_button.c:114
			} else if(handle->repeat == 2) {
    40ec:	fdc42783          	lw	a5,-36(s0)
    40f0:	0027d783          	lhu	a5,2(a5)
    40f4:	8bbd                	andi	a5,a5,15
    40f6:	01079713          	slli	a4,a5,0x10
    40fa:	8341                	srli	a4,a4,0x10
    40fc:	4789                	li	a5,2
    40fe:	02f71663          	bne	a4,a5,412a <button_handler+0x382>
C:\Users\山东张\Desktop\新建文件夹\新建文件夹 (2)\SLAVE527\SLAVE-hui\obj/../CODE/multi_button.c:115
				handle->event = (uint8_t)DOUBLE_CLICK;
    4102:	fdc42783          	lw	a5,-36(s0)
    4106:	0027d703          	lhu	a4,2(a5)
    410a:	f0f77713          	andi	a4,a4,-241
    410e:	04076713          	ori	a4,a4,64
    4112:	00e79123          	sh	a4,2(a5)
C:\Users\山东张\Desktop\新建文件夹\新建文件夹 (2)\SLAVE527\SLAVE-hui\obj/../CODE/multi_button.c:116
				EVENT_CB(DOUBLE_CLICK); // repeat hit
    4116:	fdc42783          	lw	a5,-36(s0)
    411a:	4f9c                	lw	a5,24(a5)
    411c:	c799                	beqz	a5,412a <button_handler+0x382>
C:\Users\山东张\Desktop\新建文件夹\新建文件夹 (2)\SLAVE527\SLAVE-hui\obj/../CODE/multi_button.c:116 (discriminator 1)
    411e:	fdc42783          	lw	a5,-36(s0)
    4122:	4f9c                	lw	a5,24(a5)
    4124:	fdc42503          	lw	a0,-36(s0)
    4128:	9782                	jalr	a5
C:\Users\山东张\Desktop\新建文件夹\新建文件夹 (2)\SLAVE527\SLAVE-hui\obj/../CODE/multi_button.c:118
			handle->state = 0;
    412a:	fdc42783          	lw	a5,-36(s0)
    412e:	0027d703          	lhu	a4,2(a5)
    4132:	8ff77713          	andi	a4,a4,-1793
    4136:	00e79123          	sh	a4,2(a5)
C:\Users\山东张\Desktop\新建文件夹\新建文件夹 (2)\SLAVE527\SLAVE-hui\obj/../CODE/multi_button.c:120
		break;
    413a:	a239                	j	4248 <button_handler+0x4a0>
C:\Users\山东张\Desktop\新建文件夹\新建文件夹 (2)\SLAVE527\SLAVE-hui\obj/../CODE/multi_button.c:123

	case 3:
		if(handle->button_level != handle->active_level) { //released press up
    413c:	fdc42783          	lw	a5,-36(s0)
    4140:	439c                	lw	a5,0(a5)
    4142:	83fd                	srli	a5,a5,0x1f
    4144:	0ff7f713          	andi	a4,a5,255
    4148:	fdc42783          	lw	a5,-36(s0)
    414c:	439c                	lw	a5,0(a5)
    414e:	83f9                	srli	a5,a5,0x1e
    4150:	8b85                	andi	a5,a5,1
    4152:	0ff7f793          	andi	a5,a5,255
    4156:	0ef70b63          	beq	a4,a5,424c <button_handler+0x4a4>
C:\Users\山东张\Desktop\新建文件夹\新建文件夹 (2)\SLAVE527\SLAVE-hui\obj/../CODE/multi_button.c:124
			handle->event = (uint8_t)PRESS_UP;
    415a:	fdc42783          	lw	a5,-36(s0)
    415e:	0027d703          	lhu	a4,2(a5)
    4162:	f0f77713          	andi	a4,a4,-241
    4166:	01076713          	ori	a4,a4,16
    416a:	00e79123          	sh	a4,2(a5)
C:\Users\山东张\Desktop\新建文件夹\新建文件夹 (2)\SLAVE527\SLAVE-hui\obj/../CODE/multi_button.c:125
			EVENT_CB(PRESS_UP);
    416e:	fdc42783          	lw	a5,-36(s0)
    4172:	47dc                	lw	a5,12(a5)
    4174:	c799                	beqz	a5,4182 <button_handler+0x3da>
C:\Users\山东张\Desktop\新建文件夹\新建文件夹 (2)\SLAVE527\SLAVE-hui\obj/../CODE/multi_button.c:125 (discriminator 1)
    4176:	fdc42783          	lw	a5,-36(s0)
    417a:	47dc                	lw	a5,12(a5)
    417c:	fdc42503          	lw	a0,-36(s0)
    4180:	9782                	jalr	a5
C:\Users\山东张\Desktop\新建文件夹\新建文件夹 (2)\SLAVE527\SLAVE-hui\obj/../CODE/multi_button.c:126
			if(handle->ticks < SHORT_TICKS) {
    4182:	fdc42783          	lw	a5,-36(s0)
    4186:	0007d703          	lhu	a4,0(a5)
    418a:	03b00793          	li	a5,59
    418e:	02e7e163          	bltu	a5,a4,41b0 <button_handler+0x408>
C:\Users\山东张\Desktop\新建文件夹\新建文件夹 (2)\SLAVE527\SLAVE-hui\obj/../CODE/multi_button.c:127
				handle->ticks = 0;
    4192:	fdc42783          	lw	a5,-36(s0)
    4196:	00079023          	sh	zero,0(a5)
C:\Users\山东张\Desktop\新建文件夹\新建文件夹 (2)\SLAVE527\SLAVE-hui\obj/../CODE/multi_button.c:128
				handle->state = 2; //repeat press
    419a:	fdc42783          	lw	a5,-36(s0)
    419e:	0027d703          	lhu	a4,2(a5)
    41a2:	8ff77713          	andi	a4,a4,-1793
    41a6:	20076713          	ori	a4,a4,512
    41aa:	00e79123          	sh	a4,2(a5)
C:\Users\山东张\Desktop\新建文件夹\新建文件夹 (2)\SLAVE527\SLAVE-hui\obj/../CODE/multi_button.c:133
			} else {
				handle->state = 0;
			}
		}
		break;
    41ae:	a879                	j	424c <button_handler+0x4a4>
C:\Users\山东张\Desktop\新建文件夹\新建文件夹 (2)\SLAVE527\SLAVE-hui\obj/../CODE/multi_button.c:130
				handle->state = 0;
    41b0:	fdc42783          	lw	a5,-36(s0)
    41b4:	0027d703          	lhu	a4,2(a5)
    41b8:	8ff77713          	andi	a4,a4,-1793
    41bc:	00e79123          	sh	a4,2(a5)
C:\Users\山东张\Desktop\新建文件夹\新建文件夹 (2)\SLAVE527\SLAVE-hui\obj/../CODE/multi_button.c:133
		break;
    41c0:	a071                	j	424c <button_handler+0x4a4>
C:\Users\山东张\Desktop\新建文件夹\新建文件夹 (2)\SLAVE527\SLAVE-hui\obj/../CODE/multi_button.c:136

	case 5:
		if(handle->button_level == handle->active_level) {
    41c2:	fdc42783          	lw	a5,-36(s0)
    41c6:	439c                	lw	a5,0(a5)
    41c8:	83fd                	srli	a5,a5,0x1f
    41ca:	0ff7f713          	andi	a4,a5,255
    41ce:	fdc42783          	lw	a5,-36(s0)
    41d2:	439c                	lw	a5,0(a5)
    41d4:	83f9                	srli	a5,a5,0x1e
    41d6:	8b85                	andi	a5,a5,1
    41d8:	0ff7f793          	andi	a5,a5,255
    41dc:	02f71763          	bne	a4,a5,420a <button_handler+0x462>
C:\Users\山东张\Desktop\新建文件夹\新建文件夹 (2)\SLAVE527\SLAVE-hui\obj/../CODE/multi_button.c:138
			//continue hold trigger
			handle->event = (uint8_t)LONG_PRESS_HOLD;
    41e0:	fdc42783          	lw	a5,-36(s0)
    41e4:	0027d703          	lhu	a4,2(a5)
    41e8:	f0f77713          	andi	a4,a4,-241
    41ec:	06076713          	ori	a4,a4,96
    41f0:	00e79123          	sh	a4,2(a5)
C:\Users\山东张\Desktop\新建文件夹\新建文件夹 (2)\SLAVE527\SLAVE-hui\obj/../CODE/multi_button.c:139
			EVENT_CB(LONG_PRESS_HOLD);
    41f4:	fdc42783          	lw	a5,-36(s0)
    41f8:	539c                	lw	a5,32(a5)
    41fa:	cbb9                	beqz	a5,4250 <button_handler+0x4a8>
C:\Users\山东张\Desktop\新建文件夹\新建文件夹 (2)\SLAVE527\SLAVE-hui\obj/../CODE/multi_button.c:139 (discriminator 1)
    41fc:	fdc42783          	lw	a5,-36(s0)
    4200:	539c                	lw	a5,32(a5)
    4202:	fdc42503          	lw	a0,-36(s0)
    4206:	9782                	jalr	a5
C:\Users\山东张\Desktop\新建文件夹\新建文件夹 (2)\SLAVE527\SLAVE-hui\obj/../CODE/multi_button.c:146 (discriminator 1)
		} else { //releasd
			handle->event = (uint8_t)PRESS_UP;
			EVENT_CB(PRESS_UP);
			handle->state = 0; //reset
		}
		break;
    4208:	a0a1                	j	4250 <button_handler+0x4a8>
C:\Users\山东张\Desktop\新建文件夹\新建文件夹 (2)\SLAVE527\SLAVE-hui\obj/../CODE/multi_button.c:142
			handle->event = (uint8_t)PRESS_UP;
    420a:	fdc42783          	lw	a5,-36(s0)
    420e:	0027d703          	lhu	a4,2(a5)
    4212:	f0f77713          	andi	a4,a4,-241
    4216:	01076713          	ori	a4,a4,16
    421a:	00e79123          	sh	a4,2(a5)
C:\Users\山东张\Desktop\新建文件夹\新建文件夹 (2)\SLAVE527\SLAVE-hui\obj/../CODE/multi_button.c:143
			EVENT_CB(PRESS_UP);
    421e:	fdc42783          	lw	a5,-36(s0)
    4222:	47dc                	lw	a5,12(a5)
    4224:	c799                	beqz	a5,4232 <button_handler+0x48a>
C:\Users\山东张\Desktop\新建文件夹\新建文件夹 (2)\SLAVE527\SLAVE-hui\obj/../CODE/multi_button.c:143 (discriminator 1)
    4226:	fdc42783          	lw	a5,-36(s0)
    422a:	47dc                	lw	a5,12(a5)
    422c:	fdc42503          	lw	a0,-36(s0)
    4230:	9782                	jalr	a5
C:\Users\山东张\Desktop\新建文件夹\新建文件夹 (2)\SLAVE527\SLAVE-hui\obj/../CODE/multi_button.c:144
			handle->state = 0; //reset
    4232:	fdc42783          	lw	a5,-36(s0)
    4236:	0027d703          	lhu	a4,2(a5)
    423a:	8ff77713          	andi	a4,a4,-1793
    423e:	00e79123          	sh	a4,2(a5)
C:\Users\山东张\Desktop\新建文件夹\新建文件夹 (2)\SLAVE527\SLAVE-hui\obj/../CODE/multi_button.c:146
		break;
    4242:	a039                	j	4250 <button_handler+0x4a8>
C:\Users\山东张\Desktop\新建文件夹\新建文件夹 (2)\SLAVE527\SLAVE-hui\obj/../CODE/multi_button.c:100
		break;
    4244:	0001                	nop
    4246:	a031                	j	4252 <button_handler+0x4aa>
C:\Users\山东张\Desktop\新建文件夹\新建文件夹 (2)\SLAVE527\SLAVE-hui\obj/../CODE/multi_button.c:120
		break;
    4248:	0001                	nop
    424a:	a021                	j	4252 <button_handler+0x4aa>
C:\Users\山东张\Desktop\新建文件夹\新建文件夹 (2)\SLAVE527\SLAVE-hui\obj/../CODE/multi_button.c:133
		break;
    424c:	0001                	nop
    424e:	a011                	j	4252 <button_handler+0x4aa>
C:\Users\山东张\Desktop\新建文件夹\新建文件夹 (2)\SLAVE527\SLAVE-hui\obj/../CODE/multi_button.c:146
		break;
    4250:	0001                	nop
C:\Users\山东张\Desktop\新建文件夹\新建文件夹 (2)\SLAVE527\SLAVE-hui\obj/../CODE/multi_button.c:148
	}
}
    4252:	0001                	nop
    4254:	50b2                	lw	ra,44(sp)
    4256:	5422                	lw	s0,40(sp)
    4258:	6145                	addi	sp,sp,48
    425a:	8082                	ret

0000425c <button_start>:
button_start():
C:\Users\山东张\Desktop\新建文件夹\新建文件夹 (2)\SLAVE527\SLAVE-hui\obj/../CODE/multi_button.c:156
  * @brief  Start the button work, add the handle into work list.
  * @param  handle: target handle strcut.
  * @retval 0: succeed. -1: already exist.
  */
int button_start(struct Button* handle)
{
    425c:	7179                	addi	sp,sp,-48
    425e:	d622                	sw	s0,44(sp)
    4260:	1800                	addi	s0,sp,48
    4262:	fca42e23          	sw	a0,-36(s0)
C:\Users\山东张\Desktop\新建文件夹\新建文件夹 (2)\SLAVE527\SLAVE-hui\obj/../CODE/multi_button.c:157
	struct Button* target = head_handle;
    4266:	8401a783          	lw	a5,-1984(gp) # 200000f8 <head_handle>
    426a:	fef42623          	sw	a5,-20(s0)
C:\Users\山东张\Desktop\新建文件夹\新建文件夹 (2)\SLAVE527\SLAVE-hui\obj/../CODE/multi_button.c:158
	while(target) {
    426e:	a831                	j	428a <button_start+0x2e>
C:\Users\山东张\Desktop\新建文件夹\新建文件夹 (2)\SLAVE527\SLAVE-hui\obj/../CODE/multi_button.c:159
		if(target == handle) return -1;	//already exist.
    4270:	fec42703          	lw	a4,-20(s0)
    4274:	fdc42783          	lw	a5,-36(s0)
    4278:	00f71463          	bne	a4,a5,4280 <button_start+0x24>
C:\Users\山东张\Desktop\新建文件夹\新建文件夹 (2)\SLAVE527\SLAVE-hui\obj/../CODE/multi_button.c:159 (discriminator 1)
    427c:	57fd                	li	a5,-1
    427e:	a01d                	j	42a4 <button_start+0x48>
C:\Users\山东张\Desktop\新建文件夹\新建文件夹 (2)\SLAVE527\SLAVE-hui\obj/../CODE/multi_button.c:160
		target = target->next;
    4280:	fec42783          	lw	a5,-20(s0)
    4284:	53dc                	lw	a5,36(a5)
    4286:	fef42623          	sw	a5,-20(s0)
C:\Users\山东张\Desktop\新建文件夹\新建文件夹 (2)\SLAVE527\SLAVE-hui\obj/../CODE/multi_button.c:158
	while(target) {
    428a:	fec42783          	lw	a5,-20(s0)
    428e:	f3ed                	bnez	a5,4270 <button_start+0x14>
C:\Users\山东张\Desktop\新建文件夹\新建文件夹 (2)\SLAVE527\SLAVE-hui\obj/../CODE/multi_button.c:162
	}
	handle->next = head_handle;
    4290:	8401a703          	lw	a4,-1984(gp) # 200000f8 <head_handle>
    4294:	fdc42783          	lw	a5,-36(s0)
    4298:	d3d8                	sw	a4,36(a5)
C:\Users\山东张\Desktop\新建文件夹\新建文件夹 (2)\SLAVE527\SLAVE-hui\obj/../CODE/multi_button.c:163
	head_handle = handle;
    429a:	fdc42703          	lw	a4,-36(s0)
    429e:	84e1a023          	sw	a4,-1984(gp) # 200000f8 <head_handle>
C:\Users\山东张\Desktop\新建文件夹\新建文件夹 (2)\SLAVE527\SLAVE-hui\obj/../CODE/multi_button.c:164
	return 0;
    42a2:	4781                	li	a5,0
C:\Users\山东张\Desktop\新建文件夹\新建文件夹 (2)\SLAVE527\SLAVE-hui\obj/../CODE/multi_button.c:165
}
    42a4:	853e                	mv	a0,a5
    42a6:	5432                	lw	s0,44(sp)
    42a8:	6145                	addi	sp,sp,48
    42aa:	8082                	ret

000042ac <button_ticks>:
button_ticks():
C:\Users\山东张\Desktop\新建文件夹\新建文件夹 (2)\SLAVE527\SLAVE-hui\obj/../CODE/multi_button.c:191
  * @brief  background ticks, timer repeat invoking interval 5ms.
  * @param  None.
  * @retval None
  */
void button_ticks()
{
    42ac:	1101                	addi	sp,sp,-32
    42ae:	ce06                	sw	ra,28(sp)
    42b0:	cc22                	sw	s0,24(sp)
    42b2:	1000                	addi	s0,sp,32
C:\Users\山东张\Desktop\新建文件夹\新建文件夹 (2)\SLAVE527\SLAVE-hui\obj/../CODE/multi_button.c:193
	struct Button* target;
	for(target=head_handle; target; target=target->next) {
    42b4:	8401a783          	lw	a5,-1984(gp) # 200000f8 <head_handle>
    42b8:	fef42623          	sw	a5,-20(s0)
    42bc:	a811                	j	42d0 <button_ticks+0x24>
C:\Users\山东张\Desktop\新建文件夹\新建文件夹 (2)\SLAVE527\SLAVE-hui\obj/../CODE/multi_button.c:194 (discriminator 3)
		button_handler(target);
    42be:	fec42503          	lw	a0,-20(s0)
    42c2:	ae7ff0ef          	jal	ra,3da8 <button_handler>
C:\Users\山东张\Desktop\新建文件夹\新建文件夹 (2)\SLAVE527\SLAVE-hui\obj/../CODE/multi_button.c:193 (discriminator 3)
	for(target=head_handle; target; target=target->next) {
    42c6:	fec42783          	lw	a5,-20(s0)
    42ca:	53dc                	lw	a5,36(a5)
    42cc:	fef42623          	sw	a5,-20(s0)
C:\Users\山东张\Desktop\新建文件夹\新建文件夹 (2)\SLAVE527\SLAVE-hui\obj/../CODE/multi_button.c:193 (discriminator 1)
    42d0:	fec42783          	lw	a5,-20(s0)
    42d4:	f7ed                	bnez	a5,42be <button_ticks+0x12>
C:\Users\山东张\Desktop\新建文件夹\新建文件夹 (2)\SLAVE527\SLAVE-hui\obj/../CODE/multi_button.c:196
	}
}
    42d6:	0001                	nop
    42d8:	40f2                	lw	ra,28(sp)
    42da:	4462                	lw	s0,24(sp)
    42dc:	6105                	addi	sp,sp,32
    42de:	8082                	ret

000042e0 <__assert_func>:
__assert_func():
    42e0:	80c18793          	addi	a5,gp,-2036 # 200000c4 <_impure_ptr>
    42e4:	439c                	lw	a5,0(a5)
    42e6:	1141                	addi	sp,sp,-16
    42e8:	8832                	mv	a6,a2
    42ea:	c606                	sw	ra,12(sp)
    42ec:	88aa                	mv	a7,a0
    42ee:	872e                	mv	a4,a1
    42f0:	47c8                	lw	a0,12(a5)
    42f2:	8636                	mv	a2,a3
    42f4:	00001797          	auipc	a5,0x1
    42f8:	31c78793          	addi	a5,a5,796 # 5610 <UARTN+0x28>
    42fc:	00081763          	bnez	a6,430a <__assert_func+0x2a>
    4300:	00001797          	auipc	a5,0x1
    4304:	31c78793          	addi	a5,a5,796 # 561c <UARTN+0x34>
    4308:	883e                	mv	a6,a5
    430a:	86c6                	mv	a3,a7
    430c:	00001597          	auipc	a1,0x1
    4310:	31458593          	addi	a1,a1,788 # 5620 <UARTN+0x38>
    4314:	2019                	jal	431a <fiprintf>
    4316:	0af000ef          	jal	ra,4bc4 <abort>

0000431a <fiprintf>:
fprintf():
    431a:	7139                	addi	sp,sp,-64
    431c:	d432                	sw	a2,40(sp)
    431e:	d636                	sw	a3,44(sp)
    4320:	da3e                	sw	a5,52(sp)
    4322:	d83a                	sw	a4,48(sp)
    4324:	dc42                	sw	a6,56(sp)
    4326:	de46                	sw	a7,60(sp)
    4328:	80c18793          	addi	a5,gp,-2036 # 200000c4 <_impure_ptr>
    432c:	862e                	mv	a2,a1
    432e:	85aa                	mv	a1,a0
    4330:	4388                	lw	a0,0(a5)
    4332:	1034                	addi	a3,sp,40
    4334:	ce06                	sw	ra,28(sp)
    4336:	c636                	sw	a3,12(sp)
    4338:	288d                	jal	43aa <_vfiprintf_r>
    433a:	40f2                	lw	ra,28(sp)
    433c:	6121                	addi	sp,sp,64
    433e:	8082                	ret

00004340 <__sfputc_r>:
__sfputc_r():
    4340:	461c                	lw	a5,8(a2)
    4342:	17fd                	addi	a5,a5,-1
    4344:	c61c                	sw	a5,8(a2)
    4346:	0007d963          	bgez	a5,4358 <__sfputc_r+0x18>
    434a:	4e18                	lw	a4,24(a2)
    434c:	00e7c563          	blt	a5,a4,4356 <__sfputc_r+0x16>
    4350:	47a9                	li	a5,10
    4352:	00f59363          	bne	a1,a5,4358 <__sfputc_r+0x18>
    4356:	a54d                	j	49f8 <__swbuf_r>
    4358:	421c                	lw	a5,0(a2)
    435a:	852e                	mv	a0,a1
    435c:	00178713          	addi	a4,a5,1
    4360:	c218                	sw	a4,0(a2)
    4362:	00b78023          	sb	a1,0(a5)
    4366:	8082                	ret

00004368 <__sfputs_r>:
__sfputs_r():
    4368:	1101                	addi	sp,sp,-32
    436a:	cc22                	sw	s0,24(sp)
    436c:	ca26                	sw	s1,20(sp)
    436e:	c84a                	sw	s2,16(sp)
    4370:	c64e                	sw	s3,12(sp)
    4372:	c452                	sw	s4,8(sp)
    4374:	ce06                	sw	ra,28(sp)
    4376:	892a                	mv	s2,a0
    4378:	89ae                	mv	s3,a1
    437a:	8432                	mv	s0,a2
    437c:	00d604b3          	add	s1,a2,a3
    4380:	5a7d                	li	s4,-1
    4382:	00941463          	bne	s0,s1,438a <__sfputs_r+0x22>
    4386:	4501                	li	a0,0
    4388:	a809                	j	439a <__sfputs_r+0x32>
    438a:	00044583          	lbu	a1,0(s0)
    438e:	864e                	mv	a2,s3
    4390:	854a                	mv	a0,s2
    4392:	377d                	jal	4340 <__sfputc_r>
    4394:	0405                	addi	s0,s0,1
    4396:	ff4516e3          	bne	a0,s4,4382 <__sfputs_r+0x1a>
    439a:	40f2                	lw	ra,28(sp)
    439c:	4462                	lw	s0,24(sp)
    439e:	44d2                	lw	s1,20(sp)
    43a0:	4942                	lw	s2,16(sp)
    43a2:	49b2                	lw	s3,12(sp)
    43a4:	4a22                	lw	s4,8(sp)
    43a6:	6105                	addi	sp,sp,32
    43a8:	8082                	ret

000043aa <_vfiprintf_r>:
_vfiprintf_r():
    43aa:	7135                	addi	sp,sp,-160
    43ac:	cd22                	sw	s0,152(sp)
    43ae:	cb26                	sw	s1,148(sp)
    43b0:	c94a                	sw	s2,144(sp)
    43b2:	c74e                	sw	s3,140(sp)
    43b4:	cf06                	sw	ra,156(sp)
    43b6:	c552                	sw	s4,136(sp)
    43b8:	c356                	sw	s5,132(sp)
    43ba:	c15a                	sw	s6,128(sp)
    43bc:	dede                	sw	s7,124(sp)
    43be:	dce2                	sw	s8,120(sp)
    43c0:	dae6                	sw	s9,116(sp)
    43c2:	89aa                	mv	s3,a0
    43c4:	84ae                	mv	s1,a1
    43c6:	8932                	mv	s2,a2
    43c8:	8436                	mv	s0,a3
    43ca:	c509                	beqz	a0,43d4 <_vfiprintf_r+0x2a>
    43cc:	4d1c                	lw	a5,24(a0)
    43ce:	e399                	bnez	a5,43d4 <_vfiprintf_r+0x2a>
    43d0:	25f000ef          	jal	ra,4e2e <__sinit>
    43d4:	00001797          	auipc	a5,0x1
    43d8:	2d878793          	addi	a5,a5,728 # 56ac <__sf_fake_stdin>
    43dc:	0cf49c63          	bne	s1,a5,44b4 <_vfiprintf_r+0x10a>
    43e0:	0049a483          	lw	s1,4(s3)
    43e4:	00c4d783          	lhu	a5,12(s1)
    43e8:	8ba1                	andi	a5,a5,8
    43ea:	c7fd                	beqz	a5,44d8 <_vfiprintf_r+0x12e>
    43ec:	489c                	lw	a5,16(s1)
    43ee:	c7ed                	beqz	a5,44d8 <_vfiprintf_r+0x12e>
    43f0:	02000793          	li	a5,32
    43f4:	02f104a3          	sb	a5,41(sp)
    43f8:	03000793          	li	a5,48
    43fc:	d202                	sw	zero,36(sp)
    43fe:	02f10523          	sb	a5,42(sp)
    4402:	c622                	sw	s0,12(sp)
    4404:	02500b93          	li	s7,37
    4408:	00001a97          	auipc	s5,0x1
    440c:	248a8a93          	addi	s5,s5,584 # 5650 <UARTN+0x68>
    4410:	4c05                	li	s8,1
    4412:	4b29                	li	s6,10
    4414:	844a                	mv	s0,s2
    4416:	00044783          	lbu	a5,0(s0)
    441a:	c399                	beqz	a5,4420 <_vfiprintf_r+0x76>
    441c:	0f779063          	bne	a5,s7,44fc <_vfiprintf_r+0x152>
    4420:	41240cb3          	sub	s9,s0,s2
    4424:	000c8d63          	beqz	s9,443e <_vfiprintf_r+0x94>
    4428:	86e6                	mv	a3,s9
    442a:	864a                	mv	a2,s2
    442c:	85a6                	mv	a1,s1
    442e:	854e                	mv	a0,s3
    4430:	3f25                	jal	4368 <__sfputs_r>
    4432:	57fd                	li	a5,-1
    4434:	1ef50863          	beq	a0,a5,4624 <_vfiprintf_r+0x27a>
    4438:	5692                	lw	a3,36(sp)
    443a:	96e6                	add	a3,a3,s9
    443c:	d236                	sw	a3,36(sp)
    443e:	00044783          	lbu	a5,0(s0)
    4442:	1e078163          	beqz	a5,4624 <_vfiprintf_r+0x27a>
    4446:	57fd                	li	a5,-1
    4448:	00140913          	addi	s2,s0,1
    444c:	c802                	sw	zero,16(sp)
    444e:	ce02                	sw	zero,28(sp)
    4450:	ca3e                	sw	a5,20(sp)
    4452:	cc02                	sw	zero,24(sp)
    4454:	040109a3          	sb	zero,83(sp)
    4458:	d482                	sw	zero,104(sp)
    445a:	00094583          	lbu	a1,0(s2)
    445e:	4615                	li	a2,5
    4460:	8556                	mv	a0,s5
    4462:	437000ef          	jal	ra,5098 <memchr>
    4466:	00190413          	addi	s0,s2,1
    446a:	47c2                	lw	a5,16(sp)
    446c:	e951                	bnez	a0,4500 <_vfiprintf_r+0x156>
    446e:	0107f713          	andi	a4,a5,16
    4472:	c709                	beqz	a4,447c <_vfiprintf_r+0xd2>
    4474:	02000713          	li	a4,32
    4478:	04e109a3          	sb	a4,83(sp)
    447c:	0087f713          	andi	a4,a5,8
    4480:	c709                	beqz	a4,448a <_vfiprintf_r+0xe0>
    4482:	02b00713          	li	a4,43
    4486:	04e109a3          	sb	a4,83(sp)
    448a:	00094683          	lbu	a3,0(s2)
    448e:	02a00713          	li	a4,42
    4492:	06e68f63          	beq	a3,a4,4510 <_vfiprintf_r+0x166>
    4496:	47f2                	lw	a5,28(sp)
    4498:	844a                	mv	s0,s2
    449a:	4681                	li	a3,0
    449c:	4625                	li	a2,9
    449e:	00044703          	lbu	a4,0(s0)
    44a2:	00140593          	addi	a1,s0,1
    44a6:	fd070713          	addi	a4,a4,-48
    44aa:	0ae67863          	bgeu	a2,a4,455a <_vfiprintf_r+0x1b0>
    44ae:	caad                	beqz	a3,4520 <_vfiprintf_r+0x176>
    44b0:	ce3e                	sw	a5,28(sp)
    44b2:	a0bd                	j	4520 <_vfiprintf_r+0x176>
    44b4:	00001797          	auipc	a5,0x1
    44b8:	21878793          	addi	a5,a5,536 # 56cc <__sf_fake_stdout>
    44bc:	00f49563          	bne	s1,a5,44c6 <_vfiprintf_r+0x11c>
    44c0:	0089a483          	lw	s1,8(s3)
    44c4:	b705                	j	43e4 <_vfiprintf_r+0x3a>
    44c6:	00001797          	auipc	a5,0x1
    44ca:	1c678793          	addi	a5,a5,454 # 568c <__sf_fake_stderr>
    44ce:	f0f49be3          	bne	s1,a5,43e4 <_vfiprintf_r+0x3a>
    44d2:	00c9a483          	lw	s1,12(s3)
    44d6:	b739                	j	43e4 <_vfiprintf_r+0x3a>
    44d8:	85a6                	mv	a1,s1
    44da:	854e                	mv	a0,s3
    44dc:	2bf1                	jal	4ab8 <__swsetup_r>
    44de:	d909                	beqz	a0,43f0 <_vfiprintf_r+0x46>
    44e0:	557d                	li	a0,-1
    44e2:	40fa                	lw	ra,156(sp)
    44e4:	446a                	lw	s0,152(sp)
    44e6:	44da                	lw	s1,148(sp)
    44e8:	494a                	lw	s2,144(sp)
    44ea:	49ba                	lw	s3,140(sp)
    44ec:	4a2a                	lw	s4,136(sp)
    44ee:	4a9a                	lw	s5,132(sp)
    44f0:	4b0a                	lw	s6,128(sp)
    44f2:	5bf6                	lw	s7,124(sp)
    44f4:	5c66                	lw	s8,120(sp)
    44f6:	5cd6                	lw	s9,116(sp)
    44f8:	610d                	addi	sp,sp,160
    44fa:	8082                	ret
    44fc:	0405                	addi	s0,s0,1
    44fe:	bf21                	j	4416 <_vfiprintf_r+0x6c>
    4500:	41550533          	sub	a0,a0,s5
    4504:	00ac1533          	sll	a0,s8,a0
    4508:	8fc9                	or	a5,a5,a0
    450a:	c83e                	sw	a5,16(sp)
    450c:	8922                	mv	s2,s0
    450e:	b7b1                	j	445a <_vfiprintf_r+0xb0>
    4510:	4732                	lw	a4,12(sp)
    4512:	00470693          	addi	a3,a4,4
    4516:	4318                	lw	a4,0(a4)
    4518:	c636                	sw	a3,12(sp)
    451a:	02074963          	bltz	a4,454c <_vfiprintf_r+0x1a2>
    451e:	ce3a                	sw	a4,28(sp)
    4520:	00044703          	lbu	a4,0(s0)
    4524:	02e00793          	li	a5,46
    4528:	04f71f63          	bne	a4,a5,4586 <_vfiprintf_r+0x1dc>
    452c:	00144703          	lbu	a4,1(s0)
    4530:	02a00793          	li	a5,42
    4534:	02f71b63          	bne	a4,a5,456a <_vfiprintf_r+0x1c0>
    4538:	47b2                	lw	a5,12(sp)
    453a:	0409                	addi	s0,s0,2
    453c:	00478713          	addi	a4,a5,4
    4540:	439c                	lw	a5,0(a5)
    4542:	c63a                	sw	a4,12(sp)
    4544:	0207c163          	bltz	a5,4566 <_vfiprintf_r+0x1bc>
    4548:	ca3e                	sw	a5,20(sp)
    454a:	a835                	j	4586 <_vfiprintf_r+0x1dc>
    454c:	40e00733          	neg	a4,a4
    4550:	0027e793          	ori	a5,a5,2
    4554:	ce3a                	sw	a4,28(sp)
    4556:	c83e                	sw	a5,16(sp)
    4558:	b7e1                	j	4520 <_vfiprintf_r+0x176>
    455a:	036787b3          	mul	a5,a5,s6
    455e:	4685                	li	a3,1
    4560:	842e                	mv	s0,a1
    4562:	97ba                	add	a5,a5,a4
    4564:	bf2d                	j	449e <_vfiprintf_r+0xf4>
    4566:	57fd                	li	a5,-1
    4568:	b7c5                	j	4548 <_vfiprintf_r+0x19e>
    456a:	0405                	addi	s0,s0,1
    456c:	ca02                	sw	zero,20(sp)
    456e:	4681                	li	a3,0
    4570:	4781                	li	a5,0
    4572:	4625                	li	a2,9
    4574:	00044703          	lbu	a4,0(s0)
    4578:	00140593          	addi	a1,s0,1
    457c:	fd070713          	addi	a4,a4,-48
    4580:	06e67863          	bgeu	a2,a4,45f0 <_vfiprintf_r+0x246>
    4584:	f2f1                	bnez	a3,4548 <_vfiprintf_r+0x19e>
    4586:	00044583          	lbu	a1,0(s0)
    458a:	460d                	li	a2,3
    458c:	00001517          	auipc	a0,0x1
    4590:	0cc50513          	addi	a0,a0,204 # 5658 <UARTN+0x70>
    4594:	305000ef          	jal	ra,5098 <memchr>
    4598:	cd11                	beqz	a0,45b4 <_vfiprintf_r+0x20a>
    459a:	00001797          	auipc	a5,0x1
    459e:	0be78793          	addi	a5,a5,190 # 5658 <UARTN+0x70>
    45a2:	8d1d                	sub	a0,a0,a5
    45a4:	04000793          	li	a5,64
    45a8:	00a797b3          	sll	a5,a5,a0
    45ac:	4542                	lw	a0,16(sp)
    45ae:	0405                	addi	s0,s0,1
    45b0:	8d5d                	or	a0,a0,a5
    45b2:	c82a                	sw	a0,16(sp)
    45b4:	00044583          	lbu	a1,0(s0)
    45b8:	4619                	li	a2,6
    45ba:	00001517          	auipc	a0,0x1
    45be:	0a250513          	addi	a0,a0,162 # 565c <UARTN+0x74>
    45c2:	00140913          	addi	s2,s0,1
    45c6:	02b10423          	sb	a1,40(sp)
    45ca:	2cf000ef          	jal	ra,5098 <memchr>
    45ce:	c13d                	beqz	a0,4634 <_vfiprintf_r+0x28a>
    45d0:	ffffc797          	auipc	a5,0xffffc
    45d4:	a3078793          	addi	a5,a5,-1488 # 0 <_sinit>
    45d8:	e795                	bnez	a5,4604 <_vfiprintf_r+0x25a>
    45da:	4742                	lw	a4,16(sp)
    45dc:	47b2                	lw	a5,12(sp)
    45de:	10077713          	andi	a4,a4,256
    45e2:	cf09                	beqz	a4,45fc <_vfiprintf_r+0x252>
    45e4:	0791                	addi	a5,a5,4
    45e6:	c63e                	sw	a5,12(sp)
    45e8:	5792                	lw	a5,36(sp)
    45ea:	97d2                	add	a5,a5,s4
    45ec:	d23e                	sw	a5,36(sp)
    45ee:	b51d                	j	4414 <_vfiprintf_r+0x6a>
    45f0:	036787b3          	mul	a5,a5,s6
    45f4:	4685                	li	a3,1
    45f6:	842e                	mv	s0,a1
    45f8:	97ba                	add	a5,a5,a4
    45fa:	bfad                	j	4574 <_vfiprintf_r+0x1ca>
    45fc:	079d                	addi	a5,a5,7
    45fe:	9be1                	andi	a5,a5,-8
    4600:	07a1                	addi	a5,a5,8
    4602:	b7d5                	j	45e6 <_vfiprintf_r+0x23c>
    4604:	0078                	addi	a4,sp,12
    4606:	00000697          	auipc	a3,0x0
    460a:	d6268693          	addi	a3,a3,-670 # 4368 <__sfputs_r>
    460e:	8626                	mv	a2,s1
    4610:	080c                	addi	a1,sp,16
    4612:	854e                	mv	a0,s3
    4614:	00000097          	auipc	ra,0x0
    4618:	000000e7          	jalr	zero # 0 <_sinit>
    461c:	57fd                	li	a5,-1
    461e:	8a2a                	mv	s4,a0
    4620:	fcf514e3          	bne	a0,a5,45e8 <_vfiprintf_r+0x23e>
    4624:	00c4d783          	lhu	a5,12(s1)
    4628:	0407f793          	andi	a5,a5,64
    462c:	ea079ae3          	bnez	a5,44e0 <_vfiprintf_r+0x136>
    4630:	5512                	lw	a0,36(sp)
    4632:	bd45                	j	44e2 <_vfiprintf_r+0x138>
    4634:	0078                	addi	a4,sp,12
    4636:	00000697          	auipc	a3,0x0
    463a:	d3268693          	addi	a3,a3,-718 # 4368 <__sfputs_r>
    463e:	8626                	mv	a2,s1
    4640:	080c                	addi	a1,sp,16
    4642:	854e                	mv	a0,s3
    4644:	2a01                	jal	4754 <_printf_i>
    4646:	bfd9                	j	461c <_vfiprintf_r+0x272>

00004648 <_printf_common>:
_printf_common():
    4648:	7179                	addi	sp,sp,-48
    464a:	ca56                	sw	s5,20(sp)
    464c:	499c                	lw	a5,16(a1)
    464e:	8aba                	mv	s5,a4
    4650:	4598                	lw	a4,8(a1)
    4652:	d422                	sw	s0,40(sp)
    4654:	d226                	sw	s1,36(sp)
    4656:	ce4e                	sw	s3,28(sp)
    4658:	cc52                	sw	s4,24(sp)
    465a:	d606                	sw	ra,44(sp)
    465c:	d04a                	sw	s2,32(sp)
    465e:	c85a                	sw	s6,16(sp)
    4660:	c65e                	sw	s7,12(sp)
    4662:	89aa                	mv	s3,a0
    4664:	842e                	mv	s0,a1
    4666:	84b2                	mv	s1,a2
    4668:	8a36                	mv	s4,a3
    466a:	00e7d363          	bge	a5,a4,4670 <_printf_common+0x28>
    466e:	87ba                	mv	a5,a4
    4670:	c09c                	sw	a5,0(s1)
    4672:	04344703          	lbu	a4,67(s0)
    4676:	c319                	beqz	a4,467c <_printf_common+0x34>
    4678:	0785                	addi	a5,a5,1
    467a:	c09c                	sw	a5,0(s1)
    467c:	401c                	lw	a5,0(s0)
    467e:	0207f793          	andi	a5,a5,32
    4682:	c781                	beqz	a5,468a <_printf_common+0x42>
    4684:	409c                	lw	a5,0(s1)
    4686:	0789                	addi	a5,a5,2
    4688:	c09c                	sw	a5,0(s1)
    468a:	00042903          	lw	s2,0(s0)
    468e:	00697913          	andi	s2,s2,6
    4692:	00091a63          	bnez	s2,46a6 <_printf_common+0x5e>
    4696:	01940b13          	addi	s6,s0,25
    469a:	5bfd                	li	s7,-1
    469c:	445c                	lw	a5,12(s0)
    469e:	4098                	lw	a4,0(s1)
    46a0:	8f99                	sub	a5,a5,a4
    46a2:	04f94c63          	blt	s2,a5,46fa <_printf_common+0xb2>
    46a6:	401c                	lw	a5,0(s0)
    46a8:	04344683          	lbu	a3,67(s0)
    46ac:	0207f793          	andi	a5,a5,32
    46b0:	00d036b3          	snez	a3,a3
    46b4:	eba5                	bnez	a5,4724 <_printf_common+0xdc>
    46b6:	04340613          	addi	a2,s0,67
    46ba:	85d2                	mv	a1,s4
    46bc:	854e                	mv	a0,s3
    46be:	9a82                	jalr	s5
    46c0:	57fd                	li	a5,-1
    46c2:	04f50363          	beq	a0,a5,4708 <_printf_common+0xc0>
    46c6:	401c                	lw	a5,0(s0)
    46c8:	4611                	li	a2,4
    46ca:	4098                	lw	a4,0(s1)
    46cc:	8b99                	andi	a5,a5,6
    46ce:	4454                	lw	a3,12(s0)
    46d0:	4481                	li	s1,0
    46d2:	00c79763          	bne	a5,a2,46e0 <_printf_common+0x98>
    46d6:	40e684b3          	sub	s1,a3,a4
    46da:	0004d363          	bgez	s1,46e0 <_printf_common+0x98>
    46de:	4481                	li	s1,0
    46e0:	441c                	lw	a5,8(s0)
    46e2:	4818                	lw	a4,16(s0)
    46e4:	00f75463          	bge	a4,a5,46ec <_printf_common+0xa4>
    46e8:	8f99                	sub	a5,a5,a4
    46ea:	94be                	add	s1,s1,a5
    46ec:	4901                	li	s2,0
    46ee:	0469                	addi	s0,s0,26
    46f0:	5b7d                	li	s6,-1
    46f2:	05249863          	bne	s1,s2,4742 <_printf_common+0xfa>
    46f6:	4501                	li	a0,0
    46f8:	a809                	j	470a <_printf_common+0xc2>
    46fa:	4685                	li	a3,1
    46fc:	865a                	mv	a2,s6
    46fe:	85d2                	mv	a1,s4
    4700:	854e                	mv	a0,s3
    4702:	9a82                	jalr	s5
    4704:	01751e63          	bne	a0,s7,4720 <_printf_common+0xd8>
    4708:	557d                	li	a0,-1
    470a:	50b2                	lw	ra,44(sp)
    470c:	5422                	lw	s0,40(sp)
    470e:	5492                	lw	s1,36(sp)
    4710:	5902                	lw	s2,32(sp)
    4712:	49f2                	lw	s3,28(sp)
    4714:	4a62                	lw	s4,24(sp)
    4716:	4ad2                	lw	s5,20(sp)
    4718:	4b42                	lw	s6,16(sp)
    471a:	4bb2                	lw	s7,12(sp)
    471c:	6145                	addi	sp,sp,48
    471e:	8082                	ret
    4720:	0905                	addi	s2,s2,1
    4722:	bfad                	j	469c <_printf_common+0x54>
    4724:	00d40733          	add	a4,s0,a3
    4728:	03000613          	li	a2,48
    472c:	04c701a3          	sb	a2,67(a4)
    4730:	04544703          	lbu	a4,69(s0)
    4734:	00168793          	addi	a5,a3,1
    4738:	97a2                	add	a5,a5,s0
    473a:	0689                	addi	a3,a3,2
    473c:	04e781a3          	sb	a4,67(a5)
    4740:	bf9d                	j	46b6 <_printf_common+0x6e>
    4742:	4685                	li	a3,1
    4744:	8622                	mv	a2,s0
    4746:	85d2                	mv	a1,s4
    4748:	854e                	mv	a0,s3
    474a:	9a82                	jalr	s5
    474c:	fb650ee3          	beq	a0,s6,4708 <_printf_common+0xc0>
    4750:	0905                	addi	s2,s2,1
    4752:	b745                	j	46f2 <_printf_common+0xaa>

00004754 <_printf_i>:
_printf_i():
    4754:	7179                	addi	sp,sp,-48
    4756:	d422                	sw	s0,40(sp)
    4758:	d226                	sw	s1,36(sp)
    475a:	d04a                	sw	s2,32(sp)
    475c:	ce4e                	sw	s3,28(sp)
    475e:	d606                	sw	ra,44(sp)
    4760:	cc52                	sw	s4,24(sp)
    4762:	ca56                	sw	s5,20(sp)
    4764:	c85a                	sw	s6,16(sp)
    4766:	89b6                	mv	s3,a3
    4768:	0185c683          	lbu	a3,24(a1)
    476c:	06e00793          	li	a5,110
    4770:	8932                	mv	s2,a2
    4772:	84aa                	mv	s1,a0
    4774:	842e                	mv	s0,a1
    4776:	04358613          	addi	a2,a1,67
    477a:	1ef68163          	beq	a3,a5,495c <_printf_i+0x208>
    477e:	06d7e263          	bltu	a5,a3,47e2 <_printf_i+0x8e>
    4782:	06300793          	li	a5,99
    4786:	0af68263          	beq	a3,a5,482a <_printf_i+0xd6>
    478a:	00d7ed63          	bltu	a5,a3,47a4 <_printf_i+0x50>
    478e:	1e068b63          	beqz	a3,4984 <_printf_i+0x230>
    4792:	05800793          	li	a5,88
    4796:	16f68763          	beq	a3,a5,4904 <_printf_i+0x1b0>
    479a:	04240a93          	addi	s5,s0,66
    479e:	04d40123          	sb	a3,66(s0)
    47a2:	a869                	j	483c <_printf_i+0xe8>
    47a4:	06400793          	li	a5,100
    47a8:	00f68663          	beq	a3,a5,47b4 <_printf_i+0x60>
    47ac:	06900793          	li	a5,105
    47b0:	fef695e3          	bne	a3,a5,479a <_printf_i+0x46>
    47b4:	401c                	lw	a5,0(s0)
    47b6:	4308                	lw	a0,0(a4)
    47b8:	0807f693          	andi	a3,a5,128
    47bc:	00450593          	addi	a1,a0,4
    47c0:	c2c1                	beqz	a3,4840 <_printf_i+0xec>
    47c2:	411c                	lw	a5,0(a0)
    47c4:	c30c                	sw	a1,0(a4)
    47c6:	0007d863          	bgez	a5,47d6 <_printf_i+0x82>
    47ca:	02d00713          	li	a4,45
    47ce:	40f007b3          	neg	a5,a5
    47d2:	04e401a3          	sb	a4,67(s0)
    47d6:	00001697          	auipc	a3,0x1
    47da:	e8e68693          	addi	a3,a3,-370 # 5664 <UARTN+0x7c>
    47de:	4729                	li	a4,10
    47e0:	a065                	j	4888 <_printf_i+0x134>
    47e2:	07300793          	li	a5,115
    47e6:	1af68363          	beq	a3,a5,498c <_printf_i+0x238>
    47ea:	00d7ef63          	bltu	a5,a3,4808 <_printf_i+0xb4>
    47ee:	06f00793          	li	a5,111
    47f2:	04f68f63          	beq	a3,a5,4850 <_printf_i+0xfc>
    47f6:	07000793          	li	a5,112
    47fa:	faf690e3          	bne	a3,a5,479a <_printf_i+0x46>
    47fe:	419c                	lw	a5,0(a1)
    4800:	0207e793          	ori	a5,a5,32
    4804:	c19c                	sw	a5,0(a1)
    4806:	a809                	j	4818 <_printf_i+0xc4>
    4808:	07500793          	li	a5,117
    480c:	04f68263          	beq	a3,a5,4850 <_printf_i+0xfc>
    4810:	07800793          	li	a5,120
    4814:	f8f693e3          	bne	a3,a5,479a <_printf_i+0x46>
    4818:	07800793          	li	a5,120
    481c:	04f402a3          	sb	a5,69(s0)
    4820:	00001697          	auipc	a3,0x1
    4824:	e5868693          	addi	a3,a3,-424 # 5678 <UARTN+0x90>
    4828:	a0e5                	j	4910 <_printf_i+0x1bc>
    482a:	431c                	lw	a5,0(a4)
    482c:	04258a93          	addi	s5,a1,66
    4830:	00478693          	addi	a3,a5,4
    4834:	439c                	lw	a5,0(a5)
    4836:	c314                	sw	a3,0(a4)
    4838:	04f58123          	sb	a5,66(a1)
    483c:	4785                	li	a5,1
    483e:	a2b5                	j	49aa <_printf_i+0x256>
    4840:	0407f693          	andi	a3,a5,64
    4844:	411c                	lw	a5,0(a0)
    4846:	c30c                	sw	a1,0(a4)
    4848:	debd                	beqz	a3,47c6 <_printf_i+0x72>
    484a:	07c2                	slli	a5,a5,0x10
    484c:	87c1                	srai	a5,a5,0x10
    484e:	bfa5                	j	47c6 <_printf_i+0x72>
    4850:	400c                	lw	a1,0(s0)
    4852:	431c                	lw	a5,0(a4)
    4854:	0805f813          	andi	a6,a1,128
    4858:	00478513          	addi	a0,a5,4
    485c:	00080563          	beqz	a6,4866 <_printf_i+0x112>
    4860:	c308                	sw	a0,0(a4)
    4862:	439c                	lw	a5,0(a5)
    4864:	a039                	j	4872 <_printf_i+0x11e>
    4866:	0405f593          	andi	a1,a1,64
    486a:	c308                	sw	a0,0(a4)
    486c:	d9fd                	beqz	a1,4862 <_printf_i+0x10e>
    486e:	0007d783          	lhu	a5,0(a5)
    4872:	06f00713          	li	a4,111
    4876:	0ce68b63          	beq	a3,a4,494c <_printf_i+0x1f8>
    487a:	00001697          	auipc	a3,0x1
    487e:	dea68693          	addi	a3,a3,-534 # 5664 <UARTN+0x7c>
    4882:	4729                	li	a4,10
    4884:	040401a3          	sb	zero,67(s0)
    4888:	404c                	lw	a1,4(s0)
    488a:	c40c                	sw	a1,8(s0)
    488c:	0005c563          	bltz	a1,4896 <_printf_i+0x142>
    4890:	4008                	lw	a0,0(s0)
    4892:	996d                	andi	a0,a0,-5
    4894:	c008                	sw	a0,0(s0)
    4896:	e399                	bnez	a5,489c <_printf_i+0x148>
    4898:	8ab2                	mv	s5,a2
    489a:	cd91                	beqz	a1,48b6 <_printf_i+0x162>
    489c:	8ab2                	mv	s5,a2
    489e:	02e7f5b3          	remu	a1,a5,a4
    48a2:	1afd                	addi	s5,s5,-1
    48a4:	95b6                	add	a1,a1,a3
    48a6:	0005c583          	lbu	a1,0(a1)
    48aa:	00ba8023          	sb	a1,0(s5)
    48ae:	02e7d5b3          	divu	a1,a5,a4
    48b2:	0ae7f363          	bgeu	a5,a4,4958 <_printf_i+0x204>
    48b6:	47a1                	li	a5,8
    48b8:	00f71e63          	bne	a4,a5,48d4 <_printf_i+0x180>
    48bc:	401c                	lw	a5,0(s0)
    48be:	8b85                	andi	a5,a5,1
    48c0:	cb91                	beqz	a5,48d4 <_printf_i+0x180>
    48c2:	4058                	lw	a4,4(s0)
    48c4:	481c                	lw	a5,16(s0)
    48c6:	00e7c763          	blt	a5,a4,48d4 <_printf_i+0x180>
    48ca:	03000793          	li	a5,48
    48ce:	fefa8fa3          	sb	a5,-1(s5)
    48d2:	1afd                	addi	s5,s5,-1
    48d4:	41560633          	sub	a2,a2,s5
    48d8:	c810                	sw	a2,16(s0)
    48da:	874e                	mv	a4,s3
    48dc:	86ca                	mv	a3,s2
    48de:	0070                	addi	a2,sp,12
    48e0:	85a2                	mv	a1,s0
    48e2:	8526                	mv	a0,s1
    48e4:	d65ff0ef          	jal	ra,4648 <_printf_common>
    48e8:	5a7d                	li	s4,-1
    48ea:	0d451463          	bne	a0,s4,49b2 <_printf_i+0x25e>
    48ee:	557d                	li	a0,-1
    48f0:	50b2                	lw	ra,44(sp)
    48f2:	5422                	lw	s0,40(sp)
    48f4:	5492                	lw	s1,36(sp)
    48f6:	5902                	lw	s2,32(sp)
    48f8:	49f2                	lw	s3,28(sp)
    48fa:	4a62                	lw	s4,24(sp)
    48fc:	4ad2                	lw	s5,20(sp)
    48fe:	4b42                	lw	s6,16(sp)
    4900:	6145                	addi	sp,sp,48
    4902:	8082                	ret
    4904:	04d582a3          	sb	a3,69(a1)
    4908:	00001697          	auipc	a3,0x1
    490c:	d5c68693          	addi	a3,a3,-676 # 5664 <UARTN+0x7c>
    4910:	400c                	lw	a1,0(s0)
    4912:	4308                	lw	a0,0(a4)
    4914:	0805f813          	andi	a6,a1,128
    4918:	411c                	lw	a5,0(a0)
    491a:	0511                	addi	a0,a0,4
    491c:	02080063          	beqz	a6,493c <_printf_i+0x1e8>
    4920:	c308                	sw	a0,0(a4)
    4922:	0015f713          	andi	a4,a1,1
    4926:	c701                	beqz	a4,492e <_printf_i+0x1da>
    4928:	0205e593          	ori	a1,a1,32
    492c:	c00c                	sw	a1,0(s0)
    492e:	4741                	li	a4,16
    4930:	fbb1                	bnez	a5,4884 <_printf_i+0x130>
    4932:	400c                	lw	a1,0(s0)
    4934:	fdf5f593          	andi	a1,a1,-33
    4938:	c00c                	sw	a1,0(s0)
    493a:	b7a9                	j	4884 <_printf_i+0x130>
    493c:	0405f813          	andi	a6,a1,64
    4940:	c308                	sw	a0,0(a4)
    4942:	fe0800e3          	beqz	a6,4922 <_printf_i+0x1ce>
    4946:	07c2                	slli	a5,a5,0x10
    4948:	83c1                	srli	a5,a5,0x10
    494a:	bfe1                	j	4922 <_printf_i+0x1ce>
    494c:	00001697          	auipc	a3,0x1
    4950:	d1868693          	addi	a3,a3,-744 # 5664 <UARTN+0x7c>
    4954:	4721                	li	a4,8
    4956:	b73d                	j	4884 <_printf_i+0x130>
    4958:	87ae                	mv	a5,a1
    495a:	b791                	j	489e <_printf_i+0x14a>
    495c:	4194                	lw	a3,0(a1)
    495e:	431c                	lw	a5,0(a4)
    4960:	49cc                	lw	a1,20(a1)
    4962:	0806f813          	andi	a6,a3,128
    4966:	00478513          	addi	a0,a5,4
    496a:	00080663          	beqz	a6,4976 <_printf_i+0x222>
    496e:	c308                	sw	a0,0(a4)
    4970:	439c                	lw	a5,0(a5)
    4972:	c38c                	sw	a1,0(a5)
    4974:	a801                	j	4984 <_printf_i+0x230>
    4976:	c308                	sw	a0,0(a4)
    4978:	0406f693          	andi	a3,a3,64
    497c:	439c                	lw	a5,0(a5)
    497e:	daf5                	beqz	a3,4972 <_printf_i+0x21e>
    4980:	00b79023          	sh	a1,0(a5)
    4984:	00042823          	sw	zero,16(s0)
    4988:	8ab2                	mv	s5,a2
    498a:	bf81                	j	48da <_printf_i+0x186>
    498c:	431c                	lw	a5,0(a4)
    498e:	41d0                	lw	a2,4(a1)
    4990:	4581                	li	a1,0
    4992:	00478693          	addi	a3,a5,4
    4996:	c314                	sw	a3,0(a4)
    4998:	0007aa83          	lw	s5,0(a5)
    499c:	8556                	mv	a0,s5
    499e:	2ded                	jal	5098 <memchr>
    49a0:	c501                	beqz	a0,49a8 <_printf_i+0x254>
    49a2:	41550533          	sub	a0,a0,s5
    49a6:	c048                	sw	a0,4(s0)
    49a8:	405c                	lw	a5,4(s0)
    49aa:	c81c                	sw	a5,16(s0)
    49ac:	040401a3          	sb	zero,67(s0)
    49b0:	b72d                	j	48da <_printf_i+0x186>
    49b2:	4814                	lw	a3,16(s0)
    49b4:	8656                	mv	a2,s5
    49b6:	85ca                	mv	a1,s2
    49b8:	8526                	mv	a0,s1
    49ba:	9982                	jalr	s3
    49bc:	f34509e3          	beq	a0,s4,48ee <_printf_i+0x19a>
    49c0:	401c                	lw	a5,0(s0)
    49c2:	8b89                	andi	a5,a5,2
    49c4:	e78d                	bnez	a5,49ee <_printf_i+0x29a>
    49c6:	47b2                	lw	a5,12(sp)
    49c8:	4448                	lw	a0,12(s0)
    49ca:	f2f553e3          	bge	a0,a5,48f0 <_printf_i+0x19c>
    49ce:	853e                	mv	a0,a5
    49d0:	b705                	j	48f0 <_printf_i+0x19c>
    49d2:	4685                	li	a3,1
    49d4:	8656                	mv	a2,s5
    49d6:	85ca                	mv	a1,s2
    49d8:	8526                	mv	a0,s1
    49da:	9982                	jalr	s3
    49dc:	f16509e3          	beq	a0,s6,48ee <_printf_i+0x19a>
    49e0:	0a05                	addi	s4,s4,1
    49e2:	445c                	lw	a5,12(s0)
    49e4:	4732                	lw	a4,12(sp)
    49e6:	8f99                	sub	a5,a5,a4
    49e8:	fefa45e3          	blt	s4,a5,49d2 <_printf_i+0x27e>
    49ec:	bfe9                	j	49c6 <_printf_i+0x272>
    49ee:	4a01                	li	s4,0
    49f0:	01940a93          	addi	s5,s0,25
    49f4:	5b7d                	li	s6,-1
    49f6:	b7f5                	j	49e2 <_printf_i+0x28e>

000049f8 <__swbuf_r>:
__swbuf_r():
    49f8:	1101                	addi	sp,sp,-32
    49fa:	cc22                	sw	s0,24(sp)
    49fc:	ca26                	sw	s1,20(sp)
    49fe:	c84a                	sw	s2,16(sp)
    4a00:	ce06                	sw	ra,28(sp)
    4a02:	c64e                	sw	s3,12(sp)
    4a04:	84aa                	mv	s1,a0
    4a06:	892e                	mv	s2,a1
    4a08:	8432                	mv	s0,a2
    4a0a:	c501                	beqz	a0,4a12 <__swbuf_r+0x1a>
    4a0c:	4d1c                	lw	a5,24(a0)
    4a0e:	e391                	bnez	a5,4a12 <__swbuf_r+0x1a>
    4a10:	2939                	jal	4e2e <__sinit>
    4a12:	00001797          	auipc	a5,0x1
    4a16:	c9a78793          	addi	a5,a5,-870 # 56ac <__sf_fake_stdin>
    4a1a:	06f41963          	bne	s0,a5,4a8c <__swbuf_r+0x94>
    4a1e:	40c0                	lw	s0,4(s1)
    4a20:	4c1c                	lw	a5,24(s0)
    4a22:	c41c                	sw	a5,8(s0)
    4a24:	00c45783          	lhu	a5,12(s0)
    4a28:	8ba1                	andi	a5,a5,8
    4a2a:	c3c9                	beqz	a5,4aac <__swbuf_r+0xb4>
    4a2c:	481c                	lw	a5,16(s0)
    4a2e:	cfbd                	beqz	a5,4aac <__swbuf_r+0xb4>
    4a30:	481c                	lw	a5,16(s0)
    4a32:	4008                	lw	a0,0(s0)
    4a34:	0ff97993          	andi	s3,s2,255
    4a38:	0ff97913          	andi	s2,s2,255
    4a3c:	8d1d                	sub	a0,a0,a5
    4a3e:	485c                	lw	a5,20(s0)
    4a40:	00f54663          	blt	a0,a5,4a4c <__swbuf_r+0x54>
    4a44:	85a2                	mv	a1,s0
    4a46:	8526                	mv	a0,s1
    4a48:	24d9                	jal	4d0e <_fflush_r>
    4a4a:	e52d                	bnez	a0,4ab4 <__swbuf_r+0xbc>
    4a4c:	441c                	lw	a5,8(s0)
    4a4e:	0505                	addi	a0,a0,1
    4a50:	17fd                	addi	a5,a5,-1
    4a52:	c41c                	sw	a5,8(s0)
    4a54:	401c                	lw	a5,0(s0)
    4a56:	00178713          	addi	a4,a5,1
    4a5a:	c018                	sw	a4,0(s0)
    4a5c:	01378023          	sb	s3,0(a5)
    4a60:	485c                	lw	a5,20(s0)
    4a62:	00a78963          	beq	a5,a0,4a74 <__swbuf_r+0x7c>
    4a66:	00c45783          	lhu	a5,12(s0)
    4a6a:	8b85                	andi	a5,a5,1
    4a6c:	cb81                	beqz	a5,4a7c <__swbuf_r+0x84>
    4a6e:	47a9                	li	a5,10
    4a70:	00f91663          	bne	s2,a5,4a7c <__swbuf_r+0x84>
    4a74:	85a2                	mv	a1,s0
    4a76:	8526                	mv	a0,s1
    4a78:	2c59                	jal	4d0e <_fflush_r>
    4a7a:	ed0d                	bnez	a0,4ab4 <__swbuf_r+0xbc>
    4a7c:	40f2                	lw	ra,28(sp)
    4a7e:	4462                	lw	s0,24(sp)
    4a80:	854a                	mv	a0,s2
    4a82:	44d2                	lw	s1,20(sp)
    4a84:	4942                	lw	s2,16(sp)
    4a86:	49b2                	lw	s3,12(sp)
    4a88:	6105                	addi	sp,sp,32
    4a8a:	8082                	ret
    4a8c:	00001797          	auipc	a5,0x1
    4a90:	c4078793          	addi	a5,a5,-960 # 56cc <__sf_fake_stdout>
    4a94:	00f41463          	bne	s0,a5,4a9c <__swbuf_r+0xa4>
    4a98:	4480                	lw	s0,8(s1)
    4a9a:	b759                	j	4a20 <__swbuf_r+0x28>
    4a9c:	00001797          	auipc	a5,0x1
    4aa0:	bf078793          	addi	a5,a5,-1040 # 568c <__sf_fake_stderr>
    4aa4:	f6f41ee3          	bne	s0,a5,4a20 <__swbuf_r+0x28>
    4aa8:	44c0                	lw	s0,12(s1)
    4aaa:	bf9d                	j	4a20 <__swbuf_r+0x28>
    4aac:	85a2                	mv	a1,s0
    4aae:	8526                	mv	a0,s1
    4ab0:	2021                	jal	4ab8 <__swsetup_r>
    4ab2:	dd3d                	beqz	a0,4a30 <__swbuf_r+0x38>
    4ab4:	597d                	li	s2,-1
    4ab6:	b7d9                	j	4a7c <__swbuf_r+0x84>

00004ab8 <__swsetup_r>:
__swsetup_r():
    4ab8:	1141                	addi	sp,sp,-16
    4aba:	80c18793          	addi	a5,gp,-2036 # 200000c4 <_impure_ptr>
    4abe:	c226                	sw	s1,4(sp)
    4ac0:	4384                	lw	s1,0(a5)
    4ac2:	c422                	sw	s0,8(sp)
    4ac4:	c04a                	sw	s2,0(sp)
    4ac6:	c606                	sw	ra,12(sp)
    4ac8:	892a                	mv	s2,a0
    4aca:	842e                	mv	s0,a1
    4acc:	c489                	beqz	s1,4ad6 <__swsetup_r+0x1e>
    4ace:	4c9c                	lw	a5,24(s1)
    4ad0:	e399                	bnez	a5,4ad6 <__swsetup_r+0x1e>
    4ad2:	8526                	mv	a0,s1
    4ad4:	2ea9                	jal	4e2e <__sinit>
    4ad6:	00001797          	auipc	a5,0x1
    4ada:	bd678793          	addi	a5,a5,-1066 # 56ac <__sf_fake_stdin>
    4ade:	02f41c63          	bne	s0,a5,4b16 <__swsetup_r+0x5e>
    4ae2:	40c0                	lw	s0,4(s1)
    4ae4:	00c41703          	lh	a4,12(s0)
    4ae8:	01071793          	slli	a5,a4,0x10
    4aec:	83c1                	srli	a5,a5,0x10
    4aee:	0087f693          	andi	a3,a5,8
    4af2:	eeb5                	bnez	a3,4b6e <__swsetup_r+0xb6>
    4af4:	0107f693          	andi	a3,a5,16
    4af8:	ee9d                	bnez	a3,4b36 <__swsetup_r+0x7e>
    4afa:	47a5                	li	a5,9
    4afc:	00f92023          	sw	a5,0(s2)
    4b00:	04076713          	ori	a4,a4,64
    4b04:	00e41623          	sh	a4,12(s0)
    4b08:	557d                	li	a0,-1
    4b0a:	40b2                	lw	ra,12(sp)
    4b0c:	4422                	lw	s0,8(sp)
    4b0e:	4492                	lw	s1,4(sp)
    4b10:	4902                	lw	s2,0(sp)
    4b12:	0141                	addi	sp,sp,16
    4b14:	8082                	ret
    4b16:	00001797          	auipc	a5,0x1
    4b1a:	bb678793          	addi	a5,a5,-1098 # 56cc <__sf_fake_stdout>
    4b1e:	00f41463          	bne	s0,a5,4b26 <__swsetup_r+0x6e>
    4b22:	4480                	lw	s0,8(s1)
    4b24:	b7c1                	j	4ae4 <__swsetup_r+0x2c>
    4b26:	00001797          	auipc	a5,0x1
    4b2a:	b6678793          	addi	a5,a5,-1178 # 568c <__sf_fake_stderr>
    4b2e:	faf41be3          	bne	s0,a5,4ae4 <__swsetup_r+0x2c>
    4b32:	44c0                	lw	s0,12(s1)
    4b34:	bf45                	j	4ae4 <__swsetup_r+0x2c>
    4b36:	8b91                	andi	a5,a5,4
    4b38:	c78d                	beqz	a5,4b62 <__swsetup_r+0xaa>
    4b3a:	584c                	lw	a1,52(s0)
    4b3c:	c989                	beqz	a1,4b4e <__swsetup_r+0x96>
    4b3e:	04440793          	addi	a5,s0,68
    4b42:	00f58463          	beq	a1,a5,4b4a <__swsetup_r+0x92>
    4b46:	854a                	mv	a0,s2
    4b48:	23ad                	jal	50b2 <_free_r>
    4b4a:	02042a23          	sw	zero,52(s0)
    4b4e:	00c45783          	lhu	a5,12(s0)
    4b52:	00042223          	sw	zero,4(s0)
    4b56:	fdb7f793          	andi	a5,a5,-37
    4b5a:	00f41623          	sh	a5,12(s0)
    4b5e:	481c                	lw	a5,16(s0)
    4b60:	c01c                	sw	a5,0(s0)
    4b62:	00c45783          	lhu	a5,12(s0)
    4b66:	0087e793          	ori	a5,a5,8
    4b6a:	00f41623          	sh	a5,12(s0)
    4b6e:	481c                	lw	a5,16(s0)
    4b70:	ef81                	bnez	a5,4b88 <__swsetup_r+0xd0>
    4b72:	00c45783          	lhu	a5,12(s0)
    4b76:	20000713          	li	a4,512
    4b7a:	2807f793          	andi	a5,a5,640
    4b7e:	00e78563          	beq	a5,a4,4b88 <__swsetup_r+0xd0>
    4b82:	85a2                	mv	a1,s0
    4b84:	854a                	mv	a0,s2
    4b86:	299d                	jal	4ffc <__smakebuf_r>
    4b88:	00c45783          	lhu	a5,12(s0)
    4b8c:	0017f713          	andi	a4,a5,1
    4b90:	c705                	beqz	a4,4bb8 <__swsetup_r+0x100>
    4b92:	485c                	lw	a5,20(s0)
    4b94:	00042423          	sw	zero,8(s0)
    4b98:	40f007b3          	neg	a5,a5
    4b9c:	cc1c                	sw	a5,24(s0)
    4b9e:	481c                	lw	a5,16(s0)
    4ba0:	4501                	li	a0,0
    4ba2:	f7a5                	bnez	a5,4b0a <__swsetup_r+0x52>
    4ba4:	00c41783          	lh	a5,12(s0)
    4ba8:	0807f713          	andi	a4,a5,128
    4bac:	df39                	beqz	a4,4b0a <__swsetup_r+0x52>
    4bae:	0407e793          	ori	a5,a5,64
    4bb2:	00f41623          	sh	a5,12(s0)
    4bb6:	bf89                	j	4b08 <__swsetup_r+0x50>
    4bb8:	8b89                	andi	a5,a5,2
    4bba:	4701                	li	a4,0
    4bbc:	e391                	bnez	a5,4bc0 <__swsetup_r+0x108>
    4bbe:	4858                	lw	a4,20(s0)
    4bc0:	c418                	sw	a4,8(s0)
    4bc2:	bff1                	j	4b9e <__swsetup_r+0xe6>

00004bc4 <abort>:
abort():
    4bc4:	1141                	addi	sp,sp,-16
    4bc6:	4519                	li	a0,6
    4bc8:	c606                	sw	ra,12(sp)
    4bca:	25f5                	jal	52b6 <raise>
    4bcc:	4505                	li	a0,1
    4bce:	1ab000ef          	jal	ra,5578 <_exit>

00004bd2 <__sflush_r>:
__sflush_r():
    4bd2:	00c5d783          	lhu	a5,12(a1)
    4bd6:	1101                	addi	sp,sp,-32
    4bd8:	cc22                	sw	s0,24(sp)
    4bda:	ca26                	sw	s1,20(sp)
    4bdc:	ce06                	sw	ra,28(sp)
    4bde:	c84a                	sw	s2,16(sp)
    4be0:	c64e                	sw	s3,12(sp)
    4be2:	0087f713          	andi	a4,a5,8
    4be6:	84aa                	mv	s1,a0
    4be8:	842e                	mv	s0,a1
    4bea:	ef71                	bnez	a4,4cc6 <__sflush_r+0xf4>
    4bec:	41d8                	lw	a4,4(a1)
    4bee:	00e04d63          	bgtz	a4,4c08 <__sflush_r+0x36>
    4bf2:	41b8                	lw	a4,64(a1)
    4bf4:	00e04a63          	bgtz	a4,4c08 <__sflush_r+0x36>
    4bf8:	4501                	li	a0,0
    4bfa:	40f2                	lw	ra,28(sp)
    4bfc:	4462                	lw	s0,24(sp)
    4bfe:	44d2                	lw	s1,20(sp)
    4c00:	4942                	lw	s2,16(sp)
    4c02:	49b2                	lw	s3,12(sp)
    4c04:	6105                	addi	sp,sp,32
    4c06:	8082                	ret
    4c08:	5458                	lw	a4,44(s0)
    4c0a:	d77d                	beqz	a4,4bf8 <__sflush_r+0x26>
    4c0c:	0004a903          	lw	s2,0(s1)
    4c10:	01379693          	slli	a3,a5,0x13
    4c14:	0004a023          	sw	zero,0(s1)
    4c18:	0606dd63          	bgez	a3,4c92 <__sflush_r+0xc0>
    4c1c:	4870                	lw	a2,84(s0)
    4c1e:	00c45783          	lhu	a5,12(s0)
    4c22:	8b91                	andi	a5,a5,4
    4c24:	c799                	beqz	a5,4c32 <__sflush_r+0x60>
    4c26:	405c                	lw	a5,4(s0)
    4c28:	8e1d                	sub	a2,a2,a5
    4c2a:	585c                	lw	a5,52(s0)
    4c2c:	c399                	beqz	a5,4c32 <__sflush_r+0x60>
    4c2e:	403c                	lw	a5,64(s0)
    4c30:	8e1d                	sub	a2,a2,a5
    4c32:	545c                	lw	a5,44(s0)
    4c34:	500c                	lw	a1,32(s0)
    4c36:	4681                	li	a3,0
    4c38:	8526                	mv	a0,s1
    4c3a:	9782                	jalr	a5
    4c3c:	57fd                	li	a5,-1
    4c3e:	00c45703          	lhu	a4,12(s0)
    4c42:	00f51d63          	bne	a0,a5,4c5c <__sflush_r+0x8a>
    4c46:	4094                	lw	a3,0(s1)
    4c48:	47f5                	li	a5,29
    4c4a:	06d7e863          	bltu	a5,a3,4cba <__sflush_r+0xe8>
    4c4e:	204007b7          	lui	a5,0x20400
    4c52:	0785                	addi	a5,a5,1
    4c54:	00d7d7b3          	srl	a5,a5,a3
    4c58:	8b85                	andi	a5,a5,1
    4c5a:	c3a5                	beqz	a5,4cba <__sflush_r+0xe8>
    4c5c:	481c                	lw	a5,16(s0)
    4c5e:	00042223          	sw	zero,4(s0)
    4c62:	c01c                	sw	a5,0(s0)
    4c64:	01371793          	slli	a5,a4,0x13
    4c68:	0007d863          	bgez	a5,4c78 <__sflush_r+0xa6>
    4c6c:	57fd                	li	a5,-1
    4c6e:	00f51463          	bne	a0,a5,4c76 <__sflush_r+0xa4>
    4c72:	409c                	lw	a5,0(s1)
    4c74:	e391                	bnez	a5,4c78 <__sflush_r+0xa6>
    4c76:	c868                	sw	a0,84(s0)
    4c78:	584c                	lw	a1,52(s0)
    4c7a:	0124a023          	sw	s2,0(s1)
    4c7e:	ddad                	beqz	a1,4bf8 <__sflush_r+0x26>
    4c80:	04440793          	addi	a5,s0,68
    4c84:	00f58463          	beq	a1,a5,4c8c <__sflush_r+0xba>
    4c88:	8526                	mv	a0,s1
    4c8a:	2125                	jal	50b2 <_free_r>
    4c8c:	02042a23          	sw	zero,52(s0)
    4c90:	b7a5                	j	4bf8 <__sflush_r+0x26>
    4c92:	500c                	lw	a1,32(s0)
    4c94:	4601                	li	a2,0
    4c96:	4685                	li	a3,1
    4c98:	8526                	mv	a0,s1
    4c9a:	9702                	jalr	a4
    4c9c:	57fd                	li	a5,-1
    4c9e:	862a                	mv	a2,a0
    4ca0:	f6f51fe3          	bne	a0,a5,4c1e <__sflush_r+0x4c>
    4ca4:	409c                	lw	a5,0(s1)
    4ca6:	dfa5                	beqz	a5,4c1e <__sflush_r+0x4c>
    4ca8:	4775                	li	a4,29
    4caa:	00e78563          	beq	a5,a4,4cb4 <__sflush_r+0xe2>
    4cae:	4759                	li	a4,22
    4cb0:	04e79463          	bne	a5,a4,4cf8 <__sflush_r+0x126>
    4cb4:	0124a023          	sw	s2,0(s1)
    4cb8:	b781                	j	4bf8 <__sflush_r+0x26>
    4cba:	04076713          	ori	a4,a4,64
    4cbe:	00e41623          	sh	a4,12(s0)
    4cc2:	557d                	li	a0,-1
    4cc4:	bf1d                	j	4bfa <__sflush_r+0x28>
    4cc6:	0105a983          	lw	s3,16(a1)
    4cca:	f20987e3          	beqz	s3,4bf8 <__sflush_r+0x26>
    4cce:	0005a903          	lw	s2,0(a1)
    4cd2:	8b8d                	andi	a5,a5,3
    4cd4:	0135a023          	sw	s3,0(a1)
    4cd8:	41390933          	sub	s2,s2,s3
    4cdc:	4701                	li	a4,0
    4cde:	e391                	bnez	a5,4ce2 <__sflush_r+0x110>
    4ce0:	49d8                	lw	a4,20(a1)
    4ce2:	c418                	sw	a4,8(s0)
    4ce4:	f1205ae3          	blez	s2,4bf8 <__sflush_r+0x26>
    4ce8:	541c                	lw	a5,40(s0)
    4cea:	500c                	lw	a1,32(s0)
    4cec:	86ca                	mv	a3,s2
    4cee:	864e                	mv	a2,s3
    4cf0:	8526                	mv	a0,s1
    4cf2:	9782                	jalr	a5
    4cf4:	00a04963          	bgtz	a0,4d06 <__sflush_r+0x134>
    4cf8:	00c45783          	lhu	a5,12(s0)
    4cfc:	0407e793          	ori	a5,a5,64
    4d00:	00f41623          	sh	a5,12(s0)
    4d04:	bf7d                	j	4cc2 <__sflush_r+0xf0>
    4d06:	99aa                	add	s3,s3,a0
    4d08:	40a90933          	sub	s2,s2,a0
    4d0c:	bfe1                	j	4ce4 <__sflush_r+0x112>

00004d0e <_fflush_r>:
_fflush_r():
    4d0e:	499c                	lw	a5,16(a1)
    4d10:	c3a5                	beqz	a5,4d70 <_fflush_r+0x62>
    4d12:	1101                	addi	sp,sp,-32
    4d14:	cc22                	sw	s0,24(sp)
    4d16:	ce06                	sw	ra,28(sp)
    4d18:	842a                	mv	s0,a0
    4d1a:	c511                	beqz	a0,4d26 <_fflush_r+0x18>
    4d1c:	4d1c                	lw	a5,24(a0)
    4d1e:	e781                	bnez	a5,4d26 <_fflush_r+0x18>
    4d20:	c62e                	sw	a1,12(sp)
    4d22:	2231                	jal	4e2e <__sinit>
    4d24:	45b2                	lw	a1,12(sp)
    4d26:	00001797          	auipc	a5,0x1
    4d2a:	98678793          	addi	a5,a5,-1658 # 56ac <__sf_fake_stdin>
    4d2e:	00f59c63          	bne	a1,a5,4d46 <_fflush_r+0x38>
    4d32:	404c                	lw	a1,4(s0)
    4d34:	00c59783          	lh	a5,12(a1)
    4d38:	c79d                	beqz	a5,4d66 <_fflush_r+0x58>
    4d3a:	8522                	mv	a0,s0
    4d3c:	4462                	lw	s0,24(sp)
    4d3e:	40f2                	lw	ra,28(sp)
    4d40:	6105                	addi	sp,sp,32
    4d42:	e91ff06f          	j	4bd2 <__sflush_r>
    4d46:	00001797          	auipc	a5,0x1
    4d4a:	98678793          	addi	a5,a5,-1658 # 56cc <__sf_fake_stdout>
    4d4e:	00f59463          	bne	a1,a5,4d56 <_fflush_r+0x48>
    4d52:	440c                	lw	a1,8(s0)
    4d54:	b7c5                	j	4d34 <_fflush_r+0x26>
    4d56:	00001797          	auipc	a5,0x1
    4d5a:	93678793          	addi	a5,a5,-1738 # 568c <__sf_fake_stderr>
    4d5e:	fcf59be3          	bne	a1,a5,4d34 <_fflush_r+0x26>
    4d62:	444c                	lw	a1,12(s0)
    4d64:	bfc1                	j	4d34 <_fflush_r+0x26>
    4d66:	40f2                	lw	ra,28(sp)
    4d68:	4462                	lw	s0,24(sp)
    4d6a:	4501                	li	a0,0
    4d6c:	6105                	addi	sp,sp,32
    4d6e:	8082                	ret
    4d70:	4501                	li	a0,0
    4d72:	8082                	ret

00004d74 <std>:
std():
    4d74:	1141                	addi	sp,sp,-16
    4d76:	c422                	sw	s0,8(sp)
    4d78:	c606                	sw	ra,12(sp)
    4d7a:	842a                	mv	s0,a0
    4d7c:	00b51623          	sh	a1,12(a0)
    4d80:	00c51723          	sh	a2,14(a0)
    4d84:	00052023          	sw	zero,0(a0)
    4d88:	00052223          	sw	zero,4(a0)
    4d8c:	00052423          	sw	zero,8(a0)
    4d90:	06052223          	sw	zero,100(a0)
    4d94:	00052823          	sw	zero,16(a0)
    4d98:	00052a23          	sw	zero,20(a0)
    4d9c:	00052c23          	sw	zero,24(a0)
    4da0:	4621                	li	a2,8
    4da2:	4581                	li	a1,0
    4da4:	05c50513          	addi	a0,a0,92
    4da8:	b98fb0ef          	jal	ra,140 <memset>
    4dac:	00000797          	auipc	a5,0x0
    4db0:	54a78793          	addi	a5,a5,1354 # 52f6 <__sread>
    4db4:	d05c                	sw	a5,36(s0)
    4db6:	00000797          	auipc	a5,0x0
    4dba:	57078793          	addi	a5,a5,1392 # 5326 <__swrite>
    4dbe:	d41c                	sw	a5,40(s0)
    4dc0:	00000797          	auipc	a5,0x0
    4dc4:	5b478793          	addi	a5,a5,1460 # 5374 <__sseek>
    4dc8:	d45c                	sw	a5,44(s0)
    4dca:	00000797          	auipc	a5,0x0
    4dce:	5e078793          	addi	a5,a5,1504 # 53aa <__sclose>
    4dd2:	d000                	sw	s0,32(s0)
    4dd4:	d81c                	sw	a5,48(s0)
    4dd6:	40b2                	lw	ra,12(sp)
    4dd8:	4422                	lw	s0,8(sp)
    4dda:	0141                	addi	sp,sp,16
    4ddc:	8082                	ret

00004dde <_cleanup_r>:
_cleanup_r():
    4dde:	00000597          	auipc	a1,0x0
    4de2:	f3058593          	addi	a1,a1,-208 # 4d0e <_fflush_r>
    4de6:	aa89                	j	4f38 <_fwalk_reent>

00004de8 <__sfmoreglue>:
__sfmoreglue():
    4de8:	1141                	addi	sp,sp,-16
    4dea:	c226                	sw	s1,4(sp)
    4dec:	06800613          	li	a2,104
    4df0:	fff58493          	addi	s1,a1,-1
    4df4:	02c484b3          	mul	s1,s1,a2
    4df8:	c04a                	sw	s2,0(sp)
    4dfa:	892e                	mv	s2,a1
    4dfc:	c422                	sw	s0,8(sp)
    4dfe:	c606                	sw	ra,12(sp)
    4e00:	07448593          	addi	a1,s1,116
    4e04:	2e89                	jal	5156 <_malloc_r>
    4e06:	842a                	mv	s0,a0
    4e08:	cd01                	beqz	a0,4e20 <__sfmoreglue+0x38>
    4e0a:	00052023          	sw	zero,0(a0)
    4e0e:	01252223          	sw	s2,4(a0)
    4e12:	0531                	addi	a0,a0,12
    4e14:	c408                	sw	a0,8(s0)
    4e16:	06848613          	addi	a2,s1,104
    4e1a:	4581                	li	a1,0
    4e1c:	b24fb0ef          	jal	ra,140 <memset>
    4e20:	8522                	mv	a0,s0
    4e22:	40b2                	lw	ra,12(sp)
    4e24:	4422                	lw	s0,8(sp)
    4e26:	4492                	lw	s1,4(sp)
    4e28:	4902                	lw	s2,0(sp)
    4e2a:	0141                	addi	sp,sp,16
    4e2c:	8082                	ret

00004e2e <__sinit>:
__sinit():
    4e2e:	4d1c                	lw	a5,24(a0)
    4e30:	e7a5                	bnez	a5,4e98 <__sinit+0x6a>
    4e32:	1141                	addi	sp,sp,-16
    4e34:	c606                	sw	ra,12(sp)
    4e36:	c422                	sw	s0,8(sp)
    4e38:	00000797          	auipc	a5,0x0
    4e3c:	fa678793          	addi	a5,a5,-90 # 4dde <_cleanup_r>
    4e40:	d51c                	sw	a5,40(a0)
    4e42:	81018793          	addi	a5,gp,-2032 # 200000c8 <_global_impure_ptr>
    4e46:	439c                	lw	a5,0(a5)
    4e48:	04052423          	sw	zero,72(a0)
    4e4c:	04052623          	sw	zero,76(a0)
    4e50:	04052823          	sw	zero,80(a0)
    4e54:	00f51463          	bne	a0,a5,4e5c <__sinit+0x2e>
    4e58:	4785                	li	a5,1
    4e5a:	cd1c                	sw	a5,24(a0)
    4e5c:	842a                	mv	s0,a0
    4e5e:	2835                	jal	4e9a <__sfp>
    4e60:	c048                	sw	a0,4(s0)
    4e62:	8522                	mv	a0,s0
    4e64:	281d                	jal	4e9a <__sfp>
    4e66:	c408                	sw	a0,8(s0)
    4e68:	8522                	mv	a0,s0
    4e6a:	2805                	jal	4e9a <__sfp>
    4e6c:	c448                	sw	a0,12(s0)
    4e6e:	4048                	lw	a0,4(s0)
    4e70:	4601                	li	a2,0
    4e72:	4591                	li	a1,4
    4e74:	f01ff0ef          	jal	ra,4d74 <std>
    4e78:	4408                	lw	a0,8(s0)
    4e7a:	4605                	li	a2,1
    4e7c:	45a5                	li	a1,9
    4e7e:	ef7ff0ef          	jal	ra,4d74 <std>
    4e82:	4448                	lw	a0,12(s0)
    4e84:	4609                	li	a2,2
    4e86:	45c9                	li	a1,18
    4e88:	eedff0ef          	jal	ra,4d74 <std>
    4e8c:	4785                	li	a5,1
    4e8e:	cc1c                	sw	a5,24(s0)
    4e90:	40b2                	lw	ra,12(sp)
    4e92:	4422                	lw	s0,8(sp)
    4e94:	0141                	addi	sp,sp,16
    4e96:	8082                	ret
    4e98:	8082                	ret

00004e9a <__sfp>:
__sfp():
    4e9a:	1141                	addi	sp,sp,-16
    4e9c:	81018793          	addi	a5,gp,-2032 # 200000c8 <_global_impure_ptr>
    4ea0:	c226                	sw	s1,4(sp)
    4ea2:	4384                	lw	s1,0(a5)
    4ea4:	c04a                	sw	s2,0(sp)
    4ea6:	c606                	sw	ra,12(sp)
    4ea8:	4c9c                	lw	a5,24(s1)
    4eaa:	c422                	sw	s0,8(sp)
    4eac:	892a                	mv	s2,a0
    4eae:	e399                	bnez	a5,4eb4 <__sfp+0x1a>
    4eb0:	8526                	mv	a0,s1
    4eb2:	3fb5                	jal	4e2e <__sinit>
    4eb4:	04848493          	addi	s1,s1,72
    4eb8:	4480                	lw	s0,8(s1)
    4eba:	40dc                	lw	a5,4(s1)
    4ebc:	17fd                	addi	a5,a5,-1
    4ebe:	0007d663          	bgez	a5,4eca <__sfp+0x30>
    4ec2:	409c                	lw	a5,0(s1)
    4ec4:	cfb9                	beqz	a5,4f22 <__sfp+0x88>
    4ec6:	4084                	lw	s1,0(s1)
    4ec8:	bfc5                	j	4eb8 <__sfp+0x1e>
    4eca:	00c41703          	lh	a4,12(s0)
    4ece:	e739                	bnez	a4,4f1c <__sfp+0x82>
    4ed0:	77c1                	lui	a5,0xffff0
    4ed2:	0785                	addi	a5,a5,1
    4ed4:	06042223          	sw	zero,100(s0)
    4ed8:	00042023          	sw	zero,0(s0)
    4edc:	00042223          	sw	zero,4(s0)
    4ee0:	00042423          	sw	zero,8(s0)
    4ee4:	c45c                	sw	a5,12(s0)
    4ee6:	00042823          	sw	zero,16(s0)
    4eea:	00042a23          	sw	zero,20(s0)
    4eee:	00042c23          	sw	zero,24(s0)
    4ef2:	4621                	li	a2,8
    4ef4:	4581                	li	a1,0
    4ef6:	05c40513          	addi	a0,s0,92
    4efa:	a46fb0ef          	jal	ra,140 <memset>
    4efe:	02042a23          	sw	zero,52(s0)
    4f02:	02042c23          	sw	zero,56(s0)
    4f06:	04042423          	sw	zero,72(s0)
    4f0a:	04042623          	sw	zero,76(s0)
    4f0e:	8522                	mv	a0,s0
    4f10:	40b2                	lw	ra,12(sp)
    4f12:	4422                	lw	s0,8(sp)
    4f14:	4492                	lw	s1,4(sp)
    4f16:	4902                	lw	s2,0(sp)
    4f18:	0141                	addi	sp,sp,16
    4f1a:	8082                	ret
    4f1c:	06840413          	addi	s0,s0,104
    4f20:	bf71                	j	4ebc <__sfp+0x22>
    4f22:	4591                	li	a1,4
    4f24:	854a                	mv	a0,s2
    4f26:	ec3ff0ef          	jal	ra,4de8 <__sfmoreglue>
    4f2a:	c088                	sw	a0,0(s1)
    4f2c:	fd49                	bnez	a0,4ec6 <__sfp+0x2c>
    4f2e:	47b1                	li	a5,12
    4f30:	00f92023          	sw	a5,0(s2)
    4f34:	4401                	li	s0,0
    4f36:	bfe1                	j	4f0e <__sfp+0x74>

00004f38 <_fwalk_reent>:
_fwalk_reent():
    4f38:	7179                	addi	sp,sp,-48
    4f3a:	d422                	sw	s0,40(sp)
    4f3c:	d04a                	sw	s2,32(sp)
    4f3e:	cc52                	sw	s4,24(sp)
    4f40:	ca56                	sw	s5,20(sp)
    4f42:	c85a                	sw	s6,16(sp)
    4f44:	c65e                	sw	s7,12(sp)
    4f46:	d606                	sw	ra,44(sp)
    4f48:	d226                	sw	s1,36(sp)
    4f4a:	ce4e                	sw	s3,28(sp)
    4f4c:	8a2a                	mv	s4,a0
    4f4e:	8aae                	mv	s5,a1
    4f50:	04850413          	addi	s0,a0,72
    4f54:	4901                	li	s2,0
    4f56:	4b05                	li	s6,1
    4f58:	5bfd                	li	s7,-1
    4f5a:	ec09                	bnez	s0,4f74 <_fwalk_reent+0x3c>
    4f5c:	50b2                	lw	ra,44(sp)
    4f5e:	5422                	lw	s0,40(sp)
    4f60:	854a                	mv	a0,s2
    4f62:	5492                	lw	s1,36(sp)
    4f64:	5902                	lw	s2,32(sp)
    4f66:	49f2                	lw	s3,28(sp)
    4f68:	4a62                	lw	s4,24(sp)
    4f6a:	4ad2                	lw	s5,20(sp)
    4f6c:	4b42                	lw	s6,16(sp)
    4f6e:	4bb2                	lw	s7,12(sp)
    4f70:	6145                	addi	sp,sp,48
    4f72:	8082                	ret
    4f74:	4404                	lw	s1,8(s0)
    4f76:	00442983          	lw	s3,4(s0)
    4f7a:	19fd                	addi	s3,s3,-1
    4f7c:	0009d463          	bgez	s3,4f84 <_fwalk_reent+0x4c>
    4f80:	4000                	lw	s0,0(s0)
    4f82:	bfe1                	j	4f5a <_fwalk_reent+0x22>
    4f84:	00c4d783          	lhu	a5,12(s1)
    4f88:	00fb7b63          	bgeu	s6,a5,4f9e <_fwalk_reent+0x66>
    4f8c:	00e49783          	lh	a5,14(s1)
    4f90:	01778763          	beq	a5,s7,4f9e <_fwalk_reent+0x66>
    4f94:	85a6                	mv	a1,s1
    4f96:	8552                	mv	a0,s4
    4f98:	9a82                	jalr	s5
    4f9a:	00a96933          	or	s2,s2,a0
    4f9e:	06848493          	addi	s1,s1,104
    4fa2:	bfe1                	j	4f7a <_fwalk_reent+0x42>

00004fa4 <__swhatbuf_r>:
__swhatbuf_r():
    4fa4:	7119                	addi	sp,sp,-128
    4fa6:	daa6                	sw	s1,116(sp)
    4fa8:	84ae                	mv	s1,a1
    4faa:	00e59583          	lh	a1,14(a1)
    4fae:	dca2                	sw	s0,120(sp)
    4fb0:	de86                	sw	ra,124(sp)
    4fb2:	8432                	mv	s0,a2
    4fb4:	0005dc63          	bgez	a1,4fcc <__swhatbuf_r+0x28>
    4fb8:	00c4d783          	lhu	a5,12(s1)
    4fbc:	0006a023          	sw	zero,0(a3)
    4fc0:	0807f793          	andi	a5,a5,128
    4fc4:	e39d                	bnez	a5,4fea <__swhatbuf_r+0x46>
    4fc6:	40000793          	li	a5,1024
    4fca:	a015                	j	4fee <__swhatbuf_r+0x4a>
    4fcc:	0830                	addi	a2,sp,24
    4fce:	c636                	sw	a3,12(sp)
    4fd0:	2199                	jal	5416 <_fstat_r>
    4fd2:	46b2                	lw	a3,12(sp)
    4fd4:	fe0542e3          	bltz	a0,4fb8 <__swhatbuf_r+0x14>
    4fd8:	4772                	lw	a4,28(sp)
    4fda:	67bd                	lui	a5,0xf
    4fdc:	8ff9                	and	a5,a5,a4
    4fde:	7779                	lui	a4,0xffffe
    4fe0:	97ba                	add	a5,a5,a4
    4fe2:	0017b793          	seqz	a5,a5
    4fe6:	c29c                	sw	a5,0(a3)
    4fe8:	bff9                	j	4fc6 <__swhatbuf_r+0x22>
    4fea:	04000793          	li	a5,64
    4fee:	c01c                	sw	a5,0(s0)
    4ff0:	50f6                	lw	ra,124(sp)
    4ff2:	5466                	lw	s0,120(sp)
    4ff4:	54d6                	lw	s1,116(sp)
    4ff6:	4501                	li	a0,0
    4ff8:	6109                	addi	sp,sp,128
    4ffa:	8082                	ret

00004ffc <__smakebuf_r>:
__smakebuf_r():
    4ffc:	00c5d783          	lhu	a5,12(a1)
    5000:	1101                	addi	sp,sp,-32
    5002:	cc22                	sw	s0,24(sp)
    5004:	ce06                	sw	ra,28(sp)
    5006:	ca26                	sw	s1,20(sp)
    5008:	c84a                	sw	s2,16(sp)
    500a:	8b89                	andi	a5,a5,2
    500c:	842e                	mv	s0,a1
    500e:	cf89                	beqz	a5,5028 <__smakebuf_r+0x2c>
    5010:	04740793          	addi	a5,s0,71
    5014:	c01c                	sw	a5,0(s0)
    5016:	c81c                	sw	a5,16(s0)
    5018:	4785                	li	a5,1
    501a:	c85c                	sw	a5,20(s0)
    501c:	40f2                	lw	ra,28(sp)
    501e:	4462                	lw	s0,24(sp)
    5020:	44d2                	lw	s1,20(sp)
    5022:	4942                	lw	s2,16(sp)
    5024:	6105                	addi	sp,sp,32
    5026:	8082                	ret
    5028:	0074                	addi	a3,sp,12
    502a:	0030                	addi	a2,sp,8
    502c:	84aa                	mv	s1,a0
    502e:	3f9d                	jal	4fa4 <__swhatbuf_r>
    5030:	45a2                	lw	a1,8(sp)
    5032:	892a                	mv	s2,a0
    5034:	8526                	mv	a0,s1
    5036:	2205                	jal	5156 <_malloc_r>
    5038:	ed01                	bnez	a0,5050 <__smakebuf_r+0x54>
    503a:	00c41783          	lh	a5,12(s0)
    503e:	2007f713          	andi	a4,a5,512
    5042:	ff69                	bnez	a4,501c <__smakebuf_r+0x20>
    5044:	9bf1                	andi	a5,a5,-4
    5046:	0027e793          	ori	a5,a5,2
    504a:	00f41623          	sh	a5,12(s0)
    504e:	b7c9                	j	5010 <__smakebuf_r+0x14>
    5050:	00000797          	auipc	a5,0x0
    5054:	d8e78793          	addi	a5,a5,-626 # 4dde <_cleanup_r>
    5058:	d49c                	sw	a5,40(s1)
    505a:	00c45783          	lhu	a5,12(s0)
    505e:	c008                	sw	a0,0(s0)
    5060:	c808                	sw	a0,16(s0)
    5062:	0807e793          	ori	a5,a5,128
    5066:	00f41623          	sh	a5,12(s0)
    506a:	47a2                	lw	a5,8(sp)
    506c:	c85c                	sw	a5,20(s0)
    506e:	47b2                	lw	a5,12(sp)
    5070:	cf89                	beqz	a5,508a <__smakebuf_r+0x8e>
    5072:	00e41583          	lh	a1,14(s0)
    5076:	8526                	mv	a0,s1
    5078:	2ec1                	jal	5448 <_isatty_r>
    507a:	c901                	beqz	a0,508a <__smakebuf_r+0x8e>
    507c:	00c45783          	lhu	a5,12(s0)
    5080:	9bf1                	andi	a5,a5,-4
    5082:	0017e793          	ori	a5,a5,1
    5086:	00f41623          	sh	a5,12(s0)
    508a:	00c45783          	lhu	a5,12(s0)
    508e:	00f96933          	or	s2,s2,a5
    5092:	01241623          	sh	s2,12(s0)
    5096:	b759                	j	501c <__smakebuf_r+0x20>

00005098 <memchr>:
memchr():
    5098:	0ff5f593          	andi	a1,a1,255
    509c:	962a                	add	a2,a2,a0
    509e:	00c51463          	bne	a0,a2,50a6 <memchr+0xe>
    50a2:	4501                	li	a0,0
    50a4:	8082                	ret
    50a6:	00054783          	lbu	a5,0(a0)
    50aa:	feb78de3          	beq	a5,a1,50a4 <memchr+0xc>
    50ae:	0505                	addi	a0,a0,1
    50b0:	b7fd                	j	509e <memchr+0x6>

000050b2 <_free_r>:
_free_r():
    50b2:	c1cd                	beqz	a1,5154 <_free_r+0xa2>
    50b4:	ffc5a783          	lw	a5,-4(a1)
    50b8:	1141                	addi	sp,sp,-16
    50ba:	c422                	sw	s0,8(sp)
    50bc:	c606                	sw	ra,12(sp)
    50be:	c226                	sw	s1,4(sp)
    50c0:	ffc58413          	addi	s0,a1,-4
    50c4:	0007d363          	bgez	a5,50ca <_free_r+0x18>
    50c8:	943e                	add	s0,s0,a5
    50ca:	84aa                	mv	s1,a0
    50cc:	26c5                	jal	54ac <__malloc_lock>
    50ce:	84418793          	addi	a5,gp,-1980 # 200000fc <__malloc_free_list>
    50d2:	439c                	lw	a5,0(a5)
    50d4:	eb99                	bnez	a5,50ea <_free_r+0x38>
    50d6:	00042223          	sw	zero,4(s0)
    50da:	8481a223          	sw	s0,-1980(gp) # 200000fc <__malloc_free_list>
    50de:	4422                	lw	s0,8(sp)
    50e0:	40b2                	lw	ra,12(sp)
    50e2:	8526                	mv	a0,s1
    50e4:	4492                	lw	s1,4(sp)
    50e6:	0141                	addi	sp,sp,16
    50e8:	a6d9                	j	54ae <__malloc_unlock>
    50ea:	00f47e63          	bgeu	s0,a5,5106 <_free_r+0x54>
    50ee:	4014                	lw	a3,0(s0)
    50f0:	00d40733          	add	a4,s0,a3
    50f4:	00e79663          	bne	a5,a4,5100 <_free_r+0x4e>
    50f8:	4398                	lw	a4,0(a5)
    50fa:	43dc                	lw	a5,4(a5)
    50fc:	9736                	add	a4,a4,a3
    50fe:	c018                	sw	a4,0(s0)
    5100:	c05c                	sw	a5,4(s0)
    5102:	bfe1                	j	50da <_free_r+0x28>
    5104:	87ba                	mv	a5,a4
    5106:	43d8                	lw	a4,4(a5)
    5108:	c319                	beqz	a4,510e <_free_r+0x5c>
    510a:	fee47de3          	bgeu	s0,a4,5104 <_free_r+0x52>
    510e:	4394                	lw	a3,0(a5)
    5110:	00d78633          	add	a2,a5,a3
    5114:	00861f63          	bne	a2,s0,5132 <_free_r+0x80>
    5118:	4010                	lw	a2,0(s0)
    511a:	96b2                	add	a3,a3,a2
    511c:	c394                	sw	a3,0(a5)
    511e:	00d78633          	add	a2,a5,a3
    5122:	fac71ee3          	bne	a4,a2,50de <_free_r+0x2c>
    5126:	4310                	lw	a2,0(a4)
    5128:	4358                	lw	a4,4(a4)
    512a:	96b2                	add	a3,a3,a2
    512c:	c394                	sw	a3,0(a5)
    512e:	c3d8                	sw	a4,4(a5)
    5130:	b77d                	j	50de <_free_r+0x2c>
    5132:	00c47563          	bgeu	s0,a2,513c <_free_r+0x8a>
    5136:	47b1                	li	a5,12
    5138:	c09c                	sw	a5,0(s1)
    513a:	b755                	j	50de <_free_r+0x2c>
    513c:	4010                	lw	a2,0(s0)
    513e:	00c406b3          	add	a3,s0,a2
    5142:	00d71663          	bne	a4,a3,514e <_free_r+0x9c>
    5146:	4314                	lw	a3,0(a4)
    5148:	4358                	lw	a4,4(a4)
    514a:	96b2                	add	a3,a3,a2
    514c:	c014                	sw	a3,0(s0)
    514e:	c058                	sw	a4,4(s0)
    5150:	c3c0                	sw	s0,4(a5)
    5152:	b771                	j	50de <_free_r+0x2c>
    5154:	8082                	ret

00005156 <_malloc_r>:
_malloc_r():
    5156:	1101                	addi	sp,sp,-32
    5158:	ca26                	sw	s1,20(sp)
    515a:	00358493          	addi	s1,a1,3
    515e:	98f1                	andi	s1,s1,-4
    5160:	ce06                	sw	ra,28(sp)
    5162:	cc22                	sw	s0,24(sp)
    5164:	c84a                	sw	s2,16(sp)
    5166:	c64e                	sw	s3,12(sp)
    5168:	04a1                	addi	s1,s1,8
    516a:	47b1                	li	a5,12
    516c:	04f4f163          	bgeu	s1,a5,51ae <_malloc_r+0x58>
    5170:	44b1                	li	s1,12
    5172:	04b4e063          	bltu	s1,a1,51b2 <_malloc_r+0x5c>
    5176:	892a                	mv	s2,a0
    5178:	2e15                	jal	54ac <__malloc_lock>
    517a:	84418793          	addi	a5,gp,-1980 # 200000fc <__malloc_free_list>
    517e:	4398                	lw	a4,0(a5)
    5180:	843a                	mv	s0,a4
    5182:	e031                	bnez	s0,51c6 <_malloc_r+0x70>
    5184:	84818793          	addi	a5,gp,-1976 # 20000100 <__malloc_sbrk_start>
    5188:	439c                	lw	a5,0(a5)
    518a:	e791                	bnez	a5,5196 <_malloc_r+0x40>
    518c:	4581                	li	a1,0
    518e:	854a                	mv	a0,s2
    5190:	2851                	jal	5224 <_sbrk_r>
    5192:	84a1a423          	sw	a0,-1976(gp) # 20000100 <__malloc_sbrk_start>
    5196:	85a6                	mv	a1,s1
    5198:	854a                	mv	a0,s2
    519a:	2069                	jal	5224 <_sbrk_r>
    519c:	59fd                	li	s3,-1
    519e:	07351763          	bne	a0,s3,520c <_malloc_r+0xb6>
    51a2:	47b1                	li	a5,12
    51a4:	00f92023          	sw	a5,0(s2)
    51a8:	854a                	mv	a0,s2
    51aa:	2611                	jal	54ae <__malloc_unlock>
    51ac:	a029                	j	51b6 <_malloc_r+0x60>
    51ae:	fc04d2e3          	bgez	s1,5172 <_malloc_r+0x1c>
    51b2:	47b1                	li	a5,12
    51b4:	c11c                	sw	a5,0(a0)
    51b6:	4501                	li	a0,0
    51b8:	40f2                	lw	ra,28(sp)
    51ba:	4462                	lw	s0,24(sp)
    51bc:	44d2                	lw	s1,20(sp)
    51be:	4942                	lw	s2,16(sp)
    51c0:	49b2                	lw	s3,12(sp)
    51c2:	6105                	addi	sp,sp,32
    51c4:	8082                	ret
    51c6:	401c                	lw	a5,0(s0)
    51c8:	8f85                	sub	a5,a5,s1
    51ca:	0207ce63          	bltz	a5,5206 <_malloc_r+0xb0>
    51ce:	46ad                	li	a3,11
    51d0:	00f6f663          	bgeu	a3,a5,51dc <_malloc_r+0x86>
    51d4:	c01c                	sw	a5,0(s0)
    51d6:	943e                	add	s0,s0,a5
    51d8:	c004                	sw	s1,0(s0)
    51da:	a031                	j	51e6 <_malloc_r+0x90>
    51dc:	405c                	lw	a5,4(s0)
    51de:	02871263          	bne	a4,s0,5202 <_malloc_r+0xac>
    51e2:	84f1a223          	sw	a5,-1980(gp) # 200000fc <__malloc_free_list>
    51e6:	854a                	mv	a0,s2
    51e8:	24d9                	jal	54ae <__malloc_unlock>
    51ea:	00b40513          	addi	a0,s0,11
    51ee:	00440793          	addi	a5,s0,4
    51f2:	9961                	andi	a0,a0,-8
    51f4:	40f50733          	sub	a4,a0,a5
    51f8:	d361                	beqz	a4,51b8 <_malloc_r+0x62>
    51fa:	943a                	add	s0,s0,a4
    51fc:	8f89                	sub	a5,a5,a0
    51fe:	c01c                	sw	a5,0(s0)
    5200:	bf65                	j	51b8 <_malloc_r+0x62>
    5202:	c35c                	sw	a5,4(a4)
    5204:	b7cd                	j	51e6 <_malloc_r+0x90>
    5206:	8722                	mv	a4,s0
    5208:	4040                	lw	s0,4(s0)
    520a:	bfa5                	j	5182 <_malloc_r+0x2c>
    520c:	00350413          	addi	s0,a0,3
    5210:	9871                	andi	s0,s0,-4
    5212:	fc8503e3          	beq	a0,s0,51d8 <_malloc_r+0x82>
    5216:	40a405b3          	sub	a1,s0,a0
    521a:	854a                	mv	a0,s2
    521c:	2021                	jal	5224 <_sbrk_r>
    521e:	fb351de3          	bne	a0,s3,51d8 <_malloc_r+0x82>
    5222:	b741                	j	51a2 <_malloc_r+0x4c>

00005224 <_sbrk_r>:
_sbrk_r():
    5224:	1141                	addi	sp,sp,-16
    5226:	c422                	sw	s0,8(sp)
    5228:	842a                	mv	s0,a0
    522a:	852e                	mv	a0,a1
    522c:	1fffd797          	auipc	a5,0x1fffd
    5230:	4607a823          	sw	zero,1136(a5) # 2000269c <errno>
    5234:	c606                	sw	ra,12(sp)
    5236:	2e39                	jal	5554 <_sbrk>
    5238:	57fd                	li	a5,-1
    523a:	00f51963          	bne	a0,a5,524c <_sbrk_r+0x28>
    523e:	1fffd797          	auipc	a5,0x1fffd
    5242:	45e78793          	addi	a5,a5,1118 # 2000269c <errno>
    5246:	439c                	lw	a5,0(a5)
    5248:	c391                	beqz	a5,524c <_sbrk_r+0x28>
    524a:	c01c                	sw	a5,0(s0)
    524c:	40b2                	lw	ra,12(sp)
    524e:	4422                	lw	s0,8(sp)
    5250:	0141                	addi	sp,sp,16
    5252:	8082                	ret

00005254 <_raise_r>:
_raise_r():
    5254:	47fd                	li	a5,31
    5256:	00b7f663          	bgeu	a5,a1,5262 <_raise_r+0xe>
    525a:	47d9                	li	a5,22
    525c:	c11c                	sw	a5,0(a0)
    525e:	557d                	li	a0,-1
    5260:	8082                	ret
    5262:	417c                	lw	a5,68(a0)
    5264:	1101                	addi	sp,sp,-32
    5266:	cc22                	sw	s0,24(sp)
    5268:	ce06                	sw	ra,28(sp)
    526a:	862e                	mv	a2,a1
    526c:	842a                	mv	s0,a0
    526e:	c791                	beqz	a5,527a <_raise_r+0x26>
    5270:	00259713          	slli	a4,a1,0x2
    5274:	97ba                	add	a5,a5,a4
    5276:	4398                	lw	a4,0(a5)
    5278:	eb19                	bnez	a4,528e <_raise_r+0x3a>
    527a:	8522                	mv	a0,s0
    527c:	c632                	sw	a2,12(sp)
    527e:	289d                	jal	52f4 <_getpid_r>
    5280:	85aa                	mv	a1,a0
    5282:	8522                	mv	a0,s0
    5284:	4462                	lw	s0,24(sp)
    5286:	4632                	lw	a2,12(sp)
    5288:	40f2                	lw	ra,28(sp)
    528a:	6105                	addi	sp,sp,32
    528c:	a81d                	j	52c2 <_kill_r>
    528e:	4685                	li	a3,1
    5290:	4501                	li	a0,0
    5292:	00d70863          	beq	a4,a3,52a2 <_raise_r+0x4e>
    5296:	56fd                	li	a3,-1
    5298:	00d71963          	bne	a4,a3,52aa <_raise_r+0x56>
    529c:	47d9                	li	a5,22
    529e:	c01c                	sw	a5,0(s0)
    52a0:	4505                	li	a0,1
    52a2:	40f2                	lw	ra,28(sp)
    52a4:	4462                	lw	s0,24(sp)
    52a6:	6105                	addi	sp,sp,32
    52a8:	8082                	ret
    52aa:	852e                	mv	a0,a1
    52ac:	0007a023          	sw	zero,0(a5)
    52b0:	9702                	jalr	a4
    52b2:	4501                	li	a0,0
    52b4:	b7fd                	j	52a2 <_raise_r+0x4e>

000052b6 <raise>:
raise():
    52b6:	80c18793          	addi	a5,gp,-2036 # 200000c4 <_impure_ptr>
    52ba:	85aa                	mv	a1,a0
    52bc:	4388                	lw	a0,0(a5)
    52be:	f97ff06f          	j	5254 <_raise_r>

000052c2 <_kill_r>:
_kill_r():
    52c2:	1141                	addi	sp,sp,-16
    52c4:	c422                	sw	s0,8(sp)
    52c6:	842a                	mv	s0,a0
    52c8:	852e                	mv	a0,a1
    52ca:	85b2                	mv	a1,a2
    52cc:	1fffd797          	auipc	a5,0x1fffd
    52d0:	3c07a823          	sw	zero,976(a5) # 2000269c <errno>
    52d4:	c606                	sw	ra,12(sp)
    52d6:	24b9                	jal	5524 <_kill>
    52d8:	57fd                	li	a5,-1
    52da:	00f51963          	bne	a0,a5,52ec <_kill_r+0x2a>
    52de:	1fffd797          	auipc	a5,0x1fffd
    52e2:	3be78793          	addi	a5,a5,958 # 2000269c <errno>
    52e6:	439c                	lw	a5,0(a5)
    52e8:	c391                	beqz	a5,52ec <_kill_r+0x2a>
    52ea:	c01c                	sw	a5,0(s0)
    52ec:	40b2                	lw	ra,12(sp)
    52ee:	4422                	lw	s0,8(sp)
    52f0:	0141                	addi	sp,sp,16
    52f2:	8082                	ret

000052f4 <_getpid_r>:
_getpid_r():
    52f4:	ac01                	j	5504 <_getpid>

000052f6 <__sread>:
__sread():
    52f6:	1141                	addi	sp,sp,-16
    52f8:	c422                	sw	s0,8(sp)
    52fa:	842e                	mv	s0,a1
    52fc:	00e59583          	lh	a1,14(a1)
    5300:	c606                	sw	ra,12(sp)
    5302:	227d                	jal	54b0 <_read_r>
    5304:	00054963          	bltz	a0,5316 <__sread+0x20>
    5308:	487c                	lw	a5,84(s0)
    530a:	97aa                	add	a5,a5,a0
    530c:	c87c                	sw	a5,84(s0)
    530e:	40b2                	lw	ra,12(sp)
    5310:	4422                	lw	s0,8(sp)
    5312:	0141                	addi	sp,sp,16
    5314:	8082                	ret
    5316:	00c45783          	lhu	a5,12(s0)
    531a:	777d                	lui	a4,0xfffff
    531c:	177d                	addi	a4,a4,-1
    531e:	8ff9                	and	a5,a5,a4
    5320:	00f41623          	sh	a5,12(s0)
    5324:	b7ed                	j	530e <__sread+0x18>

00005326 <__swrite>:
__swrite():
    5326:	00c5d783          	lhu	a5,12(a1)
    532a:	1101                	addi	sp,sp,-32
    532c:	cc22                	sw	s0,24(sp)
    532e:	ca26                	sw	s1,20(sp)
    5330:	c84a                	sw	s2,16(sp)
    5332:	c64e                	sw	s3,12(sp)
    5334:	ce06                	sw	ra,28(sp)
    5336:	1007f793          	andi	a5,a5,256
    533a:	84aa                	mv	s1,a0
    533c:	842e                	mv	s0,a1
    533e:	8932                	mv	s2,a2
    5340:	89b6                	mv	s3,a3
    5342:	c791                	beqz	a5,534e <__swrite+0x28>
    5344:	00e59583          	lh	a1,14(a1)
    5348:	4689                	li	a3,2
    534a:	4601                	li	a2,0
    534c:	2235                	jal	5478 <_lseek_r>
    534e:	00c45783          	lhu	a5,12(s0)
    5352:	777d                	lui	a4,0xfffff
    5354:	177d                	addi	a4,a4,-1
    5356:	8ff9                	and	a5,a5,a4
    5358:	00f41623          	sh	a5,12(s0)
    535c:	00e41583          	lh	a1,14(s0)
    5360:	4462                	lw	s0,24(sp)
    5362:	40f2                	lw	ra,28(sp)
    5364:	86ce                	mv	a3,s3
    5366:	864a                	mv	a2,s2
    5368:	49b2                	lw	s3,12(sp)
    536a:	4942                	lw	s2,16(sp)
    536c:	8526                	mv	a0,s1
    536e:	44d2                	lw	s1,20(sp)
    5370:	6105                	addi	sp,sp,32
    5372:	a83d                	j	53b0 <_write_r>

00005374 <__sseek>:
__sseek():
    5374:	1141                	addi	sp,sp,-16
    5376:	c422                	sw	s0,8(sp)
    5378:	842e                	mv	s0,a1
    537a:	00e59583          	lh	a1,14(a1)
    537e:	c606                	sw	ra,12(sp)
    5380:	28e5                	jal	5478 <_lseek_r>
    5382:	57fd                	li	a5,-1
    5384:	00c45703          	lhu	a4,12(s0)
    5388:	00f51b63          	bne	a0,a5,539e <__sseek+0x2a>
    538c:	77fd                	lui	a5,0xfffff
    538e:	17fd                	addi	a5,a5,-1
    5390:	8ff9                	and	a5,a5,a4
    5392:	00f41623          	sh	a5,12(s0)
    5396:	40b2                	lw	ra,12(sp)
    5398:	4422                	lw	s0,8(sp)
    539a:	0141                	addi	sp,sp,16
    539c:	8082                	ret
    539e:	6785                	lui	a5,0x1
    53a0:	8fd9                	or	a5,a5,a4
    53a2:	00f41623          	sh	a5,12(s0)
    53a6:	c868                	sw	a0,84(s0)
    53a8:	b7fd                	j	5396 <__sseek+0x22>

000053aa <__sclose>:
__sclose():
    53aa:	00e59583          	lh	a1,14(a1)
    53ae:	a825                	j	53e6 <_close_r>

000053b0 <_write_r>:
_write_r():
    53b0:	1141                	addi	sp,sp,-16
    53b2:	c422                	sw	s0,8(sp)
    53b4:	842a                	mv	s0,a0
    53b6:	852e                	mv	a0,a1
    53b8:	85b2                	mv	a1,a2
    53ba:	8636                	mv	a2,a3
    53bc:	1fffd797          	auipc	a5,0x1fffd
    53c0:	2e07a023          	sw	zero,736(a5) # 2000269c <errno>
    53c4:	c606                	sw	ra,12(sp)
    53c6:	edcfe0ef          	jal	ra,3aa2 <_write>
    53ca:	57fd                	li	a5,-1
    53cc:	00f51963          	bne	a0,a5,53de <_write_r+0x2e>
    53d0:	1fffd797          	auipc	a5,0x1fffd
    53d4:	2cc78793          	addi	a5,a5,716 # 2000269c <errno>
    53d8:	439c                	lw	a5,0(a5)
    53da:	c391                	beqz	a5,53de <_write_r+0x2e>
    53dc:	c01c                	sw	a5,0(s0)
    53de:	40b2                	lw	ra,12(sp)
    53e0:	4422                	lw	s0,8(sp)
    53e2:	0141                	addi	sp,sp,16
    53e4:	8082                	ret

000053e6 <_close_r>:
_close_r():
    53e6:	1141                	addi	sp,sp,-16
    53e8:	c422                	sw	s0,8(sp)
    53ea:	842a                	mv	s0,a0
    53ec:	852e                	mv	a0,a1
    53ee:	1fffd797          	auipc	a5,0x1fffd
    53f2:	2a07a723          	sw	zero,686(a5) # 2000269c <errno>
    53f6:	c606                	sw	ra,12(sp)
    53f8:	20f5                	jal	54e4 <_close>
    53fa:	57fd                	li	a5,-1
    53fc:	00f51963          	bne	a0,a5,540e <_close_r+0x28>
    5400:	1fffd797          	auipc	a5,0x1fffd
    5404:	29c78793          	addi	a5,a5,668 # 2000269c <errno>
    5408:	439c                	lw	a5,0(a5)
    540a:	c391                	beqz	a5,540e <_close_r+0x28>
    540c:	c01c                	sw	a5,0(s0)
    540e:	40b2                	lw	ra,12(sp)
    5410:	4422                	lw	s0,8(sp)
    5412:	0141                	addi	sp,sp,16
    5414:	8082                	ret

00005416 <_fstat_r>:
_fstat_r():
    5416:	1141                	addi	sp,sp,-16
    5418:	c422                	sw	s0,8(sp)
    541a:	842a                	mv	s0,a0
    541c:	852e                	mv	a0,a1
    541e:	85b2                	mv	a1,a2
    5420:	1fffd797          	auipc	a5,0x1fffd
    5424:	2607ae23          	sw	zero,636(a5) # 2000269c <errno>
    5428:	c606                	sw	ra,12(sp)
    542a:	20e9                	jal	54f4 <_fstat>
    542c:	57fd                	li	a5,-1
    542e:	00f51963          	bne	a0,a5,5440 <_fstat_r+0x2a>
    5432:	1fffd797          	auipc	a5,0x1fffd
    5436:	26a78793          	addi	a5,a5,618 # 2000269c <errno>
    543a:	439c                	lw	a5,0(a5)
    543c:	c391                	beqz	a5,5440 <_fstat_r+0x2a>
    543e:	c01c                	sw	a5,0(s0)
    5440:	40b2                	lw	ra,12(sp)
    5442:	4422                	lw	s0,8(sp)
    5444:	0141                	addi	sp,sp,16
    5446:	8082                	ret

00005448 <_isatty_r>:
_isatty_r():
    5448:	1141                	addi	sp,sp,-16
    544a:	c422                	sw	s0,8(sp)
    544c:	842a                	mv	s0,a0
    544e:	852e                	mv	a0,a1
    5450:	1fffd797          	auipc	a5,0x1fffd
    5454:	2407a623          	sw	zero,588(a5) # 2000269c <errno>
    5458:	c606                	sw	ra,12(sp)
    545a:	286d                	jal	5514 <_isatty>
    545c:	57fd                	li	a5,-1
    545e:	00f51963          	bne	a0,a5,5470 <_isatty_r+0x28>
    5462:	1fffd797          	auipc	a5,0x1fffd
    5466:	23a78793          	addi	a5,a5,570 # 2000269c <errno>
    546a:	439c                	lw	a5,0(a5)
    546c:	c391                	beqz	a5,5470 <_isatty_r+0x28>
    546e:	c01c                	sw	a5,0(s0)
    5470:	40b2                	lw	ra,12(sp)
    5472:	4422                	lw	s0,8(sp)
    5474:	0141                	addi	sp,sp,16
    5476:	8082                	ret

00005478 <_lseek_r>:
_lseek_r():
    5478:	1141                	addi	sp,sp,-16
    547a:	c422                	sw	s0,8(sp)
    547c:	842a                	mv	s0,a0
    547e:	852e                	mv	a0,a1
    5480:	85b2                	mv	a1,a2
    5482:	8636                	mv	a2,a3
    5484:	1fffd797          	auipc	a5,0x1fffd
    5488:	2007ac23          	sw	zero,536(a5) # 2000269c <errno>
    548c:	c606                	sw	ra,12(sp)
    548e:	205d                	jal	5534 <_lseek>
    5490:	57fd                	li	a5,-1
    5492:	00f51963          	bne	a0,a5,54a4 <_lseek_r+0x2c>
    5496:	1fffd797          	auipc	a5,0x1fffd
    549a:	20678793          	addi	a5,a5,518 # 2000269c <errno>
    549e:	439c                	lw	a5,0(a5)
    54a0:	c391                	beqz	a5,54a4 <_lseek_r+0x2c>
    54a2:	c01c                	sw	a5,0(s0)
    54a4:	40b2                	lw	ra,12(sp)
    54a6:	4422                	lw	s0,8(sp)
    54a8:	0141                	addi	sp,sp,16
    54aa:	8082                	ret

000054ac <__malloc_lock>:
__malloc_lock():
    54ac:	8082                	ret

000054ae <__malloc_unlock>:
__malloc_unlock():
    54ae:	8082                	ret

000054b0 <_read_r>:
_read_r():
    54b0:	1141                	addi	sp,sp,-16
    54b2:	c422                	sw	s0,8(sp)
    54b4:	842a                	mv	s0,a0
    54b6:	852e                	mv	a0,a1
    54b8:	85b2                	mv	a1,a2
    54ba:	8636                	mv	a2,a3
    54bc:	1fffd797          	auipc	a5,0x1fffd
    54c0:	1e07a023          	sw	zero,480(a5) # 2000269c <errno>
    54c4:	c606                	sw	ra,12(sp)
    54c6:	28bd                	jal	5544 <_read>
    54c8:	57fd                	li	a5,-1
    54ca:	00f51963          	bne	a0,a5,54dc <_read_r+0x2c>
    54ce:	1fffd797          	auipc	a5,0x1fffd
    54d2:	1ce78793          	addi	a5,a5,462 # 2000269c <errno>
    54d6:	439c                	lw	a5,0(a5)
    54d8:	c391                	beqz	a5,54dc <_read_r+0x2c>
    54da:	c01c                	sw	a5,0(s0)
    54dc:	40b2                	lw	ra,12(sp)
    54de:	4422                	lw	s0,8(sp)
    54e0:	0141                	addi	sp,sp,16
    54e2:	8082                	ret

000054e4 <_close>:
_close():
    54e4:	05800793          	li	a5,88
    54e8:	1fffd717          	auipc	a4,0x1fffd
    54ec:	1af72a23          	sw	a5,436(a4) # 2000269c <errno>
    54f0:	557d                	li	a0,-1
    54f2:	8082                	ret

000054f4 <_fstat>:
_fstat():
    54f4:	05800793          	li	a5,88
    54f8:	1fffd717          	auipc	a4,0x1fffd
    54fc:	1af72223          	sw	a5,420(a4) # 2000269c <errno>
    5500:	557d                	li	a0,-1
    5502:	8082                	ret

00005504 <_getpid>:
_getpid():
    5504:	05800793          	li	a5,88
    5508:	1fffd717          	auipc	a4,0x1fffd
    550c:	18f72a23          	sw	a5,404(a4) # 2000269c <errno>
    5510:	557d                	li	a0,-1
    5512:	8082                	ret

00005514 <_isatty>:
_isatty():
    5514:	05800793          	li	a5,88
    5518:	1fffd717          	auipc	a4,0x1fffd
    551c:	18f72223          	sw	a5,388(a4) # 2000269c <errno>
    5520:	4501                	li	a0,0
    5522:	8082                	ret

00005524 <_kill>:
_kill():
    5524:	05800793          	li	a5,88
    5528:	1fffd717          	auipc	a4,0x1fffd
    552c:	16f72a23          	sw	a5,372(a4) # 2000269c <errno>
    5530:	557d                	li	a0,-1
    5532:	8082                	ret

00005534 <_lseek>:
_lseek():
    5534:	05800793          	li	a5,88
    5538:	1fffd717          	auipc	a4,0x1fffd
    553c:	16f72223          	sw	a5,356(a4) # 2000269c <errno>
    5540:	557d                	li	a0,-1
    5542:	8082                	ret

00005544 <_read>:
_read():
    5544:	05800793          	li	a5,88
    5548:	1fffd717          	auipc	a4,0x1fffd
    554c:	14f72a23          	sw	a5,340(a4) # 2000269c <errno>
    5550:	557d                	li	a0,-1
    5552:	8082                	ret

00005554 <_sbrk>:
_sbrk():
    5554:	84c18793          	addi	a5,gp,-1972 # 20000104 <heap_end.1518>
    5558:	439c                	lw	a5,0(a5)
    555a:	c791                	beqz	a5,5566 <_sbrk+0x12>
    555c:	953e                	add	a0,a0,a5
    555e:	84a1a623          	sw	a0,-1972(gp) # 20000104 <heap_end.1518>
    5562:	853e                	mv	a0,a5
    5564:	8082                	ret
    5566:	1fffd797          	auipc	a5,0x1fffd
    556a:	13a78793          	addi	a5,a5,314 # 200026a0 <_ebss>
    556e:	953e                	add	a0,a0,a5
    5570:	84a1a623          	sw	a0,-1972(gp) # 20000104 <heap_end.1518>
    5574:	853e                	mv	a0,a5
    5576:	8082                	ret

00005578 <_exit>:
_exit():
    5578:	a001                	j	5578 <_exit>
    557a:	0000                	unimp
    557c:	736d                	lui	t1,0xffffb
    557e:	0000                	unimp
    5580:	2e2e                	fld	ft8,200(sp)
    5582:	62694c2f          	0x62694c2f
    5586:	6172                	flw	ft2,28(sp)
    5588:	6972                	flw	fs2,28(sp)
    558a:	7365                	lui	t1,0xffff9
    558c:	6565732f          	0x6565732f
    5590:	6572666b          	0x6572666b
    5594:	5f65                	li	t5,-7
    5596:	696c                	flw	fa1,84(a0)
    5598:	7262                	flw	ft4,56(sp)
    559a:	7261                	lui	tp,0xffff8
    559c:	6569                	lui	a0,0x1a
    559e:	667a2f73          	csrrs	t5,0x667,s4
    55a2:	705f 7469 632e      	0x632e7469705f
    55a8:	0000                	unimp
    55aa:	0000                	unimp
    55ac:	7375                	lui	t1,0xffffd
	...

000055b0 <GPION>:
    55b0:	0800 4001 0c00 4001 1000 4001 1400 4001     ...@...@...@...@

000055c0 <__func__.3548>:
    55c0:	6974 656d 5f72 6970 5f74 6e69 6574 7272     timer_pit_interr
    55d0:	7075 5f74 736d 0000                         upt_ms..

000055d8 <TIMERN>:
    55d8:	2c00 4001 0000 4000 0400 4000 0800 4000     .,.@...@...@...@

000055e8 <UARTN>:
    55e8:	3800 4001 4400 4000 4800 4000 4c00 4000     .8.@.D.@.H.@.L.@
    55f8:	3ec0 0000 3f48 0000 3ffa 0000 413c 0000     .>..H?...?..<A..
    5608:	4252 0000 41c2 0000 202c 7566 636e 6974     RB...A.., functi
    5618:	6e6f 203a 0000 0000 7361 6573 7472 6f69     on: ....assertio
    5628:	206e 2522 2273 6620 6961 656c 3a64 6620     n "%s" failed: f
    5638:	6c69 2065 2522 2273 202c 696c 656e 2520     ile "%s", line %
    5648:	2564 2573 0a73 0000 2d23 2b30 0020 0000     d%s%s...#-0+ ...
    5658:	6c68 004c 6665 4567 4746 0000 3130 3332     hlL.efgEFG..0123
    5668:	3534 3736 3938 4241 4443 4645 0000 0000     456789ABCDEF....
    5678:	3130 3332 3534 3736 3938 6261 6463 6665     0123456789abcdef
    5688:	0000 0000                                   ....

0000568c <__sf_fake_stderr>:
	...

000056ac <__sf_fake_stdin>:
	...

000056cc <__sf_fake_stdout>:
	...
