
slave_school.elf:     file format elf32-littleriscv
slave_school.elf
architecture: riscv:rv32, flags 0x00000112:
EXEC_P, HAS_SYMS, D_PAGED
start address 0x00000000

Program Header:
    LOAD off    0x00001000 vaddr 0x00000000 paddr 0x00000000 align 2**12
         filesz 0x000057c4 memsz 0x000057c4 flags r-x
    LOAD off    0x00007000 vaddr 0x20000000 paddr 0x000057c4 align 2**12
         filesz 0x000000d0 memsz 0x000026a4 flags rw-
    LOAD off    0x00007800 vaddr 0x20004800 paddr 0x20004800 align 2**12
         filesz 0x00000000 memsz 0x00000800 flags rw-

Sections:
Idx Name           Size      VMA       LMA       File off  Algn  Flags
  0 .init          00000038  00000000  00000000  00001000  2**1  CONTENTS, ALLOC, LOAD, READONLY, CODE
  1 .vector        00000108  00000038  00000038  00001038  2**1  CONTENTS, ALLOC, LOAD, READONLY, CODE
  2 .text          00005684  00000140  00000140  00001140  2**2  CONTENTS, ALLOC, LOAD, READONLY, CODE
  3 .fini          00000000  000057c4  000057c4  000070d0  2**0  CONTENTS, ALLOC, LOAD, CODE
  4 .dalign        00000000  20000000  20000000  000070d0  2**0  CONTENTS
  5 .dlalign       00000000  000057c4  000057c4  000070d0  2**0  CONTENTS
  6 .data          000000d0  20000000  000057c4  00007000  2**2  CONTENTS, ALLOC, LOAD, DATA
  7 .bss           000025d4  200000d0  00005894  000070d0  2**2  ALLOC
  8 .stack         00000800  20004800  20004800  00007800  2**0  ALLOC
  9 .debug_info    0001373e  00000000  00000000  000070d0  2**0  CONTENTS, READONLY, DEBUGGING
 10 .debug_abbrev  0000329d  00000000  00000000  0001a80e  2**0  CONTENTS, READONLY, DEBUGGING
 11 .debug_aranges 00000b58  00000000  00000000  0001dab0  2**3  CONTENTS, READONLY, DEBUGGING
 12 .debug_ranges  000009e8  00000000  00000000  0001e608  2**3  CONTENTS, READONLY, DEBUGGING
 13 .debug_line    0000b151  00000000  00000000  0001eff0  2**0  CONTENTS, READONLY, DEBUGGING
 14 .debug_str     00003895  00000000  00000000  0002a141  2**0  CONTENTS, READONLY, DEBUGGING
 15 .comment       00000033  00000000  00000000  0002d9d6  2**0  CONTENTS, READONLY
 16 .debug_frame   00003230  00000000  00000000  0002da0c  2**2  CONTENTS, READONLY, DEBUGGING
 17 .stab          000000b4  00000000  00000000  00030c3c  2**2  CONTENTS, READONLY, DEBUGGING
 18 .stabstr       00000183  00000000  00000000  00030cf0  2**0  CONTENTS, READONLY, DEBUGGING
SYMBOL TABLE:
00000000 l    d  .init	00000000 .init
00000038 l    d  .vector	00000000 .vector
00000140 l    d  .text	00000000 .text
000057c4 l    d  .fini	00000000 .fini
20000000 l    d  .dalign	00000000 .dalign
000057c4 l    d  .dlalign	00000000 .dlalign
20000000 l    d  .data	00000000 .data
200000d0 l    d  .bss	00000000 .bss
20004800 l    d  .stack	00000000 .stack
00000000 l    d  .debug_info	00000000 .debug_info
00000000 l    d  .debug_abbrev	00000000 .debug_abbrev
00000000 l    d  .debug_aranges	00000000 .debug_aranges
00000000 l    d  .debug_ranges	00000000 .debug_ranges
00000000 l    d  .debug_line	00000000 .debug_line
00000000 l    d  .debug_str	00000000 .debug_str
00000000 l    d  .comment	00000000 .comment
00000000 l    d  .debug_frame	00000000 .debug_frame
00000000 l    d  .stab	00000000 .stab
00000000 l    d  .stabstr	00000000 .stabstr
00000000 l    df *ABS*	00000000 ./Libraries/wch_libraries/Startup/startup_ch32v10x.o
00000038 l       .vector	00000000 _vector_base
00000000 l    df *ABS*	00000000 isr.c
00000000 l    df *ABS*	00000000 main.c
00000000 l    df *ABS*	00000000 ch32v10x_dma.c
00000000 l    df *ABS*	00000000 ch32v10x_exti.c
00000000 l    df *ABS*	00000000 ch32v10x_gpio.c
00000000 l    df *ABS*	00000000 ch32v10x_misc.c
00001830 l     F .text	00000032 NVIC_EnableIRQ
00001862 l     F .text	00000032 NVIC_DisableIRQ
00001894 l     F .text	0000002a NVIC_SetPriority
00000000 l    df *ABS*	00000000 ch32v10x_rcc.c
20000000 l     O .data	00000010 APBAHBPrescTable
200000bc l     O .data	00000004 ADCPrescTable
00000000 l    df *ABS*	00000000 ch32v10x_tim.c
00000000 l    df *ABS*	00000000 ch32v10x_usart.c
00000000 l    df *ABS*	00000000 SEEKFREE_MT9V03X.c
00000000 l    df *ABS*	00000000 SEEKFREE_UART_7725.c
00000000 l    df *ABS*	00000000 zf_camera.c
00000000 l    df *ABS*	00000000 zf_gpio.c
00000000 l    df *ABS*	00000000 zf_nvic.c
00000000 l    df *ABS*	00000000 zf_pit.c
00005698 l     O .text	00000017 __func__.3548
00000000 l    df *ABS*	00000000 zf_qtimer.c
00000000 l    df *ABS*	00000000 zf_systick.c
00000000 l    df *ABS*	00000000 zf_uart.c
00000000 l    df *ABS*	00000000 board.c
00000000 l    df *ABS*	00000000 clock_config.c
00003bf4 l     F .text	00000140 SetSysClock
00000000 l    df *ABS*	00000000 multi_button.c
200000f8 l     O .bss	00000004 head_handle
00000000 l    df *ABS*	00000000 assert.c
00000000 l    df *ABS*	00000000 fprintf.c
00000000 l    df *ABS*	00000000 nano-vfprintf.c
00004416 l     F .text	00000028 __sfputc_r
00000000 l    df *ABS*	00000000 nano-vfprintf_i.c
00000000 l    df *ABS*	00000000 wbuf.c
00000000 l    df *ABS*	00000000 wsetup.c
00000000 l    df *ABS*	00000000 abort.c
00000000 l    df *ABS*	00000000 fflush.c
00000000 l    df *ABS*	00000000 findfp.c
00004e4a l     F .text	0000006a std
00000000 l    df *ABS*	00000000 fwalk.c
00000000 l    df *ABS*	00000000 makebuf.c
00000000 l    df *ABS*	00000000 memchr.c
00000000 l    df *ABS*	00000000 nano-mallocr.c
00000000 l    df *ABS*	00000000 nano-mallocr.c
00000000 l    df *ABS*	00000000 sbrkr.c
00000000 l    df *ABS*	00000000 signal.c
00000000 l    df *ABS*	00000000 signalr.c
00000000 l    df *ABS*	00000000 stdio.c
00000000 l    df *ABS*	00000000 writer.c
00000000 l    df *ABS*	00000000 closer.c
00000000 l    df *ABS*	00000000 fstatr.c
00000000 l    df *ABS*	00000000 isattyr.c
00000000 l    df *ABS*	00000000 lseekr.c
00000000 l    df *ABS*	00000000 mlock.c
00000000 l    df *ABS*	00000000 readr.c
00000000 l    df *ABS*	00000000 close.c
00000000 l    df *ABS*	00000000 fstat.c
00000000 l    df *ABS*	00000000 getpid.c
00000000 l    df *ABS*	00000000 isatty.c
00000000 l    df *ABS*	00000000 kill.c
00000000 l    df *ABS*	00000000 lseek.c
00000000 l    df *ABS*	00000000 read.c
00000000 l    df *ABS*	00000000 sbrk.c
20000104 l     O .bss	00000004 heap_end.1518
00000000 l    df *ABS*	00000000 _exit.c
00000000 l    df *ABS*	00000000 impure.c
20000054 l     O .data	00000060 impure_data
00000000 l    df *ABS*	00000000 common.c
00000000 l    df *ABS*	00000000 reent.c
00001d68 g     F .text	0000003c TIM_TimeBaseStructInit
0000024e g     F .text	00000016 EXTI2_IRQHandler
000006ce g     F .text	00000646 whu
00005520 g     F .text	00000030 _isatty_r
000055dc g     F .text	00000010 _getpid
00005550 g     F .text	00000034 _lseek_r
000010ec g     F .text	00000040 DMA_Cmd
0000311c g     F .text	00000080 gpio_interrupt_init
0000539a g     F .text	00000032 _kill_r
200008b8 g       .data	00000000 __global_pointer$
00000370 g     F .text	00000090 TIM1_CC_IRQHandler
0000544c g     F .text	00000036 __sseek
00004f04 g     F .text	0000006c __sinit
00004ace g     F .text	000000c0 __swbuf_r
0000051c g     F .text	00000008 HardFault_Handler
00004ebe g     F .text	00000046 __sfmoreglue
00005586 g     F .text	00000002 __malloc_unlock
00000524 g     F .text	0000001c read_c14gpio
000018be g     F .text	000000c4 NVIC_Init
200000f0 g     O .bss	00000004 sys_clk
0000050c g     F .text	00000010 NMI_Handler
00003db2 g     F .text	000000a0 button_init
00000264 g     F .text	00000010 EXTI3_IRQHandler
200000c0 g     O .data	00000004 camera_type
00001e6c g     F .text	00000070 TIM_DMACmd
00001edc g     F .text	0000008a TIM_ETRClockMode1Config
000025da g     F .text	00000046 USART_GetFlagStatus
000054ee g     F .text	00000032 _fstat_r
000056b0 g     O .text	00000010 TIMERN
200026a0 g     O .bss	00000004 errno
200000d2 g     O .bss	00000002 slave_encoder_RB
20000034 g     O .data	00000020 GET_CFG
200000d0 g       .bss	00000000 _sbss
00000800 g       *ABS*	00000000 __stack_size
20000108 g     O .bss	0000000d temp_buff
00001044 g     F .text	000000a8 DMA_Init
200000ed g     O .bss	00000001 ov7725_uart_finish_flag
00000540 g     F .text	00000024 btn1_press_up_Handler
200001dc g     O .bss	000024b8 mt9v03x_image
00004eb4 g     F .text	0000000a _cleanup_r
00001652 g     F .text	0000013c GPIO_PinRemapConfig
000001e8 g     F .text	00000024 EXTI0_IRQHandler
00001da4 g     F .text	00000058 TIM_Cmd
20000010 g     O .data	00000024 MT9V03X_CFG
00003a96 g     F .text	00000046 uart_putbuff
200000d7 g     O .bss	00000001 tag6
0000532c g     F .text	00000062 _raise_r
000055cc g     F .text	00000010 _fstat
000043b6 g     F .text	0000003a __assert_func
00000038 g       .init	00000000 _einit
0000326a g     F .text	00000030 sys_recover_irq
00002226 g     F .text	0000002e TIM_ClearITPendingBit
00001be2 g     F .text	00000046 RCC_APB2PeriphClockCmd
00002ac8 g     F .text	00000036 mt9v03x_vsync
000002a4 g     F .text	00000010 ADC1_2_IRQHandler
000053cc g     F .text	00000002 _getpid_r
000013f0 g     F .text	0000022a GPIO_Init
0000319c g     F .text	000000ac nvic_init
200000dc g     O .bss	00000002 w
00002488 g     F .text	00000060 USART_Cmd
000052fc g     F .text	00000030 _sbrk_r
00005588 g     F .text	00000034 _read_r
00002722 g     F .text	0000004e USART_ClearITPendingBit
00001c28 g     F .text	00000046 RCC_APB1PeriphClockCmd
000055ec g     F .text	00000010 _isatty
20000118 g     O .bss	00000032 tag1
00003498 g     F .text	00000170 timer_gpio_quad_init
200000c8 g     O .data	00000004 _global_impure_ptr
000028d0 g     F .text	000000c8 get_config
00001b9c g     F .text	00000046 RCC_AHBPeriphClockCmd
000004ca g     F .text	00000042 DMA1_Channel4_IRQHandler
00004c9a g     F .text	0000000e abort
0000330e g     F .text	0000018a timer_pit_interrupt_ms
0000562c g     F .text	00000024 _sbrk
200000d6 g     O .bss	00000001 tag5
00001176 g     F .text	0000005c DMA_GetFlagStatus
000004ba g     F .text	00000010 USART3_IRQHandler
000013d0 g     F .text	00000020 EXTI_ClearITPendingBit
200026a4 g       .bss	00000000 _ebss
00002620 g     F .text	00000102 USART_GetITStatus
000037bc g     F .text	00000094 systick_delay
00002b2c g     F .text	00000070 ov7725_cof_uart_interrupt
000056c0 g     O .text	00000010 UARTN
000043f0 g     F .text	00000026 fprintf
00000676 g     F .text	00000058 TIM4_IRQHandler
0000161a g     F .text	00000038 GPIO_WriteBit
200000eb g     O .bss	00000001 ov7725_uart_receive_num
200000d9 g     O .bss	00000001 tag9
00005764 g     O .text	00000020 __sf_fake_stderr
200026a4 g       .bss	00000000 end
00003608 g     F .text	0000015c timer_quad_init
000021b6 g     F .text	00000070 TIM_GetITStatus
200000da g     O .bss	00000002 i
00003e7e g     F .text	000004b4 button_handler
00001982 g     F .text	0000021a RCC_GetClocksFreq
200000d1 g     O .bss	00000001 STA_FLAG
0000443e g     F .text	00000042 __sfputs_r
0000393c g     F .text	00000104 uart_init
00005170 g     F .text	0000001a memchr
00000564 g     F .text	0000003a get_sensor_data
00002254 g     F .text	00000234 USART_Init
0000518a g     F .text	000000a4 _free_r
000030c6 g     F .text	00000056 gpio_get
00000428 g     F .text	00000030 TIM3_IRQHandler
000032e2 g     F .text	0000002c EnableGlobalIRQ
00003850 g     F .text	000000ec uart_gpio_init
00000318 g     F .text	00000058 TIM1_TRG_COM_IRQHandler
00002bd2 g     F .text	0000002e ov7725_uart_dma
00000000 g       .init	00000000 _start
0000560c g     F .text	00000010 _lseek
200000ec g     O .bss	00000001 ov7725_uart_receive_flag
00002c00 g     F .text	0000015a camera_dma_init
00001fe2 g     F .text	0000004e TIM_SelectInputTrigger
00003248 g     F .text	00000022 close_all_irq
00000294 g     F .text	00000010 EXTI15_10_IRQHandler
00005688 g     O .text	00000010 GPION
00001dfc g     F .text	00000070 TIM_ITConfig
000024e8 g     F .text	000000c4 USART_ITConfig
0000120a g     F .text	00000170 EXTI_Init
00002998 g     F .text	0000002a mt9v03x_vsync_init
000054be g     F .text	00000030 _close_r
20000000 g       .dalign	00000000 _data_vma
000029da g     F .text	00000072 mt9v03x_dma_init
00004b8e g     F .text	0000010c __swsetup_r
00000284 g     F .text	00000010 EXTI9_5_IRQHandler
00004f70 g     F .text	0000009e __sfp
0000178e g     F .text	000000a2 GPIO_EXTILineConfig
00003b2c g     F .text	0000004c board_init
000053ce g     F .text	00000030 __sread
000027e0 g     F .text	000000f0 set_config
2000014c g     O .bss	00000032 tag2
200000d8 g     O .bss	00000001 tag7
00005584 g     F .text	00000002 __malloc_lock
00004de4 g     F .text	00000066 _fflush_r
00004332 g     F .text	00000050 button_start
0000137a g     F .text	00000056 EXTI_GetITStatus
00005784 g     O .text	00000020 __sf_fake_stdin
00002afe g     F .text	0000002e mt9v03x_dma
00000140 g     F .text	000000a8 memset
00000d14 g     F .text	000000a4 main
00002a4c g     F .text	0000007c mt9v03x_init
00005482 g     F .text	00000006 __sclose
0000522e g     F .text	000000ce _malloc_r
00000274 g     F .text	00000010 EXTI4_IRQHandler
0000329a g     F .text	00000048 DisableGlobalIRQ
200000f4 g     O .bss	00000004 camera_buffer_addr
00003d34 g     F .text	0000007e SystemInit
00000000 g       .init	00000000 _sinit
00005488 g     F .text	00000036 _write_r
200000e3 g     O .bss	00000001 receive_num
20002694 g     O .bss	0000000c irq_status
200000de g     O .bss	00000001 buflag
000029c2 g     F .text	00000018 mt9v03x_tim1_etr_init
0000471e g     F .text	0000010c _printf_common
200000c4 g     O .data	00000004 _impure_ptr
000002e8 g     F .text	00000030 TIM1_UP_IRQHandler
200000e0 g     O .bss	00000003 receive
00004ca8 g     F .text	0000013c __sflush_r
00002b9c g     F .text	00000036 ov7725_uart_vsync
00002d5a g     F .text	0000014a camera_tim_etr_init
200000b8 g     O .data	00000001 tag8
0000112c g     F .text	0000004a DMA_ITConfig
00000400 g     F .text	00000028 TIM2_IRQHandler
20005000 g       .stack	00000000 _eusrstack
200000e4 g     O .bss	00000001 uart_receive_flag
00002770 g     F .text	00000070 mt9v03x_uart_callback
200000e5 g     O .bss	00000001 mt9v03x_finish_flag
000002b4 g     F .text	00000034 TIM1_BRK_IRQHandler
0000507a g     F .text	00000058 __swhatbuf_r
000025ac g     F .text	0000002e USART_SendData
0000020c g     F .text	00000042 EXTI1_IRQHandler
0000215e g     F .text	00000058 TIM_SelectMasterSlaveMode
200001b4 g     O .bss	00000028 button1
00003b78 g     F .text	0000007c _write
200000d0 g       .data	00000000 _edata
00003e52 g     F .text	0000002c button_attach
00001c6e g     F .text	000000fa TIM_TimeBaseInit
000057c4 g       .dlalign	00000000 _data_lma
00000468 g     F .text	00000052 USART2_IRQHandler
000053fe g     F .text	0000004e __swrite
000043f0 g     F .text	00000026 fiprintf
00004480 g     F .text	0000029e _vfiprintf_r
200000d4 g     O .bss	00000002 slave_encoder_LB
0000500e g     F .text	0000006c _fwalk_reent
000055fc g     F .text	00000010 _kill
000057a4 g     O .text	00000020 __sf_fake_stdout
000011d2 g     F .text	00000038 DMA_ClearFlag
0000561c g     F .text	00000010 _read
00000db8  w      .text	00000000 handle_reset
00005650 g     F .text	00000002 _exit
0000059e g     F .text	000000d8 process_data
00003764 g     F .text	00000032 timer_quad_get
00000458 g     F .text	00000010 USART1_IRQHandler
000050d2 g     F .text	0000009e __smakebuf_r
0000482a g     F .text	000002a4 _printf_i
00001f66 g     F .text	0000007c TIM_ETRConfig
20000100 g     O .bss	00000004 __malloc_sbrk_start
00002108 g     F .text	00000056 TIM_SelectSlaveMode
00003adc g     F .text	00000050 uart_rx_irq
00003048 g     F .text	0000007e gpio_set
200000d0 g     O .bss	00000001 BEN_FLAG
00003796 g     F .text	00000026 timer_quad_clear
00000e36 g     F .text	0000020e DMA_DeInit
00002ea4 g     F .text	000001a4 gpio_init
200000fc g     O .bss	00000004 __malloc_free_list
00002030 g     F .text	000000d8 TIM_EncoderInterfaceConfig
00004480 g     F .text	0000029e _vfprintf_r
00003a40 g     F .text	00000056 uart_putchar
200000e8 g     O .bss	00000003 ov7725_uart_receive
20000180 g     O .bss	00000032 tag3
000055bc g     F .text	00000010 _close
0000538e g     F .text	0000000c raise
00004382 g     F .text	00000034 button_ticks



Disassembly of section .init:

00000000 <_sinit>:
_start():
D:\Car\sure code\slave_school\obj/../Libraries/wch_libraries/Startup/startup_ch32v10x.S:13

	.section	.init,"ax",@progbits
	.global	_start
	.align	1
_start:
	j	handle_reset
   0:	5b90006f          	j	db8 <handle_reset>
   4:	00000013          	nop
   8:	00000013          	nop
   c:	00000013          	nop
  10:	00000013          	nop
  14:	00000013          	nop
  18:	00000013          	nop
  1c:	00000013          	nop
  20:	00000013          	nop
  24:	00000013          	nop
  28:	00000013          	nop
  2c:	00000013          	nop
  30:	00000013          	nop
  34:	00100073          	ebreak

Disassembly of section .vector:

00000038 <_vector_base>:
_vector_base():
D:\Car\sure code\slave_school\obj/../Libraries/wch_libraries/Startup/startup_ch32v10x.S:31
	.word 0x00100073
    .section    .vector,"ax",@progbits
    .align  1
_vector_base:
    .option norvc;
        j   _start
  38:	fc9ff06f          	j	0 <_sinit>
  3c:	0000                	unimp
  3e:	0000                	unimp
D:\Car\sure code\slave_school\obj/../Libraries/wch_libraries/Startup/startup_ch32v10x.S:33
    .word   0
        j   NMI_Handler                 /* NMI Handler */
  40:	4cc0006f          	j	50c <NMI_Handler>
D:\Car\sure code\slave_school\obj/../Libraries/wch_libraries/Startup/startup_ch32v10x.S:34
        j   HardFault_Handler           /* Hard Fault Handler */
  44:	4d80006f          	j	51c <HardFault_Handler>
	...
D:\Car\sure code\slave_school\obj/../Libraries/wch_libraries/Startup/startup_ch32v10x.S:43
    .word   0
    .word   0
    .word   0
    .word   0
    .word   0
        j   SysTick_Handler            /* SysTick Handler */
  68:	f99ff06f          	j	0 <_sinit>
  6c:	0000                	unimp
  6e:	0000                	unimp
D:\Car\sure code\slave_school\obj/../Libraries/wch_libraries/Startup/startup_ch32v10x.S:45
    .word   0
        j   SW_handler                 /* SW Handler */
  70:	f91ff06f          	j	0 <_sinit>
  74:	0000                	unimp
  76:	0000                	unimp
D:\Car\sure code\slave_school\obj/../Libraries/wch_libraries/Startup/startup_ch32v10x.S:48
    .word   0
    /* External Interrupts */
        j   WWDG_IRQHandler            /* Window Watchdog */
  78:	f89ff06f          	j	0 <_sinit>
D:\Car\sure code\slave_school\obj/../Libraries/wch_libraries/Startup/startup_ch32v10x.S:49
        j   PVD_IRQHandler             /* PVD through EXTI Line detect */
  7c:	f85ff06f          	j	0 <_sinit>
D:\Car\sure code\slave_school\obj/../Libraries/wch_libraries/Startup/startup_ch32v10x.S:50
        j   TAMPER_IRQHandler          /* TAMPER */
  80:	f81ff06f          	j	0 <_sinit>
D:\Car\sure code\slave_school\obj/../Libraries/wch_libraries/Startup/startup_ch32v10x.S:51
        j   RTC_IRQHandler             /* RTC */
  84:	f7dff06f          	j	0 <_sinit>
D:\Car\sure code\slave_school\obj/../Libraries/wch_libraries/Startup/startup_ch32v10x.S:52
        j   FLASH_IRQHandler           /* Flash */
  88:	f79ff06f          	j	0 <_sinit>
D:\Car\sure code\slave_school\obj/../Libraries/wch_libraries/Startup/startup_ch32v10x.S:53
        j   RCC_IRQHandler             /* RCC */
  8c:	f75ff06f          	j	0 <_sinit>
D:\Car\sure code\slave_school\obj/../Libraries/wch_libraries/Startup/startup_ch32v10x.S:54
        j   EXTI0_IRQHandler           /* EXTI Line 0 */
  90:	1580006f          	j	1e8 <EXTI0_IRQHandler>
D:\Car\sure code\slave_school\obj/../Libraries/wch_libraries/Startup/startup_ch32v10x.S:55
        j   EXTI1_IRQHandler           /* EXTI Line 1 */
  94:	1780006f          	j	20c <EXTI1_IRQHandler>
D:\Car\sure code\slave_school\obj/../Libraries/wch_libraries/Startup/startup_ch32v10x.S:56
        j   EXTI2_IRQHandler           /* EXTI Line 2 */
  98:	1b60006f          	j	24e <EXTI2_IRQHandler>
D:\Car\sure code\slave_school\obj/../Libraries/wch_libraries/Startup/startup_ch32v10x.S:57
        j   EXTI3_IRQHandler           /* EXTI Line 3 */
  9c:	1c80006f          	j	264 <EXTI3_IRQHandler>
D:\Car\sure code\slave_school\obj/../Libraries/wch_libraries/Startup/startup_ch32v10x.S:58
        j   EXTI4_IRQHandler           /* EXTI Line 4 */
  a0:	1d40006f          	j	274 <EXTI4_IRQHandler>
D:\Car\sure code\slave_school\obj/../Libraries/wch_libraries/Startup/startup_ch32v10x.S:59
        j   DMA1_Channel1_IRQHandler   /* DMA1 Channel 1 */
  a4:	f5dff06f          	j	0 <_sinit>
D:\Car\sure code\slave_school\obj/../Libraries/wch_libraries/Startup/startup_ch32v10x.S:60
        j   DMA1_Channel2_IRQHandler   /* DMA1 Channel 2 */
  a8:	f59ff06f          	j	0 <_sinit>
D:\Car\sure code\slave_school\obj/../Libraries/wch_libraries/Startup/startup_ch32v10x.S:61
        j   DMA1_Channel3_IRQHandler   /* DMA1 Channel 3 */
  ac:	f55ff06f          	j	0 <_sinit>
D:\Car\sure code\slave_school\obj/../Libraries/wch_libraries/Startup/startup_ch32v10x.S:62
        j   DMA1_Channel4_IRQHandler   /* DMA1 Channel 4 */
  b0:	41a0006f          	j	4ca <DMA1_Channel4_IRQHandler>
D:\Car\sure code\slave_school\obj/../Libraries/wch_libraries/Startup/startup_ch32v10x.S:63
        j   DMA1_Channel5_IRQHandler   /* DMA1 Channel 5 */
  b4:	f4dff06f          	j	0 <_sinit>
D:\Car\sure code\slave_school\obj/../Libraries/wch_libraries/Startup/startup_ch32v10x.S:64
        j   DMA1_Channel6_IRQHandler   /* DMA1 Channel 6 */
  b8:	f49ff06f          	j	0 <_sinit>
D:\Car\sure code\slave_school\obj/../Libraries/wch_libraries/Startup/startup_ch32v10x.S:65
        j   DMA1_Channel7_IRQHandler   /* DMA1 Channel 7 */
  bc:	f45ff06f          	j	0 <_sinit>
D:\Car\sure code\slave_school\obj/../Libraries/wch_libraries/Startup/startup_ch32v10x.S:66
        j   ADC1_2_IRQHandler          /* ADC1_2 */
  c0:	1e40006f          	j	2a4 <ADC1_2_IRQHandler>
	...
D:\Car\sure code\slave_school\obj/../Libraries/wch_libraries/Startup/startup_ch32v10x.S:71
        .word   0
        .word   0
        .word   0
        .word   0
        j   EXTI9_5_IRQHandler         /* EXTI Line 9..5 */
  d4:	1b00006f          	j	284 <EXTI9_5_IRQHandler>
D:\Car\sure code\slave_school\obj/../Libraries/wch_libraries/Startup/startup_ch32v10x.S:72
        j   TIM1_BRK_IRQHandler        /* TIM1 Break */
  d8:	1dc0006f          	j	2b4 <TIM1_BRK_IRQHandler>
D:\Car\sure code\slave_school\obj/../Libraries/wch_libraries/Startup/startup_ch32v10x.S:73
        j   TIM1_UP_IRQHandler         /* TIM1 Update */
  dc:	20c0006f          	j	2e8 <TIM1_UP_IRQHandler>
D:\Car\sure code\slave_school\obj/../Libraries/wch_libraries/Startup/startup_ch32v10x.S:74
        j   TIM1_TRG_COM_IRQHandler    /* TIM1 Trigger and Commutation */
  e0:	2380006f          	j	318 <TIM1_TRG_COM_IRQHandler>
D:\Car\sure code\slave_school\obj/../Libraries/wch_libraries/Startup/startup_ch32v10x.S:75
        j   TIM1_CC_IRQHandler         /* TIM1 Capture Compare */
  e4:	28c0006f          	j	370 <TIM1_CC_IRQHandler>
D:\Car\sure code\slave_school\obj/../Libraries/wch_libraries/Startup/startup_ch32v10x.S:76
        j   TIM2_IRQHandler            /* TIM2 */
  e8:	3180006f          	j	400 <TIM2_IRQHandler>
D:\Car\sure code\slave_school\obj/../Libraries/wch_libraries/Startup/startup_ch32v10x.S:77
        j   TIM3_IRQHandler            /* TIM3 */
  ec:	33c0006f          	j	428 <TIM3_IRQHandler>
D:\Car\sure code\slave_school\obj/../Libraries/wch_libraries/Startup/startup_ch32v10x.S:78
        j   TIM4_IRQHandler            /* TIM4 */
  f0:	5860006f          	j	676 <TIM4_IRQHandler>
D:\Car\sure code\slave_school\obj/../Libraries/wch_libraries/Startup/startup_ch32v10x.S:79
        j   I2C1_EV_IRQHandler         /* I2C1 Event */
  f4:	f0dff06f          	j	0 <_sinit>
D:\Car\sure code\slave_school\obj/../Libraries/wch_libraries/Startup/startup_ch32v10x.S:80
        j   I2C1_ER_IRQHandler         /* I2C1 Error */
  f8:	f09ff06f          	j	0 <_sinit>
D:\Car\sure code\slave_school\obj/../Libraries/wch_libraries/Startup/startup_ch32v10x.S:81
        j   I2C2_EV_IRQHandler         /* I2C2 Event */
  fc:	f05ff06f          	j	0 <_sinit>
D:\Car\sure code\slave_school\obj/../Libraries/wch_libraries/Startup/startup_ch32v10x.S:82
        j   I2C2_ER_IRQHandler         /* I2C2 Error */
 100:	f01ff06f          	j	0 <_sinit>
D:\Car\sure code\slave_school\obj/../Libraries/wch_libraries/Startup/startup_ch32v10x.S:83
        j   SPI1_IRQHandler            /* SPI1 */
 104:	efdff06f          	j	0 <_sinit>
D:\Car\sure code\slave_school\obj/../Libraries/wch_libraries/Startup/startup_ch32v10x.S:84
        j   SPI2_IRQHandler            /* SPI2 */
 108:	ef9ff06f          	j	0 <_sinit>
D:\Car\sure code\slave_school\obj/../Libraries/wch_libraries/Startup/startup_ch32v10x.S:85
        j   USART1_IRQHandler          /* USART1 */
 10c:	34c0006f          	j	458 <USART1_IRQHandler>
D:\Car\sure code\slave_school\obj/../Libraries/wch_libraries/Startup/startup_ch32v10x.S:86
        j   USART2_IRQHandler          /* USART2 */
 110:	3580006f          	j	468 <USART2_IRQHandler>
D:\Car\sure code\slave_school\obj/../Libraries/wch_libraries/Startup/startup_ch32v10x.S:87
        j   USART3_IRQHandler          /* USART3 */
 114:	3a60006f          	j	4ba <USART3_IRQHandler>
D:\Car\sure code\slave_school\obj/../Libraries/wch_libraries/Startup/startup_ch32v10x.S:88
        j   EXTI15_10_IRQHandler       /* EXTI Line 15..10 */
 118:	17c0006f          	j	294 <EXTI15_10_IRQHandler>
D:\Car\sure code\slave_school\obj/../Libraries/wch_libraries/Startup/startup_ch32v10x.S:89
        j   RTCAlarm_IRQHandler        /* RTC Alarm through EXTI Line */
 11c:	ee5ff06f          	j	0 <_sinit>
D:\Car\sure code\slave_school\obj/../Libraries/wch_libraries/Startup/startup_ch32v10x.S:90
        j   USBWakeUp_IRQHandler       /* USB Wakeup from suspend */
 120:	ee1ff06f          	j	0 <_sinit>
D:\Car\sure code\slave_school\obj/../Libraries/wch_libraries/Startup/startup_ch32v10x.S:91
        j   USBHD_IRQHandler           /* USBHD */
 124:	eddff06f          	j	0 <_sinit>
	...

Disassembly of section .text:

00000140 <memset>:
memset():
     140:	433d                	li	t1,15
     142:	872a                	mv	a4,a0
     144:	02c37363          	bgeu	t1,a2,16a <memset+0x2a>
     148:	00f77793          	andi	a5,a4,15
     14c:	efbd                	bnez	a5,1ca <memset+0x8a>
     14e:	e5ad                	bnez	a1,1b8 <memset+0x78>
     150:	ff067693          	andi	a3,a2,-16
     154:	8a3d                	andi	a2,a2,15
     156:	96ba                	add	a3,a3,a4
     158:	c30c                	sw	a1,0(a4)
     15a:	c34c                	sw	a1,4(a4)
     15c:	c70c                	sw	a1,8(a4)
     15e:	c74c                	sw	a1,12(a4)
     160:	0741                	addi	a4,a4,16
     162:	fed76be3          	bltu	a4,a3,158 <memset+0x18>
     166:	e211                	bnez	a2,16a <memset+0x2a>
     168:	8082                	ret
     16a:	40c306b3          	sub	a3,t1,a2
     16e:	068a                	slli	a3,a3,0x2
     170:	00000297          	auipc	t0,0x0
     174:	9696                	add	a3,a3,t0
     176:	00a68067          	jr	10(a3)
     17a:	00b70723          	sb	a1,14(a4)
     17e:	00b706a3          	sb	a1,13(a4)
     182:	00b70623          	sb	a1,12(a4)
     186:	00b705a3          	sb	a1,11(a4)
     18a:	00b70523          	sb	a1,10(a4)
     18e:	00b704a3          	sb	a1,9(a4)
     192:	00b70423          	sb	a1,8(a4)
     196:	00b703a3          	sb	a1,7(a4)
     19a:	00b70323          	sb	a1,6(a4)
     19e:	00b702a3          	sb	a1,5(a4)
     1a2:	00b70223          	sb	a1,4(a4)
     1a6:	00b701a3          	sb	a1,3(a4)
     1aa:	00b70123          	sb	a1,2(a4)
     1ae:	00b700a3          	sb	a1,1(a4)
     1b2:	00b70023          	sb	a1,0(a4)
     1b6:	8082                	ret
     1b8:	0ff5f593          	andi	a1,a1,255
     1bc:	00859693          	slli	a3,a1,0x8
     1c0:	8dd5                	or	a1,a1,a3
     1c2:	01059693          	slli	a3,a1,0x10
     1c6:	8dd5                	or	a1,a1,a3
     1c8:	b761                	j	150 <memset+0x10>
     1ca:	00279693          	slli	a3,a5,0x2
     1ce:	00000297          	auipc	t0,0x0
     1d2:	9696                	add	a3,a3,t0
     1d4:	8286                	mv	t0,ra
     1d6:	fa8680e7          	jalr	-88(a3)
     1da:	8096                	mv	ra,t0
     1dc:	17c1                	addi	a5,a5,-16
     1de:	8f1d                	sub	a4,a4,a5
     1e0:	963e                	add	a2,a2,a5
     1e2:	f8c374e3          	bgeu	t1,a2,16a <memset+0x2a>
     1e6:	b7a5                	j	14e <memset+0xe>

000001e8 <EXTI0_IRQHandler>:
EXTI0_IRQHandler():
D:\Car\sure code\slave_school\obj/../USER/isr.c:61
//void RTCAlarm_IRQHandler(void) __attribute__((interrupt("WCH-Interrupt-fast")));
//void USBWakeUp_IRQHandler(void) __attribute__((interrupt("WCH-Interrupt-fast")));
//void USBHD_IRQHandler(void) __attribute__((interrupt("WCH-Interrupt-fast")));

void EXTI0_IRQHandler(void)
{
     1e8:	1141                	addi	sp,sp,-16
     1ea:	c622                	sw	s0,12(sp)
     1ec:	0800                	addi	s0,sp,16
D:\Car\sure code\slave_school\obj/../USER/isr.c:62
    if(SET == EXTI_GetITStatus(EXTI_Line0))
     1ee:	4505                	li	a0,1
     1f0:	18a010ef          	jal	ra,137a <EXTI_GetITStatus>
     1f4:	872a                	mv	a4,a0
     1f6:	4785                	li	a5,1
     1f8:	00f71563          	bne	a4,a5,202 <EXTI0_IRQHandler+0x1a>
D:\Car\sure code\slave_school\obj/../USER/isr.c:65
    {

        EXTI_ClearITPendingBit(EXTI_Line0);
     1fc:	4505                	li	a0,1
     1fe:	1d2010ef          	jal	ra,13d0 <EXTI_ClearITPendingBit>
D:\Car\sure code\slave_school\obj/../USER/isr.c:68
    }

}
     202:	0001                	nop
     204:	4432                	lw	s0,12(sp)
     206:	0141                	addi	sp,sp,16
     208:	30200073          	mret

0000020c <EXTI1_IRQHandler>:
EXTI1_IRQHandler():
D:\Car\sure code\slave_school\obj/../USER/isr.c:71

void EXTI1_IRQHandler(void)
{
     20c:	1141                	addi	sp,sp,-16
     20e:	c622                	sw	s0,12(sp)
     210:	0800                	addi	s0,sp,16
D:\Car\sure code\slave_school\obj/../USER/isr.c:72
    if(SET == EXTI_GetITStatus(EXTI_Line1))
     212:	4509                	li	a0,2
     214:	166010ef          	jal	ra,137a <EXTI_GetITStatus>
     218:	872a                	mv	a4,a0
     21a:	4785                	li	a5,1
     21c:	02f71463          	bne	a4,a5,244 <EXTI1_IRQHandler+0x38>
D:\Car\sure code\slave_school\obj/../USER/isr.c:74
    {
        if(camera_type == CAMERA_BIN_UART)
     220:	8081a703          	lw	a4,-2040(gp) # 200000c0 <camera_type>
     224:	4789                	li	a5,2
     226:	00f71563          	bne	a4,a5,230 <EXTI1_IRQHandler+0x24>
D:\Car\sure code\slave_school\obj/../USER/isr.c:75
            ov7725_uart_vsync();
     22a:	173020ef          	jal	ra,2b9c <ov7725_uart_vsync>
     22e:	a801                	j	23e <EXTI1_IRQHandler+0x32>
D:\Car\sure code\slave_school\obj/../USER/isr.c:76
        else if(camera_type == CAMERA_GRAYSCALE)
     230:	8081a703          	lw	a4,-2040(gp) # 200000c0 <camera_type>
     234:	4785                	li	a5,1
     236:	00f71463          	bne	a4,a5,23e <EXTI1_IRQHandler+0x32>
D:\Car\sure code\slave_school\obj/../USER/isr.c:77
            mt9v03x_vsync();
     23a:	08f020ef          	jal	ra,2ac8 <mt9v03x_vsync>
D:\Car\sure code\slave_school\obj/../USER/isr.c:78
        EXTI_ClearITPendingBit(EXTI_Line1);
     23e:	4509                	li	a0,2
     240:	190010ef          	jal	ra,13d0 <EXTI_ClearITPendingBit>
D:\Car\sure code\slave_school\obj/../USER/isr.c:81
    }

}
     244:	0001                	nop
     246:	4432                	lw	s0,12(sp)
     248:	0141                	addi	sp,sp,16
     24a:	30200073          	mret

0000024e <EXTI2_IRQHandler>:
EXTI2_IRQHandler():
D:\Car\sure code\slave_school\obj/../USER/isr.c:84

void EXTI2_IRQHandler(void)
{
     24e:	1141                	addi	sp,sp,-16
     250:	c622                	sw	s0,12(sp)
     252:	0800                	addi	s0,sp,16
D:\Car\sure code\slave_school\obj/../USER/isr.c:85
    EXTI_ClearITPendingBit(EXTI_Line2);
     254:	4511                	li	a0,4
     256:	17a010ef          	jal	ra,13d0 <EXTI_ClearITPendingBit>
D:\Car\sure code\slave_school\obj/../USER/isr.c:86
}
     25a:	0001                	nop
     25c:	4432                	lw	s0,12(sp)
     25e:	0141                	addi	sp,sp,16
     260:	30200073          	mret

00000264 <EXTI3_IRQHandler>:
EXTI3_IRQHandler():
D:\Car\sure code\slave_school\obj/../USER/isr.c:89

void EXTI3_IRQHandler(void)
{
     264:	1141                	addi	sp,sp,-16
     266:	c622                	sw	s0,12(sp)
     268:	0800                	addi	s0,sp,16
D:\Car\sure code\slave_school\obj/../USER/isr.c:92


}
     26a:	0001                	nop
     26c:	4432                	lw	s0,12(sp)
     26e:	0141                	addi	sp,sp,16
     270:	30200073          	mret

00000274 <EXTI4_IRQHandler>:
EXTI4_IRQHandler():
D:\Car\sure code\slave_school\obj/../USER/isr.c:95

void EXTI4_IRQHandler(void)
{
     274:	1141                	addi	sp,sp,-16
     276:	c622                	sw	s0,12(sp)
     278:	0800                	addi	s0,sp,16
D:\Car\sure code\slave_school\obj/../USER/isr.c:98


}
     27a:	0001                	nop
     27c:	4432                	lw	s0,12(sp)
     27e:	0141                	addi	sp,sp,16
     280:	30200073          	mret

00000284 <EXTI9_5_IRQHandler>:
EXTI9_5_IRQHandler():
D:\Car\sure code\slave_school\obj/../USER/isr.c:101

void EXTI9_5_IRQHandler(void)
{
     284:	1141                	addi	sp,sp,-16
     286:	c622                	sw	s0,12(sp)
     288:	0800                	addi	s0,sp,16
D:\Car\sure code\slave_school\obj/../USER/isr.c:104


}
     28a:	0001                	nop
     28c:	4432                	lw	s0,12(sp)
     28e:	0141                	addi	sp,sp,16
     290:	30200073          	mret

00000294 <EXTI15_10_IRQHandler>:
EXTI15_10_IRQHandler():
D:\Car\sure code\slave_school\obj/../USER/isr.c:107

void EXTI15_10_IRQHandler(void)
{
     294:	1141                	addi	sp,sp,-16
     296:	c622                	sw	s0,12(sp)
     298:	0800                	addi	s0,sp,16
D:\Car\sure code\slave_school\obj/../USER/isr.c:109

}
     29a:	0001                	nop
     29c:	4432                	lw	s0,12(sp)
     29e:	0141                	addi	sp,sp,16
     2a0:	30200073          	mret

000002a4 <ADC1_2_IRQHandler>:
ADC1_2_IRQHandler():
D:\Car\sure code\slave_school\obj/../USER/isr.c:112

void ADC1_2_IRQHandler(void)
{
     2a4:	1141                	addi	sp,sp,-16
     2a6:	c622                	sw	s0,12(sp)
     2a8:	0800                	addi	s0,sp,16
D:\Car\sure code\slave_school\obj/../USER/isr.c:115


}
     2aa:	0001                	nop
     2ac:	4432                	lw	s0,12(sp)
     2ae:	0141                	addi	sp,sp,16
     2b0:	30200073          	mret

000002b4 <TIM1_BRK_IRQHandler>:
TIM1_BRK_IRQHandler():
D:\Car\sure code\slave_school\obj/../USER/isr.c:118

void TIM1_BRK_IRQHandler(void)
{
     2b4:	1141                	addi	sp,sp,-16
     2b6:	c622                	sw	s0,12(sp)
     2b8:	0800                	addi	s0,sp,16
D:\Car\sure code\slave_school\obj/../USER/isr.c:119
    if(TIM_GetITStatus(TIM1, TIM_IT_Break) != RESET)
     2ba:	08000593          	li	a1,128
     2be:	400137b7          	lui	a5,0x40013
     2c2:	c0078513          	addi	a0,a5,-1024 # 40012c00 <_eusrstack+0x2000dc00>
     2c6:	6f1010ef          	jal	ra,21b6 <TIM_GetITStatus>
     2ca:	87aa                	mv	a5,a0
     2cc:	cb89                	beqz	a5,2de <TIM1_BRK_IRQHandler+0x2a>
D:\Car\sure code\slave_school\obj/../USER/isr.c:121
    {
        TIM_ClearITPendingBit(TIM1, TIM_IT_Break);
     2ce:	08000593          	li	a1,128
     2d2:	400137b7          	lui	a5,0x40013
     2d6:	c0078513          	addi	a0,a5,-1024 # 40012c00 <_eusrstack+0x2000dc00>
     2da:	74d010ef          	jal	ra,2226 <TIM_ClearITPendingBit>
D:\Car\sure code\slave_school\obj/../USER/isr.c:124

    }
}
     2de:	0001                	nop
     2e0:	4432                	lw	s0,12(sp)
     2e2:	0141                	addi	sp,sp,16
     2e4:	30200073          	mret

000002e8 <TIM1_UP_IRQHandler>:
TIM1_UP_IRQHandler():
D:\Car\sure code\slave_school\obj/../USER/isr.c:127

void TIM1_UP_IRQHandler(void)
{
     2e8:	1141                	addi	sp,sp,-16
     2ea:	c622                	sw	s0,12(sp)
     2ec:	0800                	addi	s0,sp,16
D:\Car\sure code\slave_school\obj/../USER/isr.c:128
    if(TIM_GetITStatus(TIM1, TIM_IT_Update) != RESET)
     2ee:	4585                	li	a1,1
     2f0:	400137b7          	lui	a5,0x40013
     2f4:	c0078513          	addi	a0,a5,-1024 # 40012c00 <_eusrstack+0x2000dc00>
     2f8:	6bf010ef          	jal	ra,21b6 <TIM_GetITStatus>
     2fc:	87aa                	mv	a5,a0
     2fe:	cb81                	beqz	a5,30e <TIM1_UP_IRQHandler+0x26>
D:\Car\sure code\slave_school\obj/../USER/isr.c:130
    {
        TIM_ClearITPendingBit(TIM1, TIM_IT_Update);
     300:	4585                	li	a1,1
     302:	400137b7          	lui	a5,0x40013
     306:	c0078513          	addi	a0,a5,-1024 # 40012c00 <_eusrstack+0x2000dc00>
     30a:	71d010ef          	jal	ra,2226 <TIM_ClearITPendingBit>
D:\Car\sure code\slave_school\obj/../USER/isr.c:133

    }
}
     30e:	0001                	nop
     310:	4432                	lw	s0,12(sp)
     312:	0141                	addi	sp,sp,16
     314:	30200073          	mret

00000318 <TIM1_TRG_COM_IRQHandler>:
TIM1_TRG_COM_IRQHandler():
D:\Car\sure code\slave_school\obj/../USER/isr.c:136

void TIM1_TRG_COM_IRQHandler(void)
{
     318:	1141                	addi	sp,sp,-16
     31a:	c622                	sw	s0,12(sp)
     31c:	0800                	addi	s0,sp,16
D:\Car\sure code\slave_school\obj/../USER/isr.c:137
    if(TIM_GetITStatus(TIM1, TIM_IT_Trigger) != RESET)
     31e:	04000593          	li	a1,64
     322:	400137b7          	lui	a5,0x40013
     326:	c0078513          	addi	a0,a5,-1024 # 40012c00 <_eusrstack+0x2000dc00>
     32a:	68d010ef          	jal	ra,21b6 <TIM_GetITStatus>
     32e:	87aa                	mv	a5,a0
     330:	cb89                	beqz	a5,342 <TIM1_TRG_COM_IRQHandler+0x2a>
D:\Car\sure code\slave_school\obj/../USER/isr.c:139
    {
        TIM_ClearITPendingBit(TIM1, TIM_IT_Trigger);
     332:	04000593          	li	a1,64
     336:	400137b7          	lui	a5,0x40013
     33a:	c0078513          	addi	a0,a5,-1024 # 40012c00 <_eusrstack+0x2000dc00>
     33e:	6e9010ef          	jal	ra,2226 <TIM_ClearITPendingBit>
D:\Car\sure code\slave_school\obj/../USER/isr.c:142

    }
    if(TIM_GetITStatus(TIM1, TIM_IT_COM) != RESET)
     342:	02000593          	li	a1,32
     346:	400137b7          	lui	a5,0x40013
     34a:	c0078513          	addi	a0,a5,-1024 # 40012c00 <_eusrstack+0x2000dc00>
     34e:	669010ef          	jal	ra,21b6 <TIM_GetITStatus>
     352:	87aa                	mv	a5,a0
     354:	cb89                	beqz	a5,366 <TIM1_TRG_COM_IRQHandler+0x4e>
D:\Car\sure code\slave_school\obj/../USER/isr.c:144
    {
        TIM_ClearITPendingBit(TIM1, TIM_IT_COM);
     356:	02000593          	li	a1,32
     35a:	400137b7          	lui	a5,0x40013
     35e:	c0078513          	addi	a0,a5,-1024 # 40012c00 <_eusrstack+0x2000dc00>
     362:	6c5010ef          	jal	ra,2226 <TIM_ClearITPendingBit>
D:\Car\sure code\slave_school\obj/../USER/isr.c:147

    }
}
     366:	0001                	nop
     368:	4432                	lw	s0,12(sp)
     36a:	0141                	addi	sp,sp,16
     36c:	30200073          	mret

00000370 <TIM1_CC_IRQHandler>:
TIM1_CC_IRQHandler():
D:\Car\sure code\slave_school\obj/../USER/isr.c:150

void TIM1_CC_IRQHandler(void)
{
     370:	1141                	addi	sp,sp,-16
     372:	c622                	sw	s0,12(sp)
     374:	0800                	addi	s0,sp,16
D:\Car\sure code\slave_school\obj/../USER/isr.c:151
    if(TIM_GetITStatus(TIM1, TIM_IT_CC1) != RESET)
     376:	4589                	li	a1,2
     378:	400137b7          	lui	a5,0x40013
     37c:	c0078513          	addi	a0,a5,-1024 # 40012c00 <_eusrstack+0x2000dc00>
     380:	637010ef          	jal	ra,21b6 <TIM_GetITStatus>
     384:	87aa                	mv	a5,a0
     386:	cb81                	beqz	a5,396 <TIM1_CC_IRQHandler+0x26>
D:\Car\sure code\slave_school\obj/../USER/isr.c:153
    {
        TIM_ClearITPendingBit(TIM1, TIM_IT_CC1);
     388:	4589                	li	a1,2
     38a:	400137b7          	lui	a5,0x40013
     38e:	c0078513          	addi	a0,a5,-1024 # 40012c00 <_eusrstack+0x2000dc00>
     392:	695010ef          	jal	ra,2226 <TIM_ClearITPendingBit>
D:\Car\sure code\slave_school\obj/../USER/isr.c:156

    }
    if(TIM_GetITStatus(TIM1, TIM_IT_CC2) != RESET)
     396:	4591                	li	a1,4
     398:	400137b7          	lui	a5,0x40013
     39c:	c0078513          	addi	a0,a5,-1024 # 40012c00 <_eusrstack+0x2000dc00>
     3a0:	617010ef          	jal	ra,21b6 <TIM_GetITStatus>
     3a4:	87aa                	mv	a5,a0
     3a6:	cb81                	beqz	a5,3b6 <TIM1_CC_IRQHandler+0x46>
D:\Car\sure code\slave_school\obj/../USER/isr.c:158
    {
        TIM_ClearITPendingBit(TIM1, TIM_IT_CC2);
     3a8:	4591                	li	a1,4
     3aa:	400137b7          	lui	a5,0x40013
     3ae:	c0078513          	addi	a0,a5,-1024 # 40012c00 <_eusrstack+0x2000dc00>
     3b2:	675010ef          	jal	ra,2226 <TIM_ClearITPendingBit>
D:\Car\sure code\slave_school\obj/../USER/isr.c:161

    }
    if(TIM_GetITStatus(TIM1, TIM_IT_CC3) != RESET)
     3b6:	45a1                	li	a1,8
     3b8:	400137b7          	lui	a5,0x40013
     3bc:	c0078513          	addi	a0,a5,-1024 # 40012c00 <_eusrstack+0x2000dc00>
     3c0:	5f7010ef          	jal	ra,21b6 <TIM_GetITStatus>
     3c4:	87aa                	mv	a5,a0
     3c6:	cb81                	beqz	a5,3d6 <TIM1_CC_IRQHandler+0x66>
D:\Car\sure code\slave_school\obj/../USER/isr.c:163
    {
        TIM_ClearITPendingBit(TIM1, TIM_IT_CC3);
     3c8:	45a1                	li	a1,8
     3ca:	400137b7          	lui	a5,0x40013
     3ce:	c0078513          	addi	a0,a5,-1024 # 40012c00 <_eusrstack+0x2000dc00>
     3d2:	655010ef          	jal	ra,2226 <TIM_ClearITPendingBit>
D:\Car\sure code\slave_school\obj/../USER/isr.c:166

    }
    if(TIM_GetITStatus(TIM1, TIM_IT_CC4) != RESET)
     3d6:	45c1                	li	a1,16
     3d8:	400137b7          	lui	a5,0x40013
     3dc:	c0078513          	addi	a0,a5,-1024 # 40012c00 <_eusrstack+0x2000dc00>
     3e0:	5d7010ef          	jal	ra,21b6 <TIM_GetITStatus>
     3e4:	87aa                	mv	a5,a0
     3e6:	cb81                	beqz	a5,3f6 <TIM1_CC_IRQHandler+0x86>
D:\Car\sure code\slave_school\obj/../USER/isr.c:168
    {
        TIM_ClearITPendingBit(TIM1, TIM_IT_CC4);
     3e8:	45c1                	li	a1,16
     3ea:	400137b7          	lui	a5,0x40013
     3ee:	c0078513          	addi	a0,a5,-1024 # 40012c00 <_eusrstack+0x2000dc00>
     3f2:	635010ef          	jal	ra,2226 <TIM_ClearITPendingBit>
D:\Car\sure code\slave_school\obj/../USER/isr.c:171

    }
}
     3f6:	0001                	nop
     3f8:	4432                	lw	s0,12(sp)
     3fa:	0141                	addi	sp,sp,16
     3fc:	30200073          	mret

00000400 <TIM2_IRQHandler>:
TIM2_IRQHandler():
D:\Car\sure code\slave_school\obj/../USER/isr.c:174

void TIM2_IRQHandler(void)
{
     400:	1141                	addi	sp,sp,-16
     402:	c622                	sw	s0,12(sp)
     404:	0800                	addi	s0,sp,16
D:\Car\sure code\slave_school\obj/../USER/isr.c:176

    if(TIM_GetITStatus(TIM2, TIM_IT_Update) != RESET)
     406:	4585                	li	a1,1
     408:	40000537          	lui	a0,0x40000
     40c:	5ab010ef          	jal	ra,21b6 <TIM_GetITStatus>
     410:	87aa                	mv	a5,a0
     412:	c791                	beqz	a5,41e <TIM2_IRQHandler+0x1e>
D:\Car\sure code\slave_school\obj/../USER/isr.c:178
    {
        TIM_ClearITPendingBit(TIM2, TIM_IT_Update );
     414:	4585                	li	a1,1
     416:	40000537          	lui	a0,0x40000
     41a:	60d010ef          	jal	ra,2226 <TIM_ClearITPendingBit>
D:\Car\sure code\slave_school\obj/../USER/isr.c:184
        //ccd_collect();//CCD数据采集
        //gpio_toggle(B5);
        //GPIO_PIN_RESET(B5);
        //GPIO_PIN_SET(B5);
    }
}
     41e:	0001                	nop
     420:	4432                	lw	s0,12(sp)
     422:	0141                	addi	sp,sp,16
     424:	30200073          	mret

00000428 <TIM3_IRQHandler>:
TIM3_IRQHandler():
D:\Car\sure code\slave_school\obj/../USER/isr.c:187

void TIM3_IRQHandler(void)
{
     428:	1141                	addi	sp,sp,-16
     42a:	c622                	sw	s0,12(sp)
     42c:	0800                	addi	s0,sp,16
D:\Car\sure code\slave_school\obj/../USER/isr.c:188
    if(TIM_GetITStatus(TIM3, TIM_IT_Update) != RESET)
     42e:	4585                	li	a1,1
     430:	400007b7          	lui	a5,0x40000
     434:	40078513          	addi	a0,a5,1024 # 40000400 <_eusrstack+0x1fffb400>
     438:	57f010ef          	jal	ra,21b6 <TIM_GetITStatus>
     43c:	87aa                	mv	a5,a0
     43e:	cb81                	beqz	a5,44e <TIM3_IRQHandler+0x26>
D:\Car\sure code\slave_school\obj/../USER/isr.c:190
    {
        TIM_ClearITPendingBit(TIM3, TIM_IT_Update );
     440:	4585                	li	a1,1
     442:	400007b7          	lui	a5,0x40000
     446:	40078513          	addi	a0,a5,1024 # 40000400 <_eusrstack+0x1fffb400>
     44a:	5dd010ef          	jal	ra,2226 <TIM_ClearITPendingBit>
D:\Car\sure code\slave_school\obj/../USER/isr.c:193

    }
}
     44e:	0001                	nop
     450:	4432                	lw	s0,12(sp)
     452:	0141                	addi	sp,sp,16
     454:	30200073          	mret

00000458 <USART1_IRQHandler>:
USART1_IRQHandler():
D:\Car\sure code\slave_school\obj/../USER/isr.c:206
//        gpio_set(B0,0);
//    }
//}

void USART1_IRQHandler(void)
{
     458:	1141                	addi	sp,sp,-16
     45a:	c622                	sw	s0,12(sp)
     45c:	0800                	addi	s0,sp,16
D:\Car\sure code\slave_school\obj/../USER/isr.c:208

}
     45e:	0001                	nop
     460:	4432                	lw	s0,12(sp)
     462:	0141                	addi	sp,sp,16
     464:	30200073          	mret

00000468 <USART2_IRQHandler>:
USART2_IRQHandler():
D:\Car\sure code\slave_school\obj/../USER/isr.c:211

void USART2_IRQHandler(void)
{
     468:	1141                	addi	sp,sp,-16
     46a:	c622                	sw	s0,12(sp)
     46c:	0800                	addi	s0,sp,16
D:\Car\sure code\slave_school\obj/../USER/isr.c:212
    if(USART_GetITStatus(USART2, USART_IT_RXNE) != RESET)
     46e:	52500593          	li	a1,1317
     472:	400047b7          	lui	a5,0x40004
     476:	40078513          	addi	a0,a5,1024 # 40004400 <_eusrstack+0x1ffff400>
     47a:	1a6020ef          	jal	ra,2620 <USART_GetITStatus>
     47e:	87aa                	mv	a5,a0
     480:	cb85                	beqz	a5,4b0 <USART2_IRQHandler+0x48>
D:\Car\sure code\slave_school\obj/../USER/isr.c:214
    {
        USART_ClearITPendingBit(USART2, USART_IT_RXNE);
     482:	52500593          	li	a1,1317
     486:	400047b7          	lui	a5,0x40004
     48a:	40078513          	addi	a0,a5,1024 # 40004400 <_eusrstack+0x1ffff400>
     48e:	294020ef          	jal	ra,2722 <USART_ClearITPendingBit>
D:\Car\sure code\slave_school\obj/../USER/isr.c:215
        if(camera_type == CAMERA_BIN_UART)
     492:	8081a703          	lw	a4,-2040(gp) # 200000c0 <camera_type>
     496:	4789                	li	a5,2
     498:	00f71563          	bne	a4,a5,4a2 <USART2_IRQHandler+0x3a>
D:\Car\sure code\slave_school\obj/../USER/isr.c:216
            ov7725_cof_uart_interrupt();
     49c:	690020ef          	jal	ra,2b2c <ov7725_cof_uart_interrupt>
D:\Car\sure code\slave_school\obj/../USER/isr.c:220
        else if(camera_type == CAMERA_GRAYSCALE)
            mt9v03x_uart_callback();
    }
}
     4a0:	a801                	j	4b0 <USART2_IRQHandler+0x48>
D:\Car\sure code\slave_school\obj/../USER/isr.c:217
        else if(camera_type == CAMERA_GRAYSCALE)
     4a2:	8081a703          	lw	a4,-2040(gp) # 200000c0 <camera_type>
     4a6:	4785                	li	a5,1
     4a8:	00f71463          	bne	a4,a5,4b0 <USART2_IRQHandler+0x48>
D:\Car\sure code\slave_school\obj/../USER/isr.c:218
            mt9v03x_uart_callback();
     4ac:	2c4020ef          	jal	ra,2770 <mt9v03x_uart_callback>
D:\Car\sure code\slave_school\obj/../USER/isr.c:220
}
     4b0:	0001                	nop
     4b2:	4432                	lw	s0,12(sp)
     4b4:	0141                	addi	sp,sp,16
     4b6:	30200073          	mret

000004ba <USART3_IRQHandler>:
USART3_IRQHandler():
D:\Car\sure code\slave_school\obj/../USER/isr.c:223

void USART3_IRQHandler(void)
{
     4ba:	1141                	addi	sp,sp,-16
     4bc:	c622                	sw	s0,12(sp)
     4be:	0800                	addi	s0,sp,16
D:\Car\sure code\slave_school\obj/../USER/isr.c:225

}
     4c0:	0001                	nop
     4c2:	4432                	lw	s0,12(sp)
     4c4:	0141                	addi	sp,sp,16
     4c6:	30200073          	mret

000004ca <DMA1_Channel4_IRQHandler>:
DMA1_Channel4_IRQHandler():
D:\Car\sure code\slave_school\obj/../USER/isr.c:228

void DMA1_Channel4_IRQHandler(void)
{
     4ca:	1141                	addi	sp,sp,-16
     4cc:	c622                	sw	s0,12(sp)
     4ce:	0800                	addi	s0,sp,16
D:\Car\sure code\slave_school\obj/../USER/isr.c:229
    if(SET == DMA_GetFlagStatus(DMA1_FLAG_TC4))
     4d0:	6509                	lui	a0,0x2
     4d2:	4a5000ef          	jal	ra,1176 <DMA_GetFlagStatus>
     4d6:	872a                	mv	a4,a0
     4d8:	4785                	li	a5,1
     4da:	02f71463          	bne	a4,a5,502 <DMA1_Channel4_IRQHandler+0x38>
D:\Car\sure code\slave_school\obj/../USER/isr.c:231
    {
        DMA_ClearFlag(DMA1_FLAG_TC4);
     4de:	6509                	lui	a0,0x2
     4e0:	4f3000ef          	jal	ra,11d2 <DMA_ClearFlag>
D:\Car\sure code\slave_school\obj/../USER/isr.c:232
        if(camera_type == CAMERA_BIN_UART)
     4e4:	8081a703          	lw	a4,-2040(gp) # 200000c0 <camera_type>
     4e8:	4789                	li	a5,2
     4ea:	00f71563          	bne	a4,a5,4f4 <DMA1_Channel4_IRQHandler+0x2a>
D:\Car\sure code\slave_school\obj/../USER/isr.c:233
            ov7725_uart_dma();
     4ee:	6e4020ef          	jal	ra,2bd2 <ov7725_uart_dma>
D:\Car\sure code\slave_school\obj/../USER/isr.c:237
        else if(camera_type == CAMERA_GRAYSCALE)
            mt9v03x_dma();
    }
}
     4f2:	a801                	j	502 <DMA1_Channel4_IRQHandler+0x38>
D:\Car\sure code\slave_school\obj/../USER/isr.c:234
        else if(camera_type == CAMERA_GRAYSCALE)
     4f4:	8081a703          	lw	a4,-2040(gp) # 200000c0 <camera_type>
     4f8:	4785                	li	a5,1
     4fa:	00f71463          	bne	a4,a5,502 <DMA1_Channel4_IRQHandler+0x38>
D:\Car\sure code\slave_school\obj/../USER/isr.c:235
            mt9v03x_dma();
     4fe:	600020ef          	jal	ra,2afe <mt9v03x_dma>
D:\Car\sure code\slave_school\obj/../USER/isr.c:237
}
     502:	0001                	nop
     504:	4432                	lw	s0,12(sp)
     506:	0141                	addi	sp,sp,16
     508:	30200073          	mret

0000050c <NMI_Handler>:
NMI_Handler():
D:\Car\sure code\slave_school\obj/../USER/isr.c:246
* Description    : This function handles NMI exception.
* Input          : None
* Return         : None
*******************************************************************************/
void NMI_Handler(void)
{
     50c:	1141                	addi	sp,sp,-16
     50e:	c622                	sw	s0,12(sp)
     510:	0800                	addi	s0,sp,16
D:\Car\sure code\slave_school\obj/../USER/isr.c:248

}
     512:	0001                	nop
     514:	4432                	lw	s0,12(sp)
     516:	0141                	addi	sp,sp,16
     518:	30200073          	mret

0000051c <HardFault_Handler>:
HardFault_Handler():
D:\Car\sure code\slave_school\obj/../USER/isr.c:257
* Description    : This function handles Hard Fault exception.
* Input          : None
* Return         : None
*******************************************************************************/
void HardFault_Handler(void)
{
     51c:	1141                	addi	sp,sp,-16
     51e:	c622                	sw	s0,12(sp)
     520:	0800                	addi	s0,sp,16
D:\Car\sure code\slave_school\obj/../USER/isr.c:259 (discriminator 1)

  while (1)
     522:	a001                	j	522 <HardFault_Handler+0x6>

00000524 <read_c14gpio>:
read_c14gpio():
D:\Car\sure code\slave_school\obj/../USER/main.c:30
int16 i, w;

struct Button button1;
uint8_t buflag = 0;
uint8_t read_c14gpio(void)
{
     524:	1141                	addi	sp,sp,-16
     526:	c606                	sw	ra,12(sp)
     528:	c422                	sw	s0,8(sp)
     52a:	0800                	addi	s0,sp,16
D:\Car\sure code\slave_school\obj/../USER/main.c:31
    return gpio_get(C14);
     52c:	04e00513          	li	a0,78
     530:	397020ef          	jal	ra,30c6 <gpio_get>
     534:	87aa                	mv	a5,a0
D:\Car\sure code\slave_school\obj/../USER/main.c:32
}
     536:	853e                	mv	a0,a5
     538:	40b2                	lw	ra,12(sp)
     53a:	4422                	lw	s0,8(sp)
     53c:	0141                	addi	sp,sp,16
     53e:	8082                	ret

00000540 <btn1_press_up_Handler>:
btn1_press_up_Handler():
D:\Car\sure code\slave_school\obj/../USER/main.c:34
void btn1_press_up_Handler(void* btn)
{
     540:	1101                	addi	sp,sp,-32
     542:	ce22                	sw	s0,28(sp)
     544:	1000                	addi	s0,sp,32
     546:	fea42623          	sw	a0,-20(s0)
D:\Car\sure code\slave_school\obj/../USER/main.c:35
   buflag = !buflag;
     54a:	8261c783          	lbu	a5,-2010(gp) # 200000de <buflag>
     54e:	0017b793          	seqz	a5,a5
     552:	0ff7f793          	andi	a5,a5,255
     556:	873e                	mv	a4,a5
     558:	82e18323          	sb	a4,-2010(gp) # 200000de <buflag>
D:\Car\sure code\slave_school\obj/../USER/main.c:36
}
     55c:	0001                	nop
     55e:	4472                	lw	s0,28(sp)
     560:	6105                	addi	sp,sp,32
     562:	8082                	ret

00000564 <get_sensor_data>:
get_sensor_data():
D:\Car\sure code\slave_school\obj/../USER/main.c:45
//  @return     void
//  @since      v1.0
//  Sample usage:
//-------------------------------------------------------------------------------------------------------------------
void get_sensor_data(void)
{
     564:	1141                	addi	sp,sp,-16
     566:	c606                	sw	ra,12(sp)
     568:	c422                	sw	s0,8(sp)
     56a:	0800                	addi	s0,sp,16
D:\Car\sure code\slave_school\obj/../USER/main.c:46
    slave_encoder_LB = timer_quad_get(TIMER_3);      //B4-B5编码器取值
     56c:	4509                	li	a0,2
     56e:	1f6030ef          	jal	ra,3764 <timer_quad_get>
     572:	87aa                	mv	a5,a0
     574:	873e                	mv	a4,a5
     576:	80e19e23          	sh	a4,-2020(gp) # 200000d4 <slave_encoder_LB>
D:\Car\sure code\slave_school\obj/../USER/main.c:47
    slave_encoder_RB = timer_quad_get(TIMER_2);       //A15-B3编码器取值
     57a:	4505                	li	a0,1
     57c:	1e8030ef          	jal	ra,3764 <timer_quad_get>
     580:	87aa                	mv	a5,a0
     582:	873e                	mv	a4,a5
     584:	80e19d23          	sh	a4,-2022(gp) # 200000d2 <slave_encoder_RB>
D:\Car\sure code\slave_school\obj/../USER/main.c:48
    timer_quad_clear(TIMER_2);                          //清空计数器
     588:	4505                	li	a0,1
     58a:	20c030ef          	jal	ra,3796 <timer_quad_clear>
D:\Car\sure code\slave_school\obj/../USER/main.c:49
    timer_quad_clear(TIMER_3);                          //清空计数器
     58e:	4509                	li	a0,2
     590:	206030ef          	jal	ra,3796 <timer_quad_clear>
D:\Car\sure code\slave_school\obj/../USER/main.c:51

}
     594:	0001                	nop
     596:	40b2                	lw	ra,12(sp)
     598:	4422                	lw	s0,8(sp)
     59a:	0141                	addi	sp,sp,16
     59c:	8082                	ret

0000059e <process_data>:
process_data():
D:\Car\sure code\slave_school\obj/../USER/main.c:60
//  @return     void
//  @since      v1.0
//  Sample usage:
//-------------------------------------------------------------------------------------------------------------------
void process_data(void)
{
     59e:	1141                	addi	sp,sp,-16
     5a0:	c622                	sw	s0,12(sp)
     5a2:	0800                	addi	s0,sp,16
D:\Car\sure code\slave_school\obj/../USER/main.c:61
    temp_buff[0] = 0xD8;                         //帧头
     5a4:	fd800713          	li	a4,-40
     5a8:	84e18823          	sb	a4,-1968(gp) # 20000108 <temp_buff>
D:\Car\sure code\slave_school\obj/../USER/main.c:63

    temp_buff[1] = 0xB0;                         //功能字
     5ac:	85018793          	addi	a5,gp,-1968 # 20000108 <temp_buff>
     5b0:	fb000713          	li	a4,-80
     5b4:	00e780a3          	sb	a4,1(a5)
D:\Car\sure code\slave_school\obj/../USER/main.c:64
    temp_buff[2] = slave_encoder_RB>>8;        //数据高8位
     5b8:	81a19783          	lh	a5,-2022(gp) # 200000d2 <slave_encoder_RB>
     5bc:	87a1                	srai	a5,a5,0x8
     5be:	07c2                	slli	a5,a5,0x10
     5c0:	87c1                	srai	a5,a5,0x10
     5c2:	0ff7f713          	andi	a4,a5,255
     5c6:	85018793          	addi	a5,gp,-1968 # 20000108 <temp_buff>
     5ca:	00e78123          	sb	a4,2(a5)
D:\Car\sure code\slave_school\obj/../USER/main.c:65
    temp_buff[3] = slave_encoder_RB&0xFF;      //数据低8位
     5ce:	81a19783          	lh	a5,-2022(gp) # 200000d2 <slave_encoder_RB>
     5d2:	0ff7f713          	andi	a4,a5,255
     5d6:	85018793          	addi	a5,gp,-1968 # 20000108 <temp_buff>
     5da:	00e781a3          	sb	a4,3(a5)
D:\Car\sure code\slave_school\obj/../USER/main.c:67

    temp_buff[4] = 0xB1;                         //功能字
     5de:	85018793          	addi	a5,gp,-1968 # 20000108 <temp_buff>
     5e2:	fb100713          	li	a4,-79
     5e6:	00e78223          	sb	a4,4(a5)
D:\Car\sure code\slave_school\obj/../USER/main.c:68
    temp_buff[5] = slave_encoder_LB>>8;       //数据高8位
     5ea:	81c19783          	lh	a5,-2020(gp) # 200000d4 <slave_encoder_LB>
     5ee:	87a1                	srai	a5,a5,0x8
     5f0:	07c2                	slli	a5,a5,0x10
     5f2:	87c1                	srai	a5,a5,0x10
     5f4:	0ff7f713          	andi	a4,a5,255
     5f8:	85018793          	addi	a5,gp,-1968 # 20000108 <temp_buff>
     5fc:	00e782a3          	sb	a4,5(a5)
D:\Car\sure code\slave_school\obj/../USER/main.c:69
    temp_buff[6] = slave_encoder_LB&0xFF;     //数据低8位
     600:	81c19783          	lh	a5,-2020(gp) # 200000d4 <slave_encoder_LB>
     604:	0ff7f713          	andi	a4,a5,255
     608:	85018793          	addi	a5,gp,-1968 # 20000108 <temp_buff>
     60c:	00e78323          	sb	a4,6(a5)
D:\Car\sure code\slave_school\obj/../USER/main.c:71

    temp_buff[7] = 0xB2;                         //功能字
     610:	85018793          	addi	a5,gp,-1968 # 20000108 <temp_buff>
     614:	fb200713          	li	a4,-78
     618:	00e783a3          	sb	a4,7(a5)
D:\Car\sure code\slave_school\obj/../USER/main.c:72
    temp_buff[8] = tag3[symbals];            //数据1
     61c:	8c818793          	addi	a5,gp,-1848 # 20000180 <tag3>
     620:	00a7c703          	lbu	a4,10(a5)
     624:	85018793          	addi	a5,gp,-1968 # 20000108 <temp_buff>
     628:	00e78423          	sb	a4,8(a5)
D:\Car\sure code\slave_school\obj/../USER/main.c:74
    //temp_buff[8] = 0x05;
    temp_buff[9] = tag5;                     //数据2
     62c:	81e1c703          	lbu	a4,-2018(gp) # 200000d6 <tag5>
     630:	85018793          	addi	a5,gp,-1968 # 20000108 <temp_buff>
     634:	00e784a3          	sb	a4,9(a5)
D:\Car\sure code\slave_school\obj/../USER/main.c:75
    if (buflag == 0)
     638:	8261c783          	lbu	a5,-2010(gp) # 200000de <buflag>
     63c:	eb81                	bnez	a5,64c <process_data+0xae>
D:\Car\sure code\slave_school\obj/../USER/main.c:77
    {
        temp_buff[10] = 0xA1;
     63e:	85018793          	addi	a5,gp,-1968 # 20000108 <temp_buff>
     642:	fa100713          	li	a4,-95
     646:	00e78523          	sb	a4,10(a5)
     64a:	a039                	j	658 <process_data+0xba>
D:\Car\sure code\slave_school\obj/../USER/main.c:81
    }
    else
    {
        temp_buff[10] = 0xA2;
     64c:	85018793          	addi	a5,gp,-1968 # 20000108 <temp_buff>
     650:	fa200713          	li	a4,-94
     654:	00e78523          	sb	a4,10(a5)
D:\Car\sure code\slave_school\obj/../USER/main.c:83
    }
    temp_buff[11] = STA_FLAG;
     658:	8191c703          	lbu	a4,-2023(gp) # 200000d1 <STA_FLAG>
     65c:	85018793          	addi	a5,gp,-1968 # 20000108 <temp_buff>
     660:	00e785a3          	sb	a4,11(a5)
D:\Car\sure code\slave_school\obj/../USER/main.c:84
    temp_buff[12] = 0xEE;                        //帧尾
     664:	85018793          	addi	a5,gp,-1968 # 20000108 <temp_buff>
     668:	5739                	li	a4,-18
     66a:	00e78623          	sb	a4,12(a5)
D:\Car\sure code\slave_school\obj/../USER/main.c:85
}
     66e:	0001                	nop
     670:	4432                	lw	s0,12(sp)
     672:	0141                	addi	sp,sp,16
     674:	8082                	ret

00000676 <TIM4_IRQHandler>:
TIM4_IRQHandler():
D:\Car\sure code\slave_school\obj/../USER/main.c:96
//  @since      v1.0
//  Sample usage:
//-------------------------------------------------------------------------------------------------------------------
void TIM4_IRQHandler(void) __attribute__((interrupt("WCH-Interrupt-fast")));
void TIM4_IRQHandler(void)
{
     676:	1141                	addi	sp,sp,-16
     678:	c622                	sw	s0,12(sp)
     67a:	0800                	addi	s0,sp,16
D:\Car\sure code\slave_school\obj/../USER/main.c:97
    if(TIM_GetITStatus(TIM4, TIM_IT_Update) != RESET)
     67c:	4585                	li	a1,1
     67e:	400017b7          	lui	a5,0x40001
     682:	80078513          	addi	a0,a5,-2048 # 40000800 <_eusrstack+0x1fffb800>
     686:	331010ef          	jal	ra,21b6 <TIM_GetITStatus>
     68a:	87aa                	mv	a5,a0
     68c:	cf85                	beqz	a5,6c4 <TIM4_IRQHandler+0x4e>
D:\Car\sure code\slave_school\obj/../USER/main.c:99
    {
        TIM_ClearITPendingBit(TIM4, TIM_IT_Update);
     68e:	4585                	li	a1,1
     690:	400017b7          	lui	a5,0x40001
     694:	80078513          	addi	a0,a5,-2048 # 40000800 <_eusrstack+0x1fffb800>
     698:	38f010ef          	jal	ra,2226 <TIM_ClearITPendingBit>
D:\Car\sure code\slave_school\obj/../USER/main.c:100
        gpio_set(B0,1);                           //A0引脚拉高
     69c:	4585                	li	a1,1
     69e:	02000513          	li	a0,32
     6a2:	1a7020ef          	jal	ra,3048 <gpio_set>
D:\Car\sure code\slave_school\obj/../USER/main.c:102

        get_sensor_data();                          //获取传感器数据。
     6a6:	3d7d                	jal	564 <get_sensor_data>
D:\Car\sure code\slave_school\obj/../USER/main.c:103
        process_data();                             //根据协议处理数据，并存入temp_buff中。
     6a8:	3ddd                	jal	59e <process_data>
D:\Car\sure code\slave_school\obj/../USER/main.c:104
        uart_putbuff(UART_1, temp_buff, LINE_LEN);  //通过串口1将数据发送出去。
     6aa:	4635                	li	a2,13
     6ac:	85018593          	addi	a1,gp,-1968 # 20000108 <temp_buff>
     6b0:	4501                	li	a0,0
     6b2:	3e4030ef          	jal	ra,3a96 <uart_putbuff>
D:\Car\sure code\slave_school\obj/../USER/main.c:105
        button_ticks();
     6b6:	4cd030ef          	jal	ra,4382 <button_ticks>
D:\Car\sure code\slave_school\obj/../USER/main.c:106
        gpio_set(B0, 0);                         //A0引脚拉低
     6ba:	4581                	li	a1,0
     6bc:	02000513          	li	a0,32
     6c0:	189020ef          	jal	ra,3048 <gpio_set>
D:\Car\sure code\slave_school\obj/../USER/main.c:108
    }
}
     6c4:	0001                	nop
     6c6:	4432                	lw	s0,12(sp)
     6c8:	0141                	addi	sp,sp,16
     6ca:	30200073          	mret

000006ce <whu>:
whu():
D:\Car\sure code\slave_school\obj/../USER/main.c:198
        else tag8 = 0;
        tag3[i] = (tag1[i] + tag2[i]) / 2;               //取中线，改变后面计算
    }
}
void whu(void)
{
     6ce:	1101                	addi	sp,sp,-32
     6d0:	ce22                	sw	s0,28(sp)
     6d2:	1000                	addi	s0,sp,32
D:\Car\sure code\slave_school\obj/../USER/main.c:199
    tag8 = 1;
     6d4:	200007b7          	lui	a5,0x20000
     6d8:	4705                	li	a4,1
     6da:	0ae78c23          	sb	a4,184(a5) # 200000b8 <tag8>
D:\Car\sure code\slave_school\obj/../USER/main.c:200
        tag5 = 0;
     6de:	80018f23          	sb	zero,-2018(gp) # 200000d6 <tag5>
D:\Car\sure code\slave_school\obj/../USER/main.c:201
        tag1[49] = 184;
     6e2:	86018793          	addi	a5,gp,-1952 # 20000118 <tag1>
     6e6:	fb800713          	li	a4,-72
     6ea:	02e788a3          	sb	a4,49(a5)
D:\Car\sure code\slave_school\obj/../USER/main.c:202
        tag2[49] = 10;
     6ee:	89418793          	addi	a5,gp,-1900 # 2000014c <tag2>
     6f2:	4729                	li	a4,10
     6f4:	02e788a3          	sb	a4,49(a5)
D:\Car\sure code\slave_school\obj/../USER/main.c:203
        for (i = MT9V03X_H - 2; i >= 0; i--)      //取左右边界
     6f8:	03000713          	li	a4,48
     6fc:	82e19123          	sh	a4,-2014(gp) # 200000da <i>
     700:	ab7d                	j	cbe <__stack_size+0x4be>
D:\Car\sure code\slave_school\obj/../USER/main.c:205
        {
            tag3[i] = 97;                          //取中线
     702:	82219783          	lh	a5,-2014(gp) # 200000da <i>
     706:	873e                	mv	a4,a5
     708:	8c818793          	addi	a5,gp,-1848 # 20000180 <tag3>
     70c:	97ba                	add	a5,a5,a4
     70e:	06100713          	li	a4,97
     712:	00e78023          	sb	a4,0(a5)
D:\Car\sure code\slave_school\obj/../USER/main.c:206
            tag1[i] = 184;
     716:	82219783          	lh	a5,-2014(gp) # 200000da <i>
     71a:	873e                	mv	a4,a5
     71c:	86018793          	addi	a5,gp,-1952 # 20000118 <tag1>
     720:	97ba                	add	a5,a5,a4
     722:	fb800713          	li	a4,-72
     726:	00e78023          	sb	a4,0(a5)
D:\Car\sure code\slave_school\obj/../USER/main.c:207
            tag2[i] = 10;
     72a:	82219783          	lh	a5,-2014(gp) # 200000da <i>
     72e:	873e                	mv	a4,a5
     730:	89418793          	addi	a5,gp,-1900 # 2000014c <tag2>
     734:	97ba                	add	a5,a5,a4
     736:	4729                	li	a4,10
     738:	00e78023          	sb	a4,0(a5)
D:\Car\sure code\slave_school\obj/../USER/main.c:208
            tag6 = 0;
     73c:	80018fa3          	sb	zero,-2017(gp) # 200000d7 <tag6>
D:\Car\sure code\slave_school\obj/../USER/main.c:209
            tag7 = 0;
     740:	82018023          	sb	zero,-2016(gp) # 200000d8 <tag7>
D:\Car\sure code\slave_school\obj/../USER/main.c:210
            for (w = tag3[i]; w < MT9V03X_W - 1; w++)
     744:	82219783          	lh	a5,-2014(gp) # 200000da <i>
     748:	873e                	mv	a4,a5
     74a:	8c818793          	addi	a5,gp,-1848 # 20000180 <tag3>
     74e:	97ba                	add	a5,a5,a4
     750:	0007c783          	lbu	a5,0(a5)
     754:	01079713          	slli	a4,a5,0x10
     758:	8741                	srai	a4,a4,0x10
     75a:	82e19223          	sh	a4,-2012(gp) # 200000dc <w>
     75e:	a275                	j	90a <__stack_size+0x10a>
D:\Car\sure code\slave_school\obj/../USER/main.c:212
            {
                if ((mt9v03x_image[i][w] - mt9v03x_image[i][w-1] > chazhi && mt9v03x_image[i][w] > mt9v03x_image[i][w-1]) || (mt9v03x_image[i][w-1] - mt9v03x_image[i][w] > chazhi && mt9v03x_image[i][w] < mt9v03x_image[i][w-1]))
     760:	82219783          	lh	a5,-2014(gp) # 200000da <i>
     764:	863e                	mv	a2,a5
     766:	82419783          	lh	a5,-2012(gp) # 200000dc <w>
     76a:	86be                	mv	a3,a5
     76c:	200007b7          	lui	a5,0x20000
     770:	0bc00713          	li	a4,188
     774:	02e60733          	mul	a4,a2,a4
     778:	1dc78793          	addi	a5,a5,476 # 200001dc <mt9v03x_image>
     77c:	97ba                	add	a5,a5,a4
     77e:	97b6                	add	a5,a5,a3
     780:	0007c783          	lbu	a5,0(a5)
     784:	863e                	mv	a2,a5
     786:	82219783          	lh	a5,-2014(gp) # 200000da <i>
     78a:	85be                	mv	a1,a5
     78c:	82419783          	lh	a5,-2012(gp) # 200000dc <w>
     790:	17fd                	addi	a5,a5,-1
     792:	20000737          	lui	a4,0x20000
     796:	0bc00693          	li	a3,188
     79a:	02d586b3          	mul	a3,a1,a3
     79e:	1dc70713          	addi	a4,a4,476 # 200001dc <mt9v03x_image>
     7a2:	9736                	add	a4,a4,a3
     7a4:	97ba                	add	a5,a5,a4
     7a6:	0007c783          	lbu	a5,0(a5)
     7aa:	40f60733          	sub	a4,a2,a5
     7ae:	47f9                	li	a5,30
     7b0:	04e7d863          	bge	a5,a4,800 <__stack_size>
D:\Car\sure code\slave_school\obj/../USER/main.c:212 (discriminator 1)
     7b4:	82219783          	lh	a5,-2014(gp) # 200000da <i>
     7b8:	863e                	mv	a2,a5
     7ba:	82419783          	lh	a5,-2012(gp) # 200000dc <w>
     7be:	86be                	mv	a3,a5
     7c0:	200007b7          	lui	a5,0x20000
     7c4:	0bc00713          	li	a4,188
     7c8:	02e60733          	mul	a4,a2,a4
     7cc:	1dc78793          	addi	a5,a5,476 # 200001dc <mt9v03x_image>
     7d0:	97ba                	add	a5,a5,a4
     7d2:	97b6                	add	a5,a5,a3
     7d4:	0007c703          	lbu	a4,0(a5)
     7d8:	82219783          	lh	a5,-2014(gp) # 200000da <i>
     7dc:	85be                	mv	a1,a5
     7de:	82419783          	lh	a5,-2012(gp) # 200000dc <w>
     7e2:	17fd                	addi	a5,a5,-1
     7e4:	200006b7          	lui	a3,0x20000
     7e8:	0bc00613          	li	a2,188
     7ec:	02c58633          	mul	a2,a1,a2
     7f0:	1dc68693          	addi	a3,a3,476 # 200001dc <mt9v03x_image>
     7f4:	96b2                	add	a3,a3,a2
     7f6:	97b6                	add	a5,a5,a3
     7f8:	0007c783          	lbu	a5,0(a5)
     7fc:	0ae7e263          	bltu	a5,a4,8a0 <__stack_size+0xa0>
D:\Car\sure code\slave_school\obj/../USER/main.c:212 (discriminator 3)
     800:	82219783          	lh	a5,-2014(gp) # 200000da <i>
     804:	863e                	mv	a2,a5
     806:	82419783          	lh	a5,-2012(gp) # 200000dc <w>
     80a:	17fd                	addi	a5,a5,-1
     80c:	20000737          	lui	a4,0x20000
     810:	0bc00693          	li	a3,188
     814:	02d606b3          	mul	a3,a2,a3
     818:	1dc70713          	addi	a4,a4,476 # 200001dc <mt9v03x_image>
     81c:	9736                	add	a4,a4,a3
     81e:	97ba                	add	a5,a5,a4
     820:	0007c783          	lbu	a5,0(a5)
     824:	86be                	mv	a3,a5
     826:	82219783          	lh	a5,-2014(gp) # 200000da <i>
     82a:	85be                	mv	a1,a5
     82c:	82419783          	lh	a5,-2012(gp) # 200000dc <w>
     830:	863e                	mv	a2,a5
     832:	200007b7          	lui	a5,0x20000
     836:	0bc00713          	li	a4,188
     83a:	02e58733          	mul	a4,a1,a4
     83e:	1dc78793          	addi	a5,a5,476 # 200001dc <mt9v03x_image>
     842:	97ba                	add	a5,a5,a4
     844:	97b2                	add	a5,a5,a2
     846:	0007c783          	lbu	a5,0(a5)
     84a:	40f68733          	sub	a4,a3,a5
     84e:	47f9                	li	a5,30
     850:	06e7d863          	bge	a5,a4,8c0 <__stack_size+0xc0>
D:\Car\sure code\slave_school\obj/../USER/main.c:212 (discriminator 4)
     854:	82219783          	lh	a5,-2014(gp) # 200000da <i>
     858:	863e                	mv	a2,a5
     85a:	82419783          	lh	a5,-2012(gp) # 200000dc <w>
     85e:	86be                	mv	a3,a5
     860:	200007b7          	lui	a5,0x20000
     864:	0bc00713          	li	a4,188
     868:	02e60733          	mul	a4,a2,a4
     86c:	1dc78793          	addi	a5,a5,476 # 200001dc <mt9v03x_image>
     870:	97ba                	add	a5,a5,a4
     872:	97b6                	add	a5,a5,a3
     874:	0007c703          	lbu	a4,0(a5)
     878:	82219783          	lh	a5,-2014(gp) # 200000da <i>
     87c:	85be                	mv	a1,a5
     87e:	82419783          	lh	a5,-2012(gp) # 200000dc <w>
     882:	17fd                	addi	a5,a5,-1
     884:	200006b7          	lui	a3,0x20000
     888:	0bc00613          	li	a2,188
     88c:	02c58633          	mul	a2,a1,a2
     890:	1dc68693          	addi	a3,a3,476 # 200001dc <mt9v03x_image>
     894:	96b2                	add	a3,a3,a2
     896:	97b6                	add	a5,a5,a3
     898:	0007c783          	lbu	a5,0(a5)
     89c:	02f77263          	bgeu	a4,a5,8c0 <__stack_size+0xc0>
D:\Car\sure code\slave_school\obj/../USER/main.c:214
                {
                    tag1[i] = w;
     8a0:	82419703          	lh	a4,-2012(gp) # 200000dc <w>
     8a4:	82219783          	lh	a5,-2014(gp) # 200000da <i>
     8a8:	86be                	mv	a3,a5
     8aa:	0ff77713          	andi	a4,a4,255
     8ae:	86018793          	addi	a5,gp,-1952 # 20000118 <tag1>
     8b2:	97b6                	add	a5,a5,a3
     8b4:	00e78023          	sb	a4,0(a5)
D:\Car\sure code\slave_school\obj/../USER/main.c:215
                    tag6 = 1;
     8b8:	4705                	li	a4,1
     8ba:	80e18fa3          	sb	a4,-2017(gp) # 200000d7 <tag6>
D:\Car\sure code\slave_school\obj/../USER/main.c:216
                    break;
     8be:	a8a1                	j	916 <__stack_size+0x116>
D:\Car\sure code\slave_school\obj/../USER/main.c:218
                }
                if (mt9v03x_image[i][w] < white)
     8c0:	82219783          	lh	a5,-2014(gp) # 200000da <i>
     8c4:	863e                	mv	a2,a5
     8c6:	82419783          	lh	a5,-2012(gp) # 200000dc <w>
     8ca:	86be                	mv	a3,a5
     8cc:	200007b7          	lui	a5,0x20000
     8d0:	0bc00713          	li	a4,188
     8d4:	02e60733          	mul	a4,a2,a4
     8d8:	1dc78793          	addi	a5,a5,476 # 200001dc <mt9v03x_image>
     8dc:	97ba                	add	a5,a5,a4
     8de:	97b6                	add	a5,a5,a3
     8e0:	0007c703          	lbu	a4,0(a5)
     8e4:	06300793          	li	a5,99
     8e8:	00e7e563          	bltu	a5,a4,8f2 <__stack_size+0xf2>
D:\Car\sure code\slave_school\obj/../USER/main.c:220
                {
                    tag6 = 1;
     8ec:	4705                	li	a4,1
     8ee:	80e18fa3          	sb	a4,-2017(gp) # 200000d7 <tag6>
D:\Car\sure code\slave_school\obj/../USER/main.c:210 (discriminator 2)
            for (w = tag3[i]; w < MT9V03X_W - 1; w++)
     8f2:	82419783          	lh	a5,-2012(gp) # 200000dc <w>
     8f6:	07c2                	slli	a5,a5,0x10
     8f8:	83c1                	srli	a5,a5,0x10
     8fa:	0785                	addi	a5,a5,1
     8fc:	07c2                	slli	a5,a5,0x10
     8fe:	83c1                	srli	a5,a5,0x10
     900:	01079713          	slli	a4,a5,0x10
     904:	8741                	srai	a4,a4,0x10
     906:	82e19223          	sh	a4,-2012(gp) # 200000dc <w>
D:\Car\sure code\slave_school\obj/../USER/main.c:210 (discriminator 1)
     90a:	82419703          	lh	a4,-2012(gp) # 200000dc <w>
     90e:	0ba00793          	li	a5,186
     912:	e4e7d7e3          	bge	a5,a4,760 <whu+0x92>
D:\Car\sure code\slave_school\obj/../USER/main.c:223
                }
            }
            for (w = tag3[i]; w >= 0; w--)
     916:	82219783          	lh	a5,-2014(gp) # 200000da <i>
     91a:	873e                	mv	a4,a5
     91c:	8c818793          	addi	a5,gp,-1848 # 20000180 <tag3>
     920:	97ba                	add	a5,a5,a4
     922:	0007c783          	lbu	a5,0(a5)
     926:	01079713          	slli	a4,a5,0x10
     92a:	8741                	srai	a4,a4,0x10
     92c:	82e19223          	sh	a4,-2012(gp) # 200000dc <w>
     930:	a275                	j	adc <__stack_size+0x2dc>
D:\Car\sure code\slave_school\obj/../USER/main.c:225
            {
                if ((mt9v03x_image[i][w] - mt9v03x_image[i][w+1] > chazhi && mt9v03x_image[i][w] > mt9v03x_image[i][w+1]) || (mt9v03x_image[i][w+1] - mt9v03x_image[i][w] > chazhi && mt9v03x_image[i][w] < mt9v03x_image[i][w+1]))
     932:	82219783          	lh	a5,-2014(gp) # 200000da <i>
     936:	863e                	mv	a2,a5
     938:	82419783          	lh	a5,-2012(gp) # 200000dc <w>
     93c:	86be                	mv	a3,a5
     93e:	200007b7          	lui	a5,0x20000
     942:	0bc00713          	li	a4,188
     946:	02e60733          	mul	a4,a2,a4
     94a:	1dc78793          	addi	a5,a5,476 # 200001dc <mt9v03x_image>
     94e:	97ba                	add	a5,a5,a4
     950:	97b6                	add	a5,a5,a3
     952:	0007c783          	lbu	a5,0(a5)
     956:	863e                	mv	a2,a5
     958:	82219783          	lh	a5,-2014(gp) # 200000da <i>
     95c:	85be                	mv	a1,a5
     95e:	82419783          	lh	a5,-2012(gp) # 200000dc <w>
     962:	0785                	addi	a5,a5,1
     964:	20000737          	lui	a4,0x20000
     968:	0bc00693          	li	a3,188
     96c:	02d586b3          	mul	a3,a1,a3
     970:	1dc70713          	addi	a4,a4,476 # 200001dc <mt9v03x_image>
     974:	9736                	add	a4,a4,a3
     976:	97ba                	add	a5,a5,a4
     978:	0007c783          	lbu	a5,0(a5)
     97c:	40f60733          	sub	a4,a2,a5
     980:	47f9                	li	a5,30
     982:	04e7d863          	bge	a5,a4,9d2 <__stack_size+0x1d2>
D:\Car\sure code\slave_school\obj/../USER/main.c:225 (discriminator 1)
     986:	82219783          	lh	a5,-2014(gp) # 200000da <i>
     98a:	863e                	mv	a2,a5
     98c:	82419783          	lh	a5,-2012(gp) # 200000dc <w>
     990:	86be                	mv	a3,a5
     992:	200007b7          	lui	a5,0x20000
     996:	0bc00713          	li	a4,188
     99a:	02e60733          	mul	a4,a2,a4
     99e:	1dc78793          	addi	a5,a5,476 # 200001dc <mt9v03x_image>
     9a2:	97ba                	add	a5,a5,a4
     9a4:	97b6                	add	a5,a5,a3
     9a6:	0007c703          	lbu	a4,0(a5)
     9aa:	82219783          	lh	a5,-2014(gp) # 200000da <i>
     9ae:	85be                	mv	a1,a5
     9b0:	82419783          	lh	a5,-2012(gp) # 200000dc <w>
     9b4:	0785                	addi	a5,a5,1
     9b6:	200006b7          	lui	a3,0x20000
     9ba:	0bc00613          	li	a2,188
     9be:	02c58633          	mul	a2,a1,a2
     9c2:	1dc68693          	addi	a3,a3,476 # 200001dc <mt9v03x_image>
     9c6:	96b2                	add	a3,a3,a2
     9c8:	97b6                	add	a5,a5,a3
     9ca:	0007c783          	lbu	a5,0(a5)
     9ce:	0ae7e263          	bltu	a5,a4,a72 <__stack_size+0x272>
D:\Car\sure code\slave_school\obj/../USER/main.c:225 (discriminator 3)
     9d2:	82219783          	lh	a5,-2014(gp) # 200000da <i>
     9d6:	863e                	mv	a2,a5
     9d8:	82419783          	lh	a5,-2012(gp) # 200000dc <w>
     9dc:	0785                	addi	a5,a5,1
     9de:	20000737          	lui	a4,0x20000
     9e2:	0bc00693          	li	a3,188
     9e6:	02d606b3          	mul	a3,a2,a3
     9ea:	1dc70713          	addi	a4,a4,476 # 200001dc <mt9v03x_image>
     9ee:	9736                	add	a4,a4,a3
     9f0:	97ba                	add	a5,a5,a4
     9f2:	0007c783          	lbu	a5,0(a5)
     9f6:	86be                	mv	a3,a5
     9f8:	82219783          	lh	a5,-2014(gp) # 200000da <i>
     9fc:	85be                	mv	a1,a5
     9fe:	82419783          	lh	a5,-2012(gp) # 200000dc <w>
     a02:	863e                	mv	a2,a5
     a04:	200007b7          	lui	a5,0x20000
     a08:	0bc00713          	li	a4,188
     a0c:	02e58733          	mul	a4,a1,a4
     a10:	1dc78793          	addi	a5,a5,476 # 200001dc <mt9v03x_image>
     a14:	97ba                	add	a5,a5,a4
     a16:	97b2                	add	a5,a5,a2
     a18:	0007c783          	lbu	a5,0(a5)
     a1c:	40f68733          	sub	a4,a3,a5
     a20:	47f9                	li	a5,30
     a22:	06e7d863          	bge	a5,a4,a92 <__stack_size+0x292>
D:\Car\sure code\slave_school\obj/../USER/main.c:225 (discriminator 4)
     a26:	82219783          	lh	a5,-2014(gp) # 200000da <i>
     a2a:	863e                	mv	a2,a5
     a2c:	82419783          	lh	a5,-2012(gp) # 200000dc <w>
     a30:	86be                	mv	a3,a5
     a32:	200007b7          	lui	a5,0x20000
     a36:	0bc00713          	li	a4,188
     a3a:	02e60733          	mul	a4,a2,a4
     a3e:	1dc78793          	addi	a5,a5,476 # 200001dc <mt9v03x_image>
     a42:	97ba                	add	a5,a5,a4
     a44:	97b6                	add	a5,a5,a3
     a46:	0007c703          	lbu	a4,0(a5)
     a4a:	82219783          	lh	a5,-2014(gp) # 200000da <i>
     a4e:	85be                	mv	a1,a5
     a50:	82419783          	lh	a5,-2012(gp) # 200000dc <w>
     a54:	0785                	addi	a5,a5,1
     a56:	200006b7          	lui	a3,0x20000
     a5a:	0bc00613          	li	a2,188
     a5e:	02c58633          	mul	a2,a1,a2
     a62:	1dc68693          	addi	a3,a3,476 # 200001dc <mt9v03x_image>
     a66:	96b2                	add	a3,a3,a2
     a68:	97b6                	add	a5,a5,a3
     a6a:	0007c783          	lbu	a5,0(a5)
     a6e:	02f77263          	bgeu	a4,a5,a92 <__stack_size+0x292>
D:\Car\sure code\slave_school\obj/../USER/main.c:227
                {
                    tag2[i] = w;
     a72:	82419703          	lh	a4,-2012(gp) # 200000dc <w>
     a76:	82219783          	lh	a5,-2014(gp) # 200000da <i>
     a7a:	86be                	mv	a3,a5
     a7c:	0ff77713          	andi	a4,a4,255
     a80:	89418793          	addi	a5,gp,-1900 # 2000014c <tag2>
     a84:	97b6                	add	a5,a5,a3
     a86:	00e78023          	sb	a4,0(a5)
D:\Car\sure code\slave_school\obj/../USER/main.c:228
                    tag7 = 1;
     a8a:	4705                	li	a4,1
     a8c:	82e18023          	sb	a4,-2016(gp) # 200000d8 <tag7>
D:\Car\sure code\slave_school\obj/../USER/main.c:229
                    break;
     a90:	a891                	j	ae4 <__stack_size+0x2e4>
D:\Car\sure code\slave_school\obj/../USER/main.c:231
                }
                if (mt9v03x_image[i][w] < white)
     a92:	82219783          	lh	a5,-2014(gp) # 200000da <i>
     a96:	863e                	mv	a2,a5
     a98:	82419783          	lh	a5,-2012(gp) # 200000dc <w>
     a9c:	86be                	mv	a3,a5
     a9e:	200007b7          	lui	a5,0x20000
     aa2:	0bc00713          	li	a4,188
     aa6:	02e60733          	mul	a4,a2,a4
     aaa:	1dc78793          	addi	a5,a5,476 # 200001dc <mt9v03x_image>
     aae:	97ba                	add	a5,a5,a4
     ab0:	97b6                	add	a5,a5,a3
     ab2:	0007c703          	lbu	a4,0(a5)
     ab6:	06300793          	li	a5,99
     aba:	00e7e563          	bltu	a5,a4,ac4 <__stack_size+0x2c4>
D:\Car\sure code\slave_school\obj/../USER/main.c:233
                {
                    tag7 = 1;
     abe:	4705                	li	a4,1
     ac0:	82e18023          	sb	a4,-2016(gp) # 200000d8 <tag7>
D:\Car\sure code\slave_school\obj/../USER/main.c:223 (discriminator 2)
            for (w = tag3[i]; w >= 0; w--)
     ac4:	82419783          	lh	a5,-2012(gp) # 200000dc <w>
     ac8:	07c2                	slli	a5,a5,0x10
     aca:	83c1                	srli	a5,a5,0x10
     acc:	17fd                	addi	a5,a5,-1
     ace:	07c2                	slli	a5,a5,0x10
     ad0:	83c1                	srli	a5,a5,0x10
     ad2:	01079713          	slli	a4,a5,0x10
     ad6:	8741                	srai	a4,a4,0x10
     ad8:	82e19223          	sh	a4,-2012(gp) # 200000dc <w>
D:\Car\sure code\slave_school\obj/../USER/main.c:223 (discriminator 1)
     adc:	82419783          	lh	a5,-2012(gp) # 200000dc <w>
     ae0:	e407d9e3          	bgez	a5,932 <__stack_size+0x132>
D:\Car\sure code\slave_school\obj/../USER/main.c:236
                }
            }
            if (tag6 == 0 || tag7 == 0)
     ae4:	81f1c783          	lbu	a5,-2017(gp) # 200000d7 <tag6>
     ae8:	c789                	beqz	a5,af2 <__stack_size+0x2f2>
D:\Car\sure code\slave_school\obj/../USER/main.c:236 (discriminator 1)
     aea:	8201c783          	lbu	a5,-2016(gp) # 200000d8 <tag7>
     aee:	0e079363          	bnez	a5,bd4 <__stack_size+0x3d4>
D:\Car\sure code\slave_school\obj/../USER/main.c:252
                if (i > 35)
                        {
                            tag1[i] = 94;
                            tag2[i] = 94;
                        }*/
                if (i == 30 && tag8 == 0 && (tag6 == 0 && tag7 == 0))
     af2:	82219703          	lh	a4,-2014(gp) # 200000da <i>
     af6:	47f9                	li	a5,30
     af8:	02f71263          	bne	a4,a5,b1c <__stack_size+0x31c>
D:\Car\sure code\slave_school\obj/../USER/main.c:252 (discriminator 1)
     afc:	200007b7          	lui	a5,0x20000
     b00:	0b87c783          	lbu	a5,184(a5) # 200000b8 <tag8>
     b04:	ef81                	bnez	a5,b1c <__stack_size+0x31c>
D:\Car\sure code\slave_school\obj/../USER/main.c:252 (discriminator 2)
     b06:	81f1c783          	lbu	a5,-2017(gp) # 200000d7 <tag6>
     b0a:	eb89                	bnez	a5,b1c <__stack_size+0x31c>
D:\Car\sure code\slave_school\obj/../USER/main.c:252 (discriminator 3)
     b0c:	8201c783          	lbu	a5,-2016(gp) # 200000d8 <tag7>
     b10:	e791                	bnez	a5,b1c <__stack_size+0x31c>
D:\Car\sure code\slave_school\obj/../USER/main.c:254
                                        {
                                            tag5 = 0xf1;
     b12:	5745                	li	a4,-15
     b14:	80e18f23          	sb	a4,-2018(gp) # 200000d6 <tag5>
D:\Car\sure code\slave_school\obj/../USER/main.c:255
                                            tag9 = 0;
     b18:	820180a3          	sb	zero,-2015(gp) # 200000d9 <tag9>
D:\Car\sure code\slave_school\obj/../USER/main.c:257
                                        }
                                    if (i > 35)
     b1c:	82219703          	lh	a4,-2014(gp) # 200000da <i>
     b20:	02300793          	li	a5,35
     b24:	02e7dc63          	bge	a5,a4,b5c <__stack_size+0x35c>
D:\Car\sure code\slave_school\obj/../USER/main.c:259
                                    {
                                        if (tag6 == 0) tag1[i] = 184;
     b28:	81f1c783          	lbu	a5,-2017(gp) # 200000d7 <tag6>
     b2c:	eb99                	bnez	a5,b42 <__stack_size+0x342>
D:\Car\sure code\slave_school\obj/../USER/main.c:259 (discriminator 1)
     b2e:	82219783          	lh	a5,-2014(gp) # 200000da <i>
     b32:	873e                	mv	a4,a5
     b34:	86018793          	addi	a5,gp,-1952 # 20000118 <tag1>
     b38:	97ba                	add	a5,a5,a4
     b3a:	fb800713          	li	a4,-72
     b3e:	00e78023          	sb	a4,0(a5)
D:\Car\sure code\slave_school\obj/../USER/main.c:260
                                        if (tag7 == 0) tag2[i] = 10;
     b42:	8201c783          	lbu	a5,-2016(gp) # 200000d8 <tag7>
     b46:	efa9                	bnez	a5,ba0 <__stack_size+0x3a0>
D:\Car\sure code\slave_school\obj/../USER/main.c:260 (discriminator 1)
     b48:	82219783          	lh	a5,-2014(gp) # 200000da <i>
     b4c:	873e                	mv	a4,a5
     b4e:	89418793          	addi	a5,gp,-1900 # 2000014c <tag2>
     b52:	97ba                	add	a5,a5,a4
     b54:	4729                	li	a4,10
     b56:	00e78023          	sb	a4,0(a5)
     b5a:	a099                	j	ba0 <__stack_size+0x3a0>
D:\Car\sure code\slave_school\obj/../USER/main.c:264
                                    }
                                    else
                                    {
                                        tag1[i] = tag1[i+1];
     b5c:	82219783          	lh	a5,-2014(gp) # 200000da <i>
     b60:	00178713          	addi	a4,a5,1
     b64:	82219783          	lh	a5,-2014(gp) # 200000da <i>
     b68:	86be                	mv	a3,a5
     b6a:	86018793          	addi	a5,gp,-1952 # 20000118 <tag1>
     b6e:	97ba                	add	a5,a5,a4
     b70:	0007c703          	lbu	a4,0(a5)
     b74:	86018793          	addi	a5,gp,-1952 # 20000118 <tag1>
     b78:	97b6                	add	a5,a5,a3
     b7a:	00e78023          	sb	a4,0(a5)
D:\Car\sure code\slave_school\obj/../USER/main.c:265
                                        tag2[i] = tag2[i+1];
     b7e:	82219783          	lh	a5,-2014(gp) # 200000da <i>
     b82:	00178713          	addi	a4,a5,1
     b86:	82219783          	lh	a5,-2014(gp) # 200000da <i>
     b8a:	86be                	mv	a3,a5
     b8c:	89418793          	addi	a5,gp,-1900 # 2000014c <tag2>
     b90:	97ba                	add	a5,a5,a4
     b92:	0007c703          	lbu	a4,0(a5)
     b96:	89418793          	addi	a5,gp,-1900 # 2000014c <tag2>
     b9a:	97b6                	add	a5,a5,a3
     b9c:	00e78023          	sb	a4,0(a5)
D:\Car\sure code\slave_school\obj/../USER/main.c:267
                                    }
                                        if (tag6 == 0 && tag7 == 0)
     ba0:	81f1c783          	lbu	a5,-2017(gp) # 200000d7 <tag6>
     ba4:	ef8d                	bnez	a5,bde <__stack_size+0x3de>
D:\Car\sure code\slave_school\obj/../USER/main.c:267 (discriminator 1)
     ba6:	8201c783          	lbu	a5,-2016(gp) # 200000d8 <tag7>
     baa:	eb95                	bnez	a5,bde <__stack_size+0x3de>
D:\Car\sure code\slave_school\obj/../USER/main.c:269
                                        {
                                            tag1[i] = 184;
     bac:	82219783          	lh	a5,-2014(gp) # 200000da <i>
     bb0:	873e                	mv	a4,a5
     bb2:	86018793          	addi	a5,gp,-1952 # 20000118 <tag1>
     bb6:	97ba                	add	a5,a5,a4
     bb8:	fb800713          	li	a4,-72
     bbc:	00e78023          	sb	a4,0(a5)
D:\Car\sure code\slave_school\obj/../USER/main.c:270
                                            tag2[i] = 10;
     bc0:	82219783          	lh	a5,-2014(gp) # 200000da <i>
     bc4:	873e                	mv	a4,a5
     bc6:	89418793          	addi	a5,gp,-1900 # 2000014c <tag2>
     bca:	97ba                	add	a5,a5,a4
     bcc:	4729                	li	a4,10
     bce:	00e78023          	sb	a4,0(a5)
D:\Car\sure code\slave_school\obj/../USER/main.c:267
                                        if (tag6 == 0 && tag7 == 0)
     bd2:	a031                	j	bde <__stack_size+0x3de>
D:\Car\sure code\slave_school\obj/../USER/main.c:273
                                        }
            }
            else tag8 = 0;
     bd4:	200007b7          	lui	a5,0x20000
     bd8:	0a078c23          	sb	zero,184(a5) # 200000b8 <tag8>
     bdc:	a011                	j	be0 <__stack_size+0x3e0>
D:\Car\sure code\slave_school\obj/../USER/main.c:267
                                        if (tag6 == 0 && tag7 == 0)
     bde:	0001                	nop
D:\Car\sure code\slave_school\obj/../USER/main.c:274
            tag3[i] = (tag1[i] + tag2[i]) / 2;               //取中线，改变后面计算
     be0:	82219783          	lh	a5,-2014(gp) # 200000da <i>
     be4:	873e                	mv	a4,a5
     be6:	86018793          	addi	a5,gp,-1952 # 20000118 <tag1>
     bea:	97ba                	add	a5,a5,a4
     bec:	0007c783          	lbu	a5,0(a5)
     bf0:	873e                	mv	a4,a5
     bf2:	82219783          	lh	a5,-2014(gp) # 200000da <i>
     bf6:	86be                	mv	a3,a5
     bf8:	89418793          	addi	a5,gp,-1900 # 2000014c <tag2>
     bfc:	97b6                	add	a5,a5,a3
     bfe:	0007c783          	lbu	a5,0(a5)
     c02:	97ba                	add	a5,a5,a4
     c04:	01f7d713          	srli	a4,a5,0x1f
     c08:	97ba                	add	a5,a5,a4
     c0a:	8785                	srai	a5,a5,0x1
     c0c:	873e                	mv	a4,a5
     c0e:	82219783          	lh	a5,-2014(gp) # 200000da <i>
     c12:	86be                	mv	a3,a5
     c14:	0ff77713          	andi	a4,a4,255
     c18:	8c818793          	addi	a5,gp,-1848 # 20000180 <tag3>
     c1c:	97b6                	add	a5,a5,a3
     c1e:	00e78023          	sb	a4,0(a5)
D:\Car\sure code\slave_school\obj/../USER/main.c:275
            if (tag1[i] < 107 || tag2[i] > 87)
     c22:	82219783          	lh	a5,-2014(gp) # 200000da <i>
     c26:	873e                	mv	a4,a5
     c28:	86018793          	addi	a5,gp,-1952 # 20000118 <tag1>
     c2c:	97ba                	add	a5,a5,a4
     c2e:	0007c703          	lbu	a4,0(a5)
     c32:	06a00793          	li	a5,106
     c36:	00e7fe63          	bgeu	a5,a4,c52 <__stack_size+0x452>
D:\Car\sure code\slave_school\obj/../USER/main.c:275 (discriminator 1)
     c3a:	82219783          	lh	a5,-2014(gp) # 200000da <i>
     c3e:	873e                	mv	a4,a5
     c40:	89418793          	addi	a5,gp,-1900 # 2000014c <tag2>
     c44:	97ba                	add	a5,a5,a4
     c46:	0007c703          	lbu	a4,0(a5)
     c4a:	05700793          	li	a5,87
     c4e:	00e7fc63          	bgeu	a5,a4,c66 <__stack_size+0x466>
D:\Car\sure code\slave_school\obj/../USER/main.c:277
            {
                tag3[i] = 97;
     c52:	82219783          	lh	a5,-2014(gp) # 200000da <i>
     c56:	873e                	mv	a4,a5
     c58:	8c818793          	addi	a5,gp,-1848 # 20000180 <tag3>
     c5c:	97ba                	add	a5,a5,a4
     c5e:	06100713          	li	a4,97
     c62:	00e78023          	sb	a4,0(a5)
D:\Car\sure code\slave_school\obj/../USER/main.c:279
            }
            if (i == 30)
     c66:	82219703          	lh	a4,-2014(gp) # 200000da <i>
     c6a:	47f9                	li	a5,30
     c6c:	02f71d63          	bne	a4,a5,ca6 <__stack_size+0x4a6>
D:\Car\sure code\slave_school\obj/../USER/main.c:281
                    {
                    if (tag1[i] < 107 || tag2[i] > 87)
     c70:	82219783          	lh	a5,-2014(gp) # 200000da <i>
     c74:	873e                	mv	a4,a5
     c76:	86018793          	addi	a5,gp,-1952 # 20000118 <tag1>
     c7a:	97ba                	add	a5,a5,a4
     c7c:	0007c703          	lbu	a4,0(a5)
     c80:	06a00793          	li	a5,106
     c84:	00e7fe63          	bgeu	a5,a4,ca0 <__stack_size+0x4a0>
D:\Car\sure code\slave_school\obj/../USER/main.c:281 (discriminator 1)
     c88:	82219783          	lh	a5,-2014(gp) # 200000da <i>
     c8c:	873e                	mv	a4,a5
     c8e:	89418793          	addi	a5,gp,-1900 # 2000014c <tag2>
     c92:	97ba                	add	a5,a5,a4
     c94:	0007c703          	lbu	a4,0(a5)
     c98:	05700793          	li	a5,87
     c9c:	00e7f563          	bgeu	a5,a4,ca6 <__stack_size+0x4a6>
D:\Car\sure code\slave_school\obj/../USER/main.c:283
                    {
                        tag5 = 0xf4;
     ca0:	5751                	li	a4,-12
     ca2:	80e18f23          	sb	a4,-2018(gp) # 200000d6 <tag5>
D:\Car\sure code\slave_school\obj/../USER/main.c:203 (discriminator 2)
        for (i = MT9V03X_H - 2; i >= 0; i--)      //取左右边界
     ca6:	82219783          	lh	a5,-2014(gp) # 200000da <i>
     caa:	07c2                	slli	a5,a5,0x10
     cac:	83c1                	srli	a5,a5,0x10
     cae:	17fd                	addi	a5,a5,-1
     cb0:	07c2                	slli	a5,a5,0x10
     cb2:	83c1                	srli	a5,a5,0x10
     cb4:	01079713          	slli	a4,a5,0x10
     cb8:	8741                	srai	a4,a4,0x10
     cba:	82e19123          	sh	a4,-2014(gp) # 200000da <i>
D:\Car\sure code\slave_school\obj/../USER/main.c:203 (discriminator 1)
     cbe:	82219783          	lh	a5,-2014(gp) # 200000da <i>
     cc2:	a407d0e3          	bgez	a5,702 <whu+0x34>
D:\Car\sure code\slave_school\obj/../USER/main.c:294


/*添加代码*/


                int32 a = 0;
     cc6:	fe042623          	sw	zero,-20(s0)
D:\Car\sure code\slave_school\obj/../USER/main.c:303
//                   {
//                       a++;
//                   }
//               }

               a = abs(tag3[1]-tag3[48]);
     cca:	8c818793          	addi	a5,gp,-1848 # 20000180 <tag3>
     cce:	0017c783          	lbu	a5,1(a5)
     cd2:	873e                	mv	a4,a5
     cd4:	8c818793          	addi	a5,gp,-1848 # 20000180 <tag3>
     cd8:	0307c783          	lbu	a5,48(a5)
     cdc:	8f1d                	sub	a4,a4,a5
     cde:	41f75793          	srai	a5,a4,0x1f
     ce2:	8f3d                	xor	a4,a4,a5
     ce4:	40f707b3          	sub	a5,a4,a5
     ce8:	fef42623          	sw	a5,-20(s0)
D:\Car\sure code\slave_school\obj/../USER/main.c:304
               if (a > 5)
     cec:	fec42703          	lw	a4,-20(s0)
     cf0:	4795                	li	a5,5
     cf2:	00e7d863          	bge	a5,a4,d02 <__stack_size+0x502>
D:\Car\sure code\slave_school\obj/../USER/main.c:306
               {
                   BEN_FLAG = 1;
     cf6:	4705                	li	a4,1
     cf8:	80e18c23          	sb	a4,-2024(gp) # 200000d0 <_edata>
D:\Car\sure code\slave_school\obj/../USER/main.c:307
                   STA_FLAG = 0;
     cfc:	80018ca3          	sb	zero,-2023(gp) # 200000d1 <STA_FLAG>
D:\Car\sure code\slave_school\obj/../USER/main.c:316
                   BEN_FLAG = 0;
                   STA_FLAG = 1;
               }


}
     d00:	a031                	j	d0c <__stack_size+0x50c>
D:\Car\sure code\slave_school\obj/../USER/main.c:311
                   BEN_FLAG = 0;
     d02:	80018c23          	sb	zero,-2024(gp) # 200000d0 <_edata>
D:\Car\sure code\slave_school\obj/../USER/main.c:312
                   STA_FLAG = 1;
     d06:	4705                	li	a4,1
     d08:	80e18ca3          	sb	a4,-2023(gp) # 200000d1 <STA_FLAG>
D:\Car\sure code\slave_school\obj/../USER/main.c:316
}
     d0c:	0001                	nop
     d0e:	4472                	lw	s0,28(sp)
     d10:	6105                	addi	sp,sp,32
     d12:	8082                	ret

00000d14 <main>:
main():
D:\Car\sure code\slave_school\obj/../USER/main.c:318
int main(void)
{
     d14:	1141                	addi	sp,sp,-16
     d16:	c606                	sw	ra,12(sp)
     d18:	c422                	sw	s0,8(sp)
     d1a:	0800                	addi	s0,sp,16
D:\Car\sure code\slave_school\obj/../USER/main.c:319
    DisableGlobalIRQ();
     d1c:	57e020ef          	jal	ra,329a <DisableGlobalIRQ>
D:\Car\sure code\slave_school\obj/../USER/main.c:320
    board_init();           //务必保留，本函数用于初始化MPU 时钟 调试串口
     d20:	60d020ef          	jal	ra,3b2c <board_init>
D:\Car\sure code\slave_school\obj/../USER/main.c:321
    mt9v03x_init();
     d24:	529010ef          	jal	ra,2a4c <mt9v03x_init>
D:\Car\sure code\slave_school\obj/../USER/main.c:323
//--------------------两块板子之间的连接初始化----------------//
    uart_init(UART_1, 460800, UART1_TX_A9, UART1_RX_A10);
     d28:	4685                	li	a3,1
     d2a:	4601                	li	a2,0
     d2c:	000717b7          	lui	a5,0x71
     d30:	80078593          	addi	a1,a5,-2048 # 70800 <_data_lma+0x6b03c>
     d34:	4501                	li	a0,0
     d36:	407020ef          	jal	ra,393c <uart_init>
D:\Car\sure code\slave_school\obj/../USER/main.c:324
    gpio_init(B0, GPO, 0, GPIO_PIN_CONFIG);  //B0为两个板子之间的连接
     d3a:	31000693          	li	a3,784
     d3e:	4601                	li	a2,0
     d40:	4585                	li	a1,1
     d42:	02000513          	li	a0,32
     d46:	15e020ef          	jal	ra,2ea4 <gpio_init>
D:\Car\sure code\slave_school\obj/../USER/main.c:325
    timer_pit_interrupt_ms(TIMER_4, 5);      //定时器4 5ms定时器中断
     d4a:	4595                	li	a1,5
     d4c:	450d                	li	a0,3
     d4e:	5c0020ef          	jal	ra,330e <timer_pit_interrupt_ms>
D:\Car\sure code\slave_school\obj/../USER/main.c:327
//-------------------按键初始化--------------------//
    gpio_init(C14, GPI, 1,GPIO_INT_CONFIG);
     d52:	04800693          	li	a3,72
     d56:	4605                	li	a2,1
     d58:	4581                	li	a1,0
     d5a:	04e00513          	li	a0,78
     d5e:	146020ef          	jal	ra,2ea4 <gpio_init>
D:\Car\sure code\slave_school\obj/../USER/main.c:328
    button_init(&button1, read_c14gpio,0);
     d62:	4601                	li	a2,0
     d64:	000007b7          	lui	a5,0x0
     d68:	52478593          	addi	a1,a5,1316 # 524 <read_c14gpio>
     d6c:	8fc18513          	addi	a0,gp,-1796 # 200001b4 <button1>
     d70:	042030ef          	jal	ra,3db2 <button_init>
D:\Car\sure code\slave_school\obj/../USER/main.c:329
    button_attach(&button1, PRESS_UP, btn1_press_up_Handler);
     d74:	000007b7          	lui	a5,0x0
     d78:	54078613          	addi	a2,a5,1344 # 540 <btn1_press_up_Handler>
     d7c:	4585                	li	a1,1
     d7e:	8fc18513          	addi	a0,gp,-1796 # 200001b4 <button1>
     d82:	0d0030ef          	jal	ra,3e52 <button_attach>
D:\Car\sure code\slave_school\obj/../USER/main.c:331
//------------------编码器的初始化--------------//
    timer_quad_init(TIMER_2, TIMER2_CHA_A15, TIMER2_CHB_B3);
     d86:	4615                	li	a2,5
     d88:	4591                	li	a1,4
     d8a:	4505                	li	a0,1
     d8c:	07d020ef          	jal	ra,3608 <timer_quad_init>
D:\Car\sure code\slave_school\obj/../USER/main.c:332
    timer_quad_init(TIMER_3, TIMER3_CHA_B4, TIMER3_CHB_B5);
     d90:	462d                	li	a2,11
     d92:	45a9                	li	a1,10
     d94:	4509                	li	a0,2
     d96:	073020ef          	jal	ra,3608 <timer_quad_init>
D:\Car\sure code\slave_school\obj/../USER/main.c:333
    button_start(&button1);
     d9a:	8fc18513          	addi	a0,gp,-1796 # 200001b4 <button1>
     d9e:	594030ef          	jal	ra,4332 <button_start>
D:\Car\sure code\slave_school\obj/../USER/main.c:334
    EnableGlobalIRQ(0);
     da2:	4501                	li	a0,0
     da4:	53e020ef          	jal	ra,32e2 <EnableGlobalIRQ>
D:\Car\sure code\slave_school\obj/../USER/main.c:337
    while(1)
    {
        if(mt9v03x_finish_flag)
     da8:	82d1c783          	lbu	a5,-2003(gp) # 200000e5 <mt9v03x_finish_flag>
     dac:	dff5                	beqz	a5,da8 <main+0x94>
D:\Car\sure code\slave_school\obj/../USER/main.c:339
                {
                    mt9v03x_finish_flag = 0;
     dae:	820186a3          	sb	zero,-2003(gp) # 200000e5 <mt9v03x_finish_flag>
D:\Car\sure code\slave_school\obj/../USER/main.c:344
                    //使用缩放显示函数，根据原始图像大小 以及设置需要显示的大小自动进行缩放或者放大显示
                    /*GetHistGram1(mt9v03x_image[0], MT9V03X_W*MT9V03X_H);
                    yu1 = OSTUThreshold1();
                    twwo(yu1);*/
                    whu();
     db2:	91dff0ef          	jal	ra,6ce <whu>
D:\Car\sure code\slave_school\obj/../USER/main.c:337
        if(mt9v03x_finish_flag)
     db6:	bfcd                	j	da8 <main+0x94>

00000db8 <handle_reset>:
handle_reset():
D:\Car\sure code\slave_school\obj/../Libraries/wch_libraries/Startup/startup_ch32v10x.S:147
	.weak	handle_reset
	.align	1
handle_reset:
.option push 
.option	norelax 
	la gp, __global_pointer$
     db8:	20000197          	auipc	gp,0x20000
     dbc:	b0018193          	addi	gp,gp,-1280 # 200008b8 <__global_pointer$>
D:\Car\sure code\slave_school\obj/../Libraries/wch_libraries/Startup/startup_ch32v10x.S:150
.option	pop 
1:
	la sp, _eusrstack 
     dc0:	20004117          	auipc	sp,0x20004
     dc4:	24010113          	addi	sp,sp,576 # 20005000 <_eusrstack>
D:\Car\sure code\slave_school\obj/../Libraries/wch_libraries/Startup/startup_ch32v10x.S:153
2:
	/* Load data section from flash to RAM */
	la a0, _data_lma
     dc8:	00005517          	auipc	a0,0x5
     dcc:	9fc50513          	addi	a0,a0,-1540 # 57c4 <_data_lma>
D:\Car\sure code\slave_school\obj/../Libraries/wch_libraries/Startup/startup_ch32v10x.S:154
	la a1, _data_vma
     dd0:	1ffff597          	auipc	a1,0x1ffff
     dd4:	23058593          	addi	a1,a1,560 # 20000000 <_data_vma>
D:\Car\sure code\slave_school\obj/../Libraries/wch_libraries/Startup/startup_ch32v10x.S:155
	la a2, _edata
     dd8:	81818613          	addi	a2,gp,-2024 # 200000d0 <_edata>
D:\Car\sure code\slave_school\obj/../Libraries/wch_libraries/Startup/startup_ch32v10x.S:156
	bgeu a1, a2, 2f
     ddc:	00c5fa63          	bgeu	a1,a2,df0 <handle_reset+0x38>
D:\Car\sure code\slave_school\obj/../Libraries/wch_libraries/Startup/startup_ch32v10x.S:158
1:
	lw t0, (a0)
     de0:	00052283          	lw	t0,0(a0)
D:\Car\sure code\slave_school\obj/../Libraries/wch_libraries/Startup/startup_ch32v10x.S:159
	sw t0, (a1)
     de4:	0055a023          	sw	t0,0(a1)
D:\Car\sure code\slave_school\obj/../Libraries/wch_libraries/Startup/startup_ch32v10x.S:160
	addi a0, a0, 4
     de8:	0511                	addi	a0,a0,4
D:\Car\sure code\slave_school\obj/../Libraries/wch_libraries/Startup/startup_ch32v10x.S:161
	addi a1, a1, 4
     dea:	0591                	addi	a1,a1,4
D:\Car\sure code\slave_school\obj/../Libraries/wch_libraries/Startup/startup_ch32v10x.S:162
	bltu a1, a2, 1b
     dec:	fec5eae3          	bltu	a1,a2,de0 <handle_reset+0x28>
D:\Car\sure code\slave_school\obj/../Libraries/wch_libraries/Startup/startup_ch32v10x.S:165
2:
	/* clear bss section */
	la a0, _sbss
     df0:	81818513          	addi	a0,gp,-2024 # 200000d0 <_edata>
D:\Car\sure code\slave_school\obj/../Libraries/wch_libraries/Startup/startup_ch32v10x.S:166
	la a1, _ebss
     df4:	20002597          	auipc	a1,0x20002
     df8:	8b058593          	addi	a1,a1,-1872 # 200026a4 <_ebss>
D:\Car\sure code\slave_school\obj/../Libraries/wch_libraries/Startup/startup_ch32v10x.S:167
	bgeu a0, a1, 2f
     dfc:	00b57763          	bgeu	a0,a1,e0a <handle_reset+0x52>
D:\Car\sure code\slave_school\obj/../Libraries/wch_libraries/Startup/startup_ch32v10x.S:169
1:
	sw zero, (a0)
     e00:	00052023          	sw	zero,0(a0)
D:\Car\sure code\slave_school\obj/../Libraries/wch_libraries/Startup/startup_ch32v10x.S:170
	addi a0, a0, 4
     e04:	0511                	addi	a0,a0,4
D:\Car\sure code\slave_school\obj/../Libraries/wch_libraries/Startup/startup_ch32v10x.S:171
	bltu a0, a1, 1b
     e06:	feb56de3          	bltu	a0,a1,e00 <handle_reset+0x48>
D:\Car\sure code\slave_school\obj/../Libraries/wch_libraries/Startup/startup_ch32v10x.S:174
2:
	/* enable all interrupt */
  li t0, 0x88
     e0a:	08800293          	li	t0,136
D:\Car\sure code\slave_school\obj/../Libraries/wch_libraries/Startup/startup_ch32v10x.S:175
  csrs mstatus, t0
     e0e:	3002a073          	csrs	mstatus,t0
D:\Car\sure code\slave_school\obj/../Libraries/wch_libraries/Startup/startup_ch32v10x.S:176
	la t0, _vector_base
     e12:	fffff297          	auipc	t0,0xfffff
     e16:	22628293          	addi	t0,t0,550 # 38 <_einit>
D:\Car\sure code\slave_school\obj/../Libraries/wch_libraries/Startup/startup_ch32v10x.S:177
  ori t0, t0, 1
     e1a:	0012e293          	ori	t0,t0,1
D:\Car\sure code\slave_school\obj/../Libraries/wch_libraries/Startup/startup_ch32v10x.S:178
	csrw mtvec, t0
     e1e:	30529073          	csrw	mtvec,t0
D:\Car\sure code\slave_school\obj/../Libraries/wch_libraries/Startup/startup_ch32v10x.S:180

  jal  SystemInit
     e22:	713020ef          	jal	ra,3d34 <SystemInit>
D:\Car\sure code\slave_school\obj/../Libraries/wch_libraries/Startup/startup_ch32v10x.S:181
	la t0, main
     e26:	00000297          	auipc	t0,0x0
     e2a:	eee28293          	addi	t0,t0,-274 # d14 <main>
D:\Car\sure code\slave_school\obj/../Libraries/wch_libraries/Startup/startup_ch32v10x.S:182
	csrw mepc, t0
     e2e:	34129073          	csrw	mepc,t0
D:\Car\sure code\slave_school\obj/../Libraries/wch_libraries/Startup/startup_ch32v10x.S:183
	mret
     e32:	30200073          	mret

00000e36 <DMA_DeInit>:
DMA_DeInit():
D:\Car\sure code\slave_school\obj/../Libraries/wch_libraries/Peripheral/ch32v10x_dma.c:44
*                                1 to 7 for DMA1 and 1 to 5 for DMA2 to select the 
*                                DMA Channel.
* Return         : None
*********************************************************************************/
void DMA_DeInit(DMA_Channel_TypeDef* DMAy_Channelx)
{
     e36:	1101                	addi	sp,sp,-32
     e38:	ce22                	sw	s0,28(sp)
     e3a:	1000                	addi	s0,sp,32
     e3c:	fea42623          	sw	a0,-20(s0)
D:\Car\sure code\slave_school\obj/../Libraries/wch_libraries/Peripheral/ch32v10x_dma.c:45
  DMAy_Channelx->CFGR &= (uint16_t)(~DMA_CFGR1_EN);  
     e40:	fec42783          	lw	a5,-20(s0)
     e44:	4398                	lw	a4,0(a5)
     e46:	67c1                	lui	a5,0x10
     e48:	17f9                	addi	a5,a5,-2
     e4a:	8f7d                	and	a4,a4,a5
     e4c:	fec42783          	lw	a5,-20(s0)
     e50:	c398                	sw	a4,0(a5)
D:\Car\sure code\slave_school\obj/../Libraries/wch_libraries/Peripheral/ch32v10x_dma.c:46
  DMAy_Channelx->CFGR  = 0;
     e52:	fec42783          	lw	a5,-20(s0)
     e56:	0007a023          	sw	zero,0(a5) # 10000 <_data_lma+0xa83c>
D:\Car\sure code\slave_school\obj/../Libraries/wch_libraries/Peripheral/ch32v10x_dma.c:47
  DMAy_Channelx->CNTR = 0;
     e5a:	fec42783          	lw	a5,-20(s0)
     e5e:	0007a223          	sw	zero,4(a5)
D:\Car\sure code\slave_school\obj/../Libraries/wch_libraries/Peripheral/ch32v10x_dma.c:48
  DMAy_Channelx->PADDR  = 0;
     e62:	fec42783          	lw	a5,-20(s0)
     e66:	0007a423          	sw	zero,8(a5)
D:\Car\sure code\slave_school\obj/../Libraries/wch_libraries/Peripheral/ch32v10x_dma.c:49
  DMAy_Channelx->MADDR = 0;  
     e6a:	fec42783          	lw	a5,-20(s0)
     e6e:	0007a623          	sw	zero,12(a5)
D:\Car\sure code\slave_school\obj/../Libraries/wch_libraries/Peripheral/ch32v10x_dma.c:50
  if (DMAy_Channelx == DMA1_Channel1)
     e72:	fec42703          	lw	a4,-20(s0)
     e76:	400207b7          	lui	a5,0x40020
     e7a:	07a1                	addi	a5,a5,8
     e7c:	00f71b63          	bne	a4,a5,e92 <DMA_DeInit+0x5c>
D:\Car\sure code\slave_school\obj/../Libraries/wch_libraries/Peripheral/ch32v10x_dma.c:52
  {
    DMA1->INTFCR |= DMA1_Channel1_IT_Mask;
     e80:	400207b7          	lui	a5,0x40020
     e84:	43d8                	lw	a4,4(a5)
     e86:	400207b7          	lui	a5,0x40020
     e8a:	00f76713          	ori	a4,a4,15
     e8e:	c3d8                	sw	a4,4(a5)
D:\Car\sure code\slave_school\obj/../Libraries/wch_libraries/Peripheral/ch32v10x_dma.c:101
    if (DMAy_Channelx == DMA2_Channel5)
    {
      DMA2->INTFCR |= DMA2_Channel5_IT_Mask;
    }
  }
}
     e90:	a275                	j	103c <DMA_DeInit+0x206>
D:\Car\sure code\slave_school\obj/../Libraries/wch_libraries/Peripheral/ch32v10x_dma.c:54
  else if (DMAy_Channelx == DMA1_Channel2)
     e92:	fec42703          	lw	a4,-20(s0)
     e96:	400207b7          	lui	a5,0x40020
     e9a:	07f1                	addi	a5,a5,28
     e9c:	00f71b63          	bne	a4,a5,eb2 <DMA_DeInit+0x7c>
D:\Car\sure code\slave_school\obj/../Libraries/wch_libraries/Peripheral/ch32v10x_dma.c:56
    DMA1->INTFCR |= DMA1_Channel2_IT_Mask;
     ea0:	400207b7          	lui	a5,0x40020
     ea4:	43d8                	lw	a4,4(a5)
     ea6:	400207b7          	lui	a5,0x40020
     eaa:	0f076713          	ori	a4,a4,240
     eae:	c3d8                	sw	a4,4(a5)
D:\Car\sure code\slave_school\obj/../Libraries/wch_libraries/Peripheral/ch32v10x_dma.c:101
}
     eb0:	a271                	j	103c <DMA_DeInit+0x206>
D:\Car\sure code\slave_school\obj/../Libraries/wch_libraries/Peripheral/ch32v10x_dma.c:58
  else if (DMAy_Channelx == DMA1_Channel3)
     eb2:	fec42703          	lw	a4,-20(s0)
     eb6:	400207b7          	lui	a5,0x40020
     eba:	03078793          	addi	a5,a5,48 # 40020030 <_eusrstack+0x2001b030>
     ebe:	00f71d63          	bne	a4,a5,ed8 <DMA_DeInit+0xa2>
D:\Car\sure code\slave_school\obj/../Libraries/wch_libraries/Peripheral/ch32v10x_dma.c:60
    DMA1->INTFCR |= DMA1_Channel3_IT_Mask;
     ec2:	400207b7          	lui	a5,0x40020
     ec6:	43d4                	lw	a3,4(a5)
     ec8:	400207b7          	lui	a5,0x40020
     ecc:	6705                	lui	a4,0x1
     ece:	f0070713          	addi	a4,a4,-256 # f00 <DMA_DeInit+0xca>
     ed2:	8f55                	or	a4,a4,a3
     ed4:	c3d8                	sw	a4,4(a5)
D:\Car\sure code\slave_school\obj/../Libraries/wch_libraries/Peripheral/ch32v10x_dma.c:101
}
     ed6:	a29d                	j	103c <DMA_DeInit+0x206>
D:\Car\sure code\slave_school\obj/../Libraries/wch_libraries/Peripheral/ch32v10x_dma.c:62
  else if (DMAy_Channelx == DMA1_Channel4)
     ed8:	fec42703          	lw	a4,-20(s0)
     edc:	400207b7          	lui	a5,0x40020
     ee0:	04478793          	addi	a5,a5,68 # 40020044 <_eusrstack+0x2001b044>
     ee4:	00f71b63          	bne	a4,a5,efa <DMA_DeInit+0xc4>
D:\Car\sure code\slave_school\obj/../Libraries/wch_libraries/Peripheral/ch32v10x_dma.c:64
    DMA1->INTFCR |= DMA1_Channel4_IT_Mask;
     ee8:	400207b7          	lui	a5,0x40020
     eec:	43d4                	lw	a3,4(a5)
     eee:	400207b7          	lui	a5,0x40020
     ef2:	673d                	lui	a4,0xf
     ef4:	8f55                	or	a4,a4,a3
     ef6:	c3d8                	sw	a4,4(a5)
D:\Car\sure code\slave_school\obj/../Libraries/wch_libraries/Peripheral/ch32v10x_dma.c:101
}
     ef8:	a291                	j	103c <DMA_DeInit+0x206>
D:\Car\sure code\slave_school\obj/../Libraries/wch_libraries/Peripheral/ch32v10x_dma.c:66
  else if (DMAy_Channelx == DMA1_Channel5)
     efa:	fec42703          	lw	a4,-20(s0)
     efe:	400207b7          	lui	a5,0x40020
     f02:	05878793          	addi	a5,a5,88 # 40020058 <_eusrstack+0x2001b058>
     f06:	00f71c63          	bne	a4,a5,f1e <DMA_DeInit+0xe8>
D:\Car\sure code\slave_school\obj/../Libraries/wch_libraries/Peripheral/ch32v10x_dma.c:68
    DMA1->INTFCR |= DMA1_Channel5_IT_Mask;
     f0a:	400207b7          	lui	a5,0x40020
     f0e:	43d4                	lw	a3,4(a5)
     f10:	400207b7          	lui	a5,0x40020
     f14:	000f0737          	lui	a4,0xf0
     f18:	8f55                	or	a4,a4,a3
     f1a:	c3d8                	sw	a4,4(a5)
D:\Car\sure code\slave_school\obj/../Libraries/wch_libraries/Peripheral/ch32v10x_dma.c:101
}
     f1c:	a205                	j	103c <DMA_DeInit+0x206>
D:\Car\sure code\slave_school\obj/../Libraries/wch_libraries/Peripheral/ch32v10x_dma.c:70
  else if (DMAy_Channelx == DMA1_Channel6)
     f1e:	fec42703          	lw	a4,-20(s0)
     f22:	400207b7          	lui	a5,0x40020
     f26:	06c78793          	addi	a5,a5,108 # 4002006c <_eusrstack+0x2001b06c>
     f2a:	00f71c63          	bne	a4,a5,f42 <DMA_DeInit+0x10c>
D:\Car\sure code\slave_school\obj/../Libraries/wch_libraries/Peripheral/ch32v10x_dma.c:72
    DMA1->INTFCR |= DMA1_Channel6_IT_Mask;
     f2e:	400207b7          	lui	a5,0x40020
     f32:	43d4                	lw	a3,4(a5)
     f34:	400207b7          	lui	a5,0x40020
     f38:	00f00737          	lui	a4,0xf00
     f3c:	8f55                	or	a4,a4,a3
     f3e:	c3d8                	sw	a4,4(a5)
D:\Car\sure code\slave_school\obj/../Libraries/wch_libraries/Peripheral/ch32v10x_dma.c:101
}
     f40:	a8f5                	j	103c <DMA_DeInit+0x206>
D:\Car\sure code\slave_school\obj/../Libraries/wch_libraries/Peripheral/ch32v10x_dma.c:74
  else if (DMAy_Channelx == DMA1_Channel7)
     f42:	fec42703          	lw	a4,-20(s0)
     f46:	400207b7          	lui	a5,0x40020
     f4a:	08078793          	addi	a5,a5,128 # 40020080 <_eusrstack+0x2001b080>
     f4e:	00f71c63          	bne	a4,a5,f66 <DMA_DeInit+0x130>
D:\Car\sure code\slave_school\obj/../Libraries/wch_libraries/Peripheral/ch32v10x_dma.c:76
    DMA1->INTFCR |= DMA1_Channel7_IT_Mask;
     f52:	400207b7          	lui	a5,0x40020
     f56:	43d4                	lw	a3,4(a5)
     f58:	400207b7          	lui	a5,0x40020
     f5c:	0f000737          	lui	a4,0xf000
     f60:	8f55                	or	a4,a4,a3
     f62:	c3d8                	sw	a4,4(a5)
D:\Car\sure code\slave_school\obj/../Libraries/wch_libraries/Peripheral/ch32v10x_dma.c:101
}
     f64:	a8e1                	j	103c <DMA_DeInit+0x206>
D:\Car\sure code\slave_school\obj/../Libraries/wch_libraries/Peripheral/ch32v10x_dma.c:78
  else if (DMAy_Channelx == DMA2_Channel1)
     f66:	fec42703          	lw	a4,-20(s0)
     f6a:	400207b7          	lui	a5,0x40020
     f6e:	40878793          	addi	a5,a5,1032 # 40020408 <_eusrstack+0x2001b408>
     f72:	00f71f63          	bne	a4,a5,f90 <DMA_DeInit+0x15a>
D:\Car\sure code\slave_school\obj/../Libraries/wch_libraries/Peripheral/ch32v10x_dma.c:80
    DMA2->INTFCR |= DMA2_Channel1_IT_Mask;
     f76:	400207b7          	lui	a5,0x40020
     f7a:	40078793          	addi	a5,a5,1024 # 40020400 <_eusrstack+0x2001b400>
     f7e:	43d8                	lw	a4,4(a5)
     f80:	400207b7          	lui	a5,0x40020
     f84:	40078793          	addi	a5,a5,1024 # 40020400 <_eusrstack+0x2001b400>
     f88:	00f76713          	ori	a4,a4,15
     f8c:	c3d8                	sw	a4,4(a5)
D:\Car\sure code\slave_school\obj/../Libraries/wch_libraries/Peripheral/ch32v10x_dma.c:101
}
     f8e:	a07d                	j	103c <DMA_DeInit+0x206>
D:\Car\sure code\slave_school\obj/../Libraries/wch_libraries/Peripheral/ch32v10x_dma.c:82
  else if (DMAy_Channelx == DMA2_Channel2)
     f90:	fec42703          	lw	a4,-20(s0)
     f94:	400207b7          	lui	a5,0x40020
     f98:	41c78793          	addi	a5,a5,1052 # 4002041c <_eusrstack+0x2001b41c>
     f9c:	00f71f63          	bne	a4,a5,fba <DMA_DeInit+0x184>
D:\Car\sure code\slave_school\obj/../Libraries/wch_libraries/Peripheral/ch32v10x_dma.c:84
    DMA2->INTFCR |= DMA2_Channel2_IT_Mask;
     fa0:	400207b7          	lui	a5,0x40020
     fa4:	40078793          	addi	a5,a5,1024 # 40020400 <_eusrstack+0x2001b400>
     fa8:	43d8                	lw	a4,4(a5)
     faa:	400207b7          	lui	a5,0x40020
     fae:	40078793          	addi	a5,a5,1024 # 40020400 <_eusrstack+0x2001b400>
     fb2:	0f076713          	ori	a4,a4,240
     fb6:	c3d8                	sw	a4,4(a5)
D:\Car\sure code\slave_school\obj/../Libraries/wch_libraries/Peripheral/ch32v10x_dma.c:101
}
     fb8:	a051                	j	103c <DMA_DeInit+0x206>
D:\Car\sure code\slave_school\obj/../Libraries/wch_libraries/Peripheral/ch32v10x_dma.c:86
  else if (DMAy_Channelx == DMA2_Channel3)
     fba:	fec42703          	lw	a4,-20(s0)
     fbe:	400207b7          	lui	a5,0x40020
     fc2:	43078793          	addi	a5,a5,1072 # 40020430 <_eusrstack+0x2001b430>
     fc6:	02f71163          	bne	a4,a5,fe8 <DMA_DeInit+0x1b2>
D:\Car\sure code\slave_school\obj/../Libraries/wch_libraries/Peripheral/ch32v10x_dma.c:88
    DMA2->INTFCR |= DMA2_Channel3_IT_Mask;
     fca:	400207b7          	lui	a5,0x40020
     fce:	40078793          	addi	a5,a5,1024 # 40020400 <_eusrstack+0x2001b400>
     fd2:	43d4                	lw	a3,4(a5)
     fd4:	400207b7          	lui	a5,0x40020
     fd8:	40078793          	addi	a5,a5,1024 # 40020400 <_eusrstack+0x2001b400>
     fdc:	6705                	lui	a4,0x1
     fde:	f0070713          	addi	a4,a4,-256 # f00 <DMA_DeInit+0xca>
     fe2:	8f55                	or	a4,a4,a3
     fe4:	c3d8                	sw	a4,4(a5)
D:\Car\sure code\slave_school\obj/../Libraries/wch_libraries/Peripheral/ch32v10x_dma.c:101
}
     fe6:	a899                	j	103c <DMA_DeInit+0x206>
D:\Car\sure code\slave_school\obj/../Libraries/wch_libraries/Peripheral/ch32v10x_dma.c:90
  else if (DMAy_Channelx == DMA2_Channel4)
     fe8:	fec42703          	lw	a4,-20(s0)
     fec:	400207b7          	lui	a5,0x40020
     ff0:	44478793          	addi	a5,a5,1092 # 40020444 <_eusrstack+0x2001b444>
     ff4:	00f71f63          	bne	a4,a5,1012 <DMA_DeInit+0x1dc>
D:\Car\sure code\slave_school\obj/../Libraries/wch_libraries/Peripheral/ch32v10x_dma.c:92
    DMA2->INTFCR |= DMA2_Channel4_IT_Mask;
     ff8:	400207b7          	lui	a5,0x40020
     ffc:	40078793          	addi	a5,a5,1024 # 40020400 <_eusrstack+0x2001b400>
    1000:	43d4                	lw	a3,4(a5)
    1002:	400207b7          	lui	a5,0x40020
    1006:	40078793          	addi	a5,a5,1024 # 40020400 <_eusrstack+0x2001b400>
    100a:	673d                	lui	a4,0xf
    100c:	8f55                	or	a4,a4,a3
    100e:	c3d8                	sw	a4,4(a5)
D:\Car\sure code\slave_school\obj/../Libraries/wch_libraries/Peripheral/ch32v10x_dma.c:101
}
    1010:	a035                	j	103c <DMA_DeInit+0x206>
D:\Car\sure code\slave_school\obj/../Libraries/wch_libraries/Peripheral/ch32v10x_dma.c:96
    if (DMAy_Channelx == DMA2_Channel5)
    1012:	fec42703          	lw	a4,-20(s0)
    1016:	400207b7          	lui	a5,0x40020
    101a:	45878793          	addi	a5,a5,1112 # 40020458 <_eusrstack+0x2001b458>
    101e:	00f71f63          	bne	a4,a5,103c <DMA_DeInit+0x206>
D:\Car\sure code\slave_school\obj/../Libraries/wch_libraries/Peripheral/ch32v10x_dma.c:98
      DMA2->INTFCR |= DMA2_Channel5_IT_Mask;
    1022:	400207b7          	lui	a5,0x40020
    1026:	40078793          	addi	a5,a5,1024 # 40020400 <_eusrstack+0x2001b400>
    102a:	43d4                	lw	a3,4(a5)
    102c:	400207b7          	lui	a5,0x40020
    1030:	40078793          	addi	a5,a5,1024 # 40020400 <_eusrstack+0x2001b400>
    1034:	000f0737          	lui	a4,0xf0
    1038:	8f55                	or	a4,a4,a3
    103a:	c3d8                	sw	a4,4(a5)
D:\Car\sure code\slave_school\obj/../Libraries/wch_libraries/Peripheral/ch32v10x_dma.c:101
}
    103c:	0001                	nop
    103e:	4472                	lw	s0,28(sp)
    1040:	6105                	addi	sp,sp,32
    1042:	8082                	ret

00001044 <DMA_Init>:
DMA_Init():
D:\Car\sure code\slave_school\obj/../Libraries/wch_libraries/Peripheral/ch32v10x_dma.c:117
*                                 contains the configuration information for the
*                                 specified DMA Channel.
* Return         : None
*********************************************************************************/
void DMA_Init(DMA_Channel_TypeDef* DMAy_Channelx, DMA_InitTypeDef* DMA_InitStruct)
{
    1044:	7179                	addi	sp,sp,-48
    1046:	d622                	sw	s0,44(sp)
    1048:	1800                	addi	s0,sp,48
    104a:	fca42e23          	sw	a0,-36(s0)
    104e:	fcb42c23          	sw	a1,-40(s0)
D:\Car\sure code\slave_school\obj/../Libraries/wch_libraries/Peripheral/ch32v10x_dma.c:118
  uint32_t tmpreg = 0;
    1052:	fe042623          	sw	zero,-20(s0)
D:\Car\sure code\slave_school\obj/../Libraries/wch_libraries/Peripheral/ch32v10x_dma.c:120

  tmpreg = DMAy_Channelx->CFGR;
    1056:	fdc42783          	lw	a5,-36(s0)
    105a:	439c                	lw	a5,0(a5)
    105c:	fef42623          	sw	a5,-20(s0)
D:\Car\sure code\slave_school\obj/../Libraries/wch_libraries/Peripheral/ch32v10x_dma.c:121
  tmpreg &= CFGR_CLEAR_Mask;
    1060:	fec42703          	lw	a4,-20(s0)
    1064:	77e1                	lui	a5,0xffff8
    1066:	07bd                	addi	a5,a5,15
    1068:	8ff9                	and	a5,a5,a4
    106a:	fef42623          	sw	a5,-20(s0)
D:\Car\sure code\slave_school\obj/../Libraries/wch_libraries/Peripheral/ch32v10x_dma.c:122
  tmpreg |= DMA_InitStruct->DMA_DIR | DMA_InitStruct->DMA_Mode |
    106e:	fd842783          	lw	a5,-40(s0)
    1072:	4798                	lw	a4,8(a5)
    1074:	fd842783          	lw	a5,-40(s0)
    1078:	539c                	lw	a5,32(a5)
    107a:	8f5d                	or	a4,a4,a5
D:\Car\sure code\slave_school\obj/../Libraries/wch_libraries/Peripheral/ch32v10x_dma.c:123
            DMA_InitStruct->DMA_PeripheralInc | DMA_InitStruct->DMA_MemoryInc |
    107c:	fd842783          	lw	a5,-40(s0)
    1080:	4b9c                	lw	a5,16(a5)
D:\Car\sure code\slave_school\obj/../Libraries/wch_libraries/Peripheral/ch32v10x_dma.c:122
  tmpreg |= DMA_InitStruct->DMA_DIR | DMA_InitStruct->DMA_Mode |
    1082:	8f5d                	or	a4,a4,a5
D:\Car\sure code\slave_school\obj/../Libraries/wch_libraries/Peripheral/ch32v10x_dma.c:123
            DMA_InitStruct->DMA_PeripheralInc | DMA_InitStruct->DMA_MemoryInc |
    1084:	fd842783          	lw	a5,-40(s0)
    1088:	4bdc                	lw	a5,20(a5)
    108a:	8f5d                	or	a4,a4,a5
D:\Car\sure code\slave_school\obj/../Libraries/wch_libraries/Peripheral/ch32v10x_dma.c:124
            DMA_InitStruct->DMA_PeripheralDataSize | DMA_InitStruct->DMA_MemoryDataSize |
    108c:	fd842783          	lw	a5,-40(s0)
    1090:	4f9c                	lw	a5,24(a5)
D:\Car\sure code\slave_school\obj/../Libraries/wch_libraries/Peripheral/ch32v10x_dma.c:123
            DMA_InitStruct->DMA_PeripheralInc | DMA_InitStruct->DMA_MemoryInc |
    1092:	8f5d                	or	a4,a4,a5
D:\Car\sure code\slave_school\obj/../Libraries/wch_libraries/Peripheral/ch32v10x_dma.c:124
            DMA_InitStruct->DMA_PeripheralDataSize | DMA_InitStruct->DMA_MemoryDataSize |
    1094:	fd842783          	lw	a5,-40(s0)
    1098:	4fdc                	lw	a5,28(a5)
    109a:	8f5d                	or	a4,a4,a5
D:\Car\sure code\slave_school\obj/../Libraries/wch_libraries/Peripheral/ch32v10x_dma.c:125
            DMA_InitStruct->DMA_Priority | DMA_InitStruct->DMA_M2M;
    109c:	fd842783          	lw	a5,-40(s0)
    10a0:	53dc                	lw	a5,36(a5)
D:\Car\sure code\slave_school\obj/../Libraries/wch_libraries/Peripheral/ch32v10x_dma.c:124
            DMA_InitStruct->DMA_PeripheralDataSize | DMA_InitStruct->DMA_MemoryDataSize |
    10a2:	8f5d                	or	a4,a4,a5
D:\Car\sure code\slave_school\obj/../Libraries/wch_libraries/Peripheral/ch32v10x_dma.c:125
            DMA_InitStruct->DMA_Priority | DMA_InitStruct->DMA_M2M;
    10a4:	fd842783          	lw	a5,-40(s0)
    10a8:	579c                	lw	a5,40(a5)
    10aa:	8fd9                	or	a5,a5,a4
D:\Car\sure code\slave_school\obj/../Libraries/wch_libraries/Peripheral/ch32v10x_dma.c:122
  tmpreg |= DMA_InitStruct->DMA_DIR | DMA_InitStruct->DMA_Mode |
    10ac:	fec42703          	lw	a4,-20(s0)
    10b0:	8fd9                	or	a5,a5,a4
    10b2:	fef42623          	sw	a5,-20(s0)
D:\Car\sure code\slave_school\obj/../Libraries/wch_libraries/Peripheral/ch32v10x_dma.c:127

  DMAy_Channelx->CFGR = tmpreg;
    10b6:	fdc42783          	lw	a5,-36(s0)
    10ba:	fec42703          	lw	a4,-20(s0)
    10be:	c398                	sw	a4,0(a5)
D:\Car\sure code\slave_school\obj/../Libraries/wch_libraries/Peripheral/ch32v10x_dma.c:128
  DMAy_Channelx->CNTR = DMA_InitStruct->DMA_BufferSize;
    10c0:	fd842783          	lw	a5,-40(s0)
    10c4:	47d8                	lw	a4,12(a5)
    10c6:	fdc42783          	lw	a5,-36(s0)
    10ca:	c3d8                	sw	a4,4(a5)
D:\Car\sure code\slave_school\obj/../Libraries/wch_libraries/Peripheral/ch32v10x_dma.c:129
  DMAy_Channelx->PADDR = DMA_InitStruct->DMA_PeripheralBaseAddr;
    10cc:	fd842783          	lw	a5,-40(s0)
    10d0:	4398                	lw	a4,0(a5)
    10d2:	fdc42783          	lw	a5,-36(s0)
    10d6:	c798                	sw	a4,8(a5)
D:\Car\sure code\slave_school\obj/../Libraries/wch_libraries/Peripheral/ch32v10x_dma.c:130
  DMAy_Channelx->MADDR = DMA_InitStruct->DMA_MemoryBaseAddr;
    10d8:	fd842783          	lw	a5,-40(s0)
    10dc:	43d8                	lw	a4,4(a5)
    10de:	fdc42783          	lw	a5,-36(s0)
    10e2:	c7d8                	sw	a4,12(a5)
D:\Car\sure code\slave_school\obj/../Libraries/wch_libraries/Peripheral/ch32v10x_dma.c:131
}
    10e4:	0001                	nop
    10e6:	5432                	lw	s0,44(sp)
    10e8:	6145                	addi	sp,sp,48
    10ea:	8082                	ret

000010ec <DMA_Cmd>:
DMA_Cmd():
D:\Car\sure code\slave_school\obj/../Libraries/wch_libraries/Peripheral/ch32v10x_dma.c:168
*                                 the DMA Channel.
*                  NewState     : new state of the DMAy Channelx(ENABLE or DISABLE).
* Return         : None
*********************************************************************************/
void DMA_Cmd(DMA_Channel_TypeDef* DMAy_Channelx, FunctionalState NewState)
{
    10ec:	1101                	addi	sp,sp,-32
    10ee:	ce22                	sw	s0,28(sp)
    10f0:	1000                	addi	s0,sp,32
    10f2:	fea42623          	sw	a0,-20(s0)
    10f6:	feb42423          	sw	a1,-24(s0)
D:\Car\sure code\slave_school\obj/../Libraries/wch_libraries/Peripheral/ch32v10x_dma.c:169
  if (NewState != DISABLE)
    10fa:	fe842783          	lw	a5,-24(s0)
    10fe:	cb91                	beqz	a5,1112 <DMA_Cmd+0x26>
D:\Car\sure code\slave_school\obj/../Libraries/wch_libraries/Peripheral/ch32v10x_dma.c:171
  {
    DMAy_Channelx->CFGR |= DMA_CFGR1_EN;
    1100:	fec42783          	lw	a5,-20(s0)
    1104:	439c                	lw	a5,0(a5)
    1106:	0017e713          	ori	a4,a5,1
    110a:	fec42783          	lw	a5,-20(s0)
    110e:	c398                	sw	a4,0(a5)
D:\Car\sure code\slave_school\obj/../Libraries/wch_libraries/Peripheral/ch32v10x_dma.c:177
  }
  else
  {
    DMAy_Channelx->CFGR &= (uint16_t)(~DMA_CFGR1_EN);
  }
}
    1110:	a811                	j	1124 <DMA_Cmd+0x38>
D:\Car\sure code\slave_school\obj/../Libraries/wch_libraries/Peripheral/ch32v10x_dma.c:175
    DMAy_Channelx->CFGR &= (uint16_t)(~DMA_CFGR1_EN);
    1112:	fec42783          	lw	a5,-20(s0)
    1116:	4398                	lw	a4,0(a5)
    1118:	67c1                	lui	a5,0x10
    111a:	17f9                	addi	a5,a5,-2
    111c:	8f7d                	and	a4,a4,a5
    111e:	fec42783          	lw	a5,-20(s0)
    1122:	c398                	sw	a4,0(a5)
D:\Car\sure code\slave_school\obj/../Libraries/wch_libraries/Peripheral/ch32v10x_dma.c:177
}
    1124:	0001                	nop
    1126:	4472                	lw	s0,28(sp)
    1128:	6105                	addi	sp,sp,32
    112a:	8082                	ret

0000112c <DMA_ITConfig>:
DMA_ITConfig():
D:\Car\sure code\slave_school\obj/../Libraries/wch_libraries/Peripheral/ch32v10x_dma.c:194
*                     DMA_IT_TE :  Transfer error interrupt mask
*                  NewState     : new state of the DMAy Channelx(ENABLE or DISABLE).
* Return         : None
*********************************************************************************/
void DMA_ITConfig(DMA_Channel_TypeDef* DMAy_Channelx, uint32_t DMA_IT, FunctionalState NewState)
{
    112c:	1101                	addi	sp,sp,-32
    112e:	ce22                	sw	s0,28(sp)
    1130:	1000                	addi	s0,sp,32
    1132:	fea42623          	sw	a0,-20(s0)
    1136:	feb42423          	sw	a1,-24(s0)
    113a:	fec42223          	sw	a2,-28(s0)
D:\Car\sure code\slave_school\obj/../Libraries/wch_libraries/Peripheral/ch32v10x_dma.c:195
  if (NewState != DISABLE)
    113e:	fe442783          	lw	a5,-28(s0)
    1142:	cb99                	beqz	a5,1158 <DMA_ITConfig+0x2c>
D:\Car\sure code\slave_school\obj/../Libraries/wch_libraries/Peripheral/ch32v10x_dma.c:197
  {
    DMAy_Channelx->CFGR |= DMA_IT;
    1144:	fec42783          	lw	a5,-20(s0)
    1148:	4398                	lw	a4,0(a5)
    114a:	fe842783          	lw	a5,-24(s0)
    114e:	8f5d                	or	a4,a4,a5
    1150:	fec42783          	lw	a5,-20(s0)
    1154:	c398                	sw	a4,0(a5)
D:\Car\sure code\slave_school\obj/../Libraries/wch_libraries/Peripheral/ch32v10x_dma.c:203
  }
  else
  {
    DMAy_Channelx->CFGR &= ~DMA_IT;
  }
}
    1156:	a821                	j	116e <DMA_ITConfig+0x42>
D:\Car\sure code\slave_school\obj/../Libraries/wch_libraries/Peripheral/ch32v10x_dma.c:201
    DMAy_Channelx->CFGR &= ~DMA_IT;
    1158:	fec42783          	lw	a5,-20(s0)
    115c:	4398                	lw	a4,0(a5)
    115e:	fe842783          	lw	a5,-24(s0)
    1162:	fff7c793          	not	a5,a5
    1166:	8f7d                	and	a4,a4,a5
    1168:	fec42783          	lw	a5,-20(s0)
    116c:	c398                	sw	a4,0(a5)
D:\Car\sure code\slave_school\obj/../Libraries/wch_libraries/Peripheral/ch32v10x_dma.c:203
}
    116e:	0001                	nop
    1170:	4472                	lw	s0,28(sp)
    1172:	6105                	addi	sp,sp,32
    1174:	8082                	ret

00001176 <DMA_GetFlagStatus>:
DMA_GetFlagStatus():
D:\Car\sure code\slave_school\obj/../Libraries/wch_libraries/Peripheral/ch32v10x_dma.c:290
*                      DMA2_FLAG_HT5: DMA2 Channel5 half transfer flag.
*                      DMA2_FLAG_TE5: DMA2 Channel5 transfer error flag.
* Return         : The new state of DMAy_FLAG (SET or RESET). 
*********************************************************************************/
FlagStatus DMA_GetFlagStatus(uint32_t DMAy_FLAG)
{
    1176:	7179                	addi	sp,sp,-48
    1178:	d622                	sw	s0,44(sp)
    117a:	1800                	addi	s0,sp,48
    117c:	fca42e23          	sw	a0,-36(s0)
D:\Car\sure code\slave_school\obj/../Libraries/wch_libraries/Peripheral/ch32v10x_dma.c:291
  FlagStatus bitstatus = RESET;
    1180:	fe042623          	sw	zero,-20(s0)
D:\Car\sure code\slave_school\obj/../Libraries/wch_libraries/Peripheral/ch32v10x_dma.c:292
  uint32_t tmpreg = 0;
    1184:	fe042423          	sw	zero,-24(s0)
D:\Car\sure code\slave_school\obj/../Libraries/wch_libraries/Peripheral/ch32v10x_dma.c:294
  
  if ((DMAy_FLAG & FLAG_Mask) != (uint32_t)RESET)
    1188:	fdc42703          	lw	a4,-36(s0)
    118c:	100007b7          	lui	a5,0x10000
    1190:	8ff9                	and	a5,a5,a4
    1192:	cb89                	beqz	a5,11a4 <DMA_GetFlagStatus+0x2e>
D:\Car\sure code\slave_school\obj/../Libraries/wch_libraries/Peripheral/ch32v10x_dma.c:296
  {
    tmpreg = DMA2->INTFR ;
    1194:	400207b7          	lui	a5,0x40020
    1198:	40078793          	addi	a5,a5,1024 # 40020400 <_eusrstack+0x2001b400>
    119c:	439c                	lw	a5,0(a5)
    119e:	fef42423          	sw	a5,-24(s0)
    11a2:	a031                	j	11ae <DMA_GetFlagStatus+0x38>
D:\Car\sure code\slave_school\obj/../Libraries/wch_libraries/Peripheral/ch32v10x_dma.c:300
  }
  else
  {
    tmpreg = DMA1->INTFR ;
    11a4:	400207b7          	lui	a5,0x40020
    11a8:	439c                	lw	a5,0(a5)
    11aa:	fef42423          	sw	a5,-24(s0)
D:\Car\sure code\slave_school\obj/../Libraries/wch_libraries/Peripheral/ch32v10x_dma.c:303
  }

  if ((tmpreg & DMAy_FLAG) != (uint32_t)RESET)
    11ae:	fe842703          	lw	a4,-24(s0)
    11b2:	fdc42783          	lw	a5,-36(s0)
    11b6:	8ff9                	and	a5,a5,a4
    11b8:	c789                	beqz	a5,11c2 <DMA_GetFlagStatus+0x4c>
D:\Car\sure code\slave_school\obj/../Libraries/wch_libraries/Peripheral/ch32v10x_dma.c:305
  {
    bitstatus = SET;
    11ba:	4785                	li	a5,1
    11bc:	fef42623          	sw	a5,-20(s0)
    11c0:	a019                	j	11c6 <DMA_GetFlagStatus+0x50>
D:\Car\sure code\slave_school\obj/../Libraries/wch_libraries/Peripheral/ch32v10x_dma.c:309
  }
  else
  {
    bitstatus = RESET;
    11c2:	fe042623          	sw	zero,-20(s0)
D:\Car\sure code\slave_school\obj/../Libraries/wch_libraries/Peripheral/ch32v10x_dma.c:312
  }
  
  return  bitstatus;
    11c6:	fec42783          	lw	a5,-20(s0)
D:\Car\sure code\slave_school\obj/../Libraries/wch_libraries/Peripheral/ch32v10x_dma.c:313
}
    11ca:	853e                	mv	a0,a5
    11cc:	5432                	lw	s0,44(sp)
    11ce:	6145                	addi	sp,sp,48
    11d0:	8082                	ret

000011d2 <DMA_ClearFlag>:
DMA_ClearFlag():
D:\Car\sure code\slave_school\obj/../Libraries/wch_libraries/Peripheral/ch32v10x_dma.c:371
*                      DMA2_FLAG_HT5: DMA2 Channel5 half transfer flag.
*                      DMA2_FLAG_TE5: DMA2 Channel5 transfer error flag.
* Return         : None 
*********************************************************************************/
void DMA_ClearFlag(uint32_t DMAy_FLAG)
{
    11d2:	1101                	addi	sp,sp,-32
    11d4:	ce22                	sw	s0,28(sp)
    11d6:	1000                	addi	s0,sp,32
    11d8:	fea42623          	sw	a0,-20(s0)
D:\Car\sure code\slave_school\obj/../Libraries/wch_libraries/Peripheral/ch32v10x_dma.c:372
  if ((DMAy_FLAG & FLAG_Mask) != (uint32_t)RESET)
    11dc:	fec42703          	lw	a4,-20(s0)
    11e0:	100007b7          	lui	a5,0x10000
    11e4:	8ff9                	and	a5,a5,a4
    11e6:	cb89                	beqz	a5,11f8 <DMA_ClearFlag+0x26>
D:\Car\sure code\slave_school\obj/../Libraries/wch_libraries/Peripheral/ch32v10x_dma.c:374
  {
    DMA2->INTFCR = DMAy_FLAG;
    11e8:	400207b7          	lui	a5,0x40020
    11ec:	40078793          	addi	a5,a5,1024 # 40020400 <_eusrstack+0x2001b400>
    11f0:	fec42703          	lw	a4,-20(s0)
    11f4:	c3d8                	sw	a4,4(a5)
D:\Car\sure code\slave_school\obj/../Libraries/wch_libraries/Peripheral/ch32v10x_dma.c:380
  }
  else
  {
    DMA1->INTFCR = DMAy_FLAG;
  }
}
    11f6:	a031                	j	1202 <DMA_ClearFlag+0x30>
D:\Car\sure code\slave_school\obj/../Libraries/wch_libraries/Peripheral/ch32v10x_dma.c:378
    DMA1->INTFCR = DMAy_FLAG;
    11f8:	400207b7          	lui	a5,0x40020
    11fc:	fec42703          	lw	a4,-20(s0)
    1200:	c3d8                	sw	a4,4(a5)
D:\Car\sure code\slave_school\obj/../Libraries/wch_libraries/Peripheral/ch32v10x_dma.c:380
}
    1202:	0001                	nop
    1204:	4472                	lw	s0,28(sp)
    1206:	6105                	addi	sp,sp,32
    1208:	8082                	ret

0000120a <EXTI_Init>:
EXTI_Init():
D:\Car\sure code\slave_school\obj/../Libraries/wch_libraries/Peripheral/ch32v10x_exti.c:37
*                  parameters in the EXTI_InitStruct.
* Input          : EXTI_InitStruct: pointer to a EXTI_InitTypeDef structure
* Return         : None
*********************************************************************************/	
void EXTI_Init(EXTI_InitTypeDef* EXTI_InitStruct)
{
    120a:	7179                	addi	sp,sp,-48
    120c:	d622                	sw	s0,44(sp)
    120e:	1800                	addi	s0,sp,48
    1210:	fca42e23          	sw	a0,-36(s0)
D:\Car\sure code\slave_school\obj/../Libraries/wch_libraries/Peripheral/ch32v10x_exti.c:38
  uint32_t tmp = 0;
    1214:	fe042623          	sw	zero,-20(s0)
D:\Car\sure code\slave_school\obj/../Libraries/wch_libraries/Peripheral/ch32v10x_exti.c:40

  tmp = (uint32_t)EXTI_BASE;
    1218:	400107b7          	lui	a5,0x40010
    121c:	40078793          	addi	a5,a5,1024 # 40010400 <_eusrstack+0x2000b400>
    1220:	fef42623          	sw	a5,-20(s0)
D:\Car\sure code\slave_school\obj/../Libraries/wch_libraries/Peripheral/ch32v10x_exti.c:41
  if (EXTI_InitStruct->EXTI_LineCmd != DISABLE)
    1224:	fdc42783          	lw	a5,-36(s0)
    1228:	47dc                	lw	a5,12(a5)
    122a:	12078063          	beqz	a5,134a <EXTI_Init+0x140>
D:\Car\sure code\slave_school\obj/../Libraries/wch_libraries/Peripheral/ch32v10x_exti.c:43
  {
    EXTI->INTENR &= ~EXTI_InitStruct->EXTI_Line;
    122e:	400107b7          	lui	a5,0x40010
    1232:	40078793          	addi	a5,a5,1024 # 40010400 <_eusrstack+0x2000b400>
    1236:	4394                	lw	a3,0(a5)
    1238:	fdc42783          	lw	a5,-36(s0)
    123c:	439c                	lw	a5,0(a5)
    123e:	fff7c713          	not	a4,a5
    1242:	400107b7          	lui	a5,0x40010
    1246:	40078793          	addi	a5,a5,1024 # 40010400 <_eusrstack+0x2000b400>
    124a:	8f75                	and	a4,a4,a3
    124c:	c398                	sw	a4,0(a5)
D:\Car\sure code\slave_school\obj/../Libraries/wch_libraries/Peripheral/ch32v10x_exti.c:44
    EXTI->EVENR &= ~EXTI_InitStruct->EXTI_Line;
    124e:	400107b7          	lui	a5,0x40010
    1252:	40078793          	addi	a5,a5,1024 # 40010400 <_eusrstack+0x2000b400>
    1256:	43d4                	lw	a3,4(a5)
    1258:	fdc42783          	lw	a5,-36(s0)
    125c:	439c                	lw	a5,0(a5)
    125e:	fff7c713          	not	a4,a5
    1262:	400107b7          	lui	a5,0x40010
    1266:	40078793          	addi	a5,a5,1024 # 40010400 <_eusrstack+0x2000b400>
    126a:	8f75                	and	a4,a4,a3
    126c:	c3d8                	sw	a4,4(a5)
D:\Car\sure code\slave_school\obj/../Libraries/wch_libraries/Peripheral/ch32v10x_exti.c:45
    tmp += EXTI_InitStruct->EXTI_Mode;
    126e:	fdc42783          	lw	a5,-36(s0)
    1272:	43dc                	lw	a5,4(a5)
    1274:	fec42703          	lw	a4,-20(s0)
    1278:	97ba                	add	a5,a5,a4
    127a:	fef42623          	sw	a5,-20(s0)
D:\Car\sure code\slave_school\obj/../Libraries/wch_libraries/Peripheral/ch32v10x_exti.c:46
    *(__IO uint32_t *) tmp |= EXTI_InitStruct->EXTI_Line;
    127e:	fec42783          	lw	a5,-20(s0)
    1282:	4394                	lw	a3,0(a5)
    1284:	fdc42783          	lw	a5,-36(s0)
    1288:	4398                	lw	a4,0(a5)
    128a:	fec42783          	lw	a5,-20(s0)
    128e:	8f55                	or	a4,a4,a3
    1290:	c398                	sw	a4,0(a5)
D:\Car\sure code\slave_school\obj/../Libraries/wch_libraries/Peripheral/ch32v10x_exti.c:47
    EXTI->RTENR &= ~EXTI_InitStruct->EXTI_Line;
    1292:	400107b7          	lui	a5,0x40010
    1296:	40078793          	addi	a5,a5,1024 # 40010400 <_eusrstack+0x2000b400>
    129a:	4794                	lw	a3,8(a5)
    129c:	fdc42783          	lw	a5,-36(s0)
    12a0:	439c                	lw	a5,0(a5)
    12a2:	fff7c713          	not	a4,a5
    12a6:	400107b7          	lui	a5,0x40010
    12aa:	40078793          	addi	a5,a5,1024 # 40010400 <_eusrstack+0x2000b400>
    12ae:	8f75                	and	a4,a4,a3
    12b0:	c798                	sw	a4,8(a5)
D:\Car\sure code\slave_school\obj/../Libraries/wch_libraries/Peripheral/ch32v10x_exti.c:48
    EXTI->FTENR &= ~EXTI_InitStruct->EXTI_Line;
    12b2:	400107b7          	lui	a5,0x40010
    12b6:	40078793          	addi	a5,a5,1024 # 40010400 <_eusrstack+0x2000b400>
    12ba:	47d4                	lw	a3,12(a5)
    12bc:	fdc42783          	lw	a5,-36(s0)
    12c0:	439c                	lw	a5,0(a5)
    12c2:	fff7c713          	not	a4,a5
    12c6:	400107b7          	lui	a5,0x40010
    12ca:	40078793          	addi	a5,a5,1024 # 40010400 <_eusrstack+0x2000b400>
    12ce:	8f75                	and	a4,a4,a3
    12d0:	c7d8                	sw	a4,12(a5)
D:\Car\sure code\slave_school\obj/../Libraries/wch_libraries/Peripheral/ch32v10x_exti.c:49
    if (EXTI_InitStruct->EXTI_Trigger == EXTI_Trigger_Rising_Falling)
    12d2:	fdc42783          	lw	a5,-36(s0)
    12d6:	4798                	lw	a4,8(a5)
    12d8:	47c1                	li	a5,16
    12da:	02f71f63          	bne	a4,a5,1318 <EXTI_Init+0x10e>
D:\Car\sure code\slave_school\obj/../Libraries/wch_libraries/Peripheral/ch32v10x_exti.c:51
    {
      EXTI->RTENR |= EXTI_InitStruct->EXTI_Line;
    12de:	400107b7          	lui	a5,0x40010
    12e2:	40078793          	addi	a5,a5,1024 # 40010400 <_eusrstack+0x2000b400>
    12e6:	4794                	lw	a3,8(a5)
    12e8:	fdc42783          	lw	a5,-36(s0)
    12ec:	4398                	lw	a4,0(a5)
    12ee:	400107b7          	lui	a5,0x40010
    12f2:	40078793          	addi	a5,a5,1024 # 40010400 <_eusrstack+0x2000b400>
    12f6:	8f55                	or	a4,a4,a3
    12f8:	c798                	sw	a4,8(a5)
D:\Car\sure code\slave_school\obj/../Libraries/wch_libraries/Peripheral/ch32v10x_exti.c:52
      EXTI->FTENR |= EXTI_InitStruct->EXTI_Line;
    12fa:	400107b7          	lui	a5,0x40010
    12fe:	40078793          	addi	a5,a5,1024 # 40010400 <_eusrstack+0x2000b400>
    1302:	47d4                	lw	a3,12(a5)
    1304:	fdc42783          	lw	a5,-36(s0)
    1308:	4398                	lw	a4,0(a5)
    130a:	400107b7          	lui	a5,0x40010
    130e:	40078793          	addi	a5,a5,1024 # 40010400 <_eusrstack+0x2000b400>
    1312:	8f55                	or	a4,a4,a3
    1314:	c7d8                	sw	a4,12(a5)
D:\Car\sure code\slave_school\obj/../Libraries/wch_libraries/Peripheral/ch32v10x_exti.c:66
  else
  {
    tmp += EXTI_InitStruct->EXTI_Mode;
    *(__IO uint32_t *) tmp &= ~EXTI_InitStruct->EXTI_Line;
  }
}
    1316:	a8b1                	j	1372 <EXTI_Init+0x168>
D:\Car\sure code\slave_school\obj/../Libraries/wch_libraries/Peripheral/ch32v10x_exti.c:56
      tmp = (uint32_t)EXTI_BASE;
    1318:	400107b7          	lui	a5,0x40010
    131c:	40078793          	addi	a5,a5,1024 # 40010400 <_eusrstack+0x2000b400>
    1320:	fef42623          	sw	a5,-20(s0)
D:\Car\sure code\slave_school\obj/../Libraries/wch_libraries/Peripheral/ch32v10x_exti.c:57
      tmp += EXTI_InitStruct->EXTI_Trigger;
    1324:	fdc42783          	lw	a5,-36(s0)
    1328:	479c                	lw	a5,8(a5)
    132a:	fec42703          	lw	a4,-20(s0)
    132e:	97ba                	add	a5,a5,a4
    1330:	fef42623          	sw	a5,-20(s0)
D:\Car\sure code\slave_school\obj/../Libraries/wch_libraries/Peripheral/ch32v10x_exti.c:58
      *(__IO uint32_t *) tmp |= EXTI_InitStruct->EXTI_Line;
    1334:	fec42783          	lw	a5,-20(s0)
    1338:	4394                	lw	a3,0(a5)
    133a:	fdc42783          	lw	a5,-36(s0)
    133e:	4398                	lw	a4,0(a5)
    1340:	fec42783          	lw	a5,-20(s0)
    1344:	8f55                	or	a4,a4,a3
    1346:	c398                	sw	a4,0(a5)
D:\Car\sure code\slave_school\obj/../Libraries/wch_libraries/Peripheral/ch32v10x_exti.c:66
}
    1348:	a02d                	j	1372 <EXTI_Init+0x168>
D:\Car\sure code\slave_school\obj/../Libraries/wch_libraries/Peripheral/ch32v10x_exti.c:63
    tmp += EXTI_InitStruct->EXTI_Mode;
    134a:	fdc42783          	lw	a5,-36(s0)
    134e:	43dc                	lw	a5,4(a5)
    1350:	fec42703          	lw	a4,-20(s0)
    1354:	97ba                	add	a5,a5,a4
    1356:	fef42623          	sw	a5,-20(s0)
D:\Car\sure code\slave_school\obj/../Libraries/wch_libraries/Peripheral/ch32v10x_exti.c:64
    *(__IO uint32_t *) tmp &= ~EXTI_InitStruct->EXTI_Line;
    135a:	fec42783          	lw	a5,-20(s0)
    135e:	4394                	lw	a3,0(a5)
    1360:	fdc42783          	lw	a5,-36(s0)
    1364:	439c                	lw	a5,0(a5)
    1366:	fff7c713          	not	a4,a5
    136a:	fec42783          	lw	a5,-20(s0)
    136e:	8f75                	and	a4,a4,a3
    1370:	c398                	sw	a4,0(a5)
D:\Car\sure code\slave_school\obj/../Libraries/wch_libraries/Peripheral/ch32v10x_exti.c:66
}
    1372:	0001                	nop
    1374:	5432                	lw	s0,44(sp)
    1376:	6145                	addi	sp,sp,48
    1378:	8082                	ret

0000137a <EXTI_GetITStatus>:
EXTI_GetITStatus():
D:\Car\sure code\slave_school\obj/../Libraries/wch_libraries/Peripheral/ch32v10x_exti.c:131
* Description    : Checks whether the specified EXTI line is asserted or not.
* Input          : EXTI_Line: specifies the EXTI lines to be enabled or disabled.
* Return         : The new state of EXTI_Line (SET or RESET).
*********************************************************************************/	
ITStatus EXTI_GetITStatus(uint32_t EXTI_Line)
{
    137a:	7179                	addi	sp,sp,-48
    137c:	d622                	sw	s0,44(sp)
    137e:	1800                	addi	s0,sp,48
    1380:	fca42e23          	sw	a0,-36(s0)
D:\Car\sure code\slave_school\obj/../Libraries/wch_libraries/Peripheral/ch32v10x_exti.c:132
  ITStatus bitstatus = RESET;
    1384:	fe042623          	sw	zero,-20(s0)
D:\Car\sure code\slave_school\obj/../Libraries/wch_libraries/Peripheral/ch32v10x_exti.c:133
  uint32_t enablestatus = 0;
    1388:	fe042423          	sw	zero,-24(s0)
D:\Car\sure code\slave_school\obj/../Libraries/wch_libraries/Peripheral/ch32v10x_exti.c:135
  
  enablestatus =  EXTI->INTENR & EXTI_Line;
    138c:	400107b7          	lui	a5,0x40010
    1390:	40078793          	addi	a5,a5,1024 # 40010400 <_eusrstack+0x2000b400>
    1394:	439c                	lw	a5,0(a5)
    1396:	fdc42703          	lw	a4,-36(s0)
    139a:	8ff9                	and	a5,a5,a4
    139c:	fef42423          	sw	a5,-24(s0)
D:\Car\sure code\slave_school\obj/../Libraries/wch_libraries/Peripheral/ch32v10x_exti.c:136
  if (((EXTI->INTFR & EXTI_Line) != (uint32_t)RESET) && (enablestatus != (uint32_t)RESET))
    13a0:	400107b7          	lui	a5,0x40010
    13a4:	40078793          	addi	a5,a5,1024 # 40010400 <_eusrstack+0x2000b400>
    13a8:	4bd8                	lw	a4,20(a5)
    13aa:	fdc42783          	lw	a5,-36(s0)
    13ae:	8ff9                	and	a5,a5,a4
    13b0:	cb81                	beqz	a5,13c0 <EXTI_GetITStatus+0x46>
D:\Car\sure code\slave_school\obj/../Libraries/wch_libraries/Peripheral/ch32v10x_exti.c:136 (discriminator 1)
    13b2:	fe842783          	lw	a5,-24(s0)
    13b6:	c789                	beqz	a5,13c0 <EXTI_GetITStatus+0x46>
D:\Car\sure code\slave_school\obj/../Libraries/wch_libraries/Peripheral/ch32v10x_exti.c:138
  {
    bitstatus = SET;
    13b8:	4785                	li	a5,1
    13ba:	fef42623          	sw	a5,-20(s0)
    13be:	a019                	j	13c4 <EXTI_GetITStatus+0x4a>
D:\Car\sure code\slave_school\obj/../Libraries/wch_libraries/Peripheral/ch32v10x_exti.c:142
  }
  else
  {
    bitstatus = RESET;
    13c0:	fe042623          	sw	zero,-20(s0)
D:\Car\sure code\slave_school\obj/../Libraries/wch_libraries/Peripheral/ch32v10x_exti.c:144
  }
  return bitstatus;
    13c4:	fec42783          	lw	a5,-20(s0)
D:\Car\sure code\slave_school\obj/../Libraries/wch_libraries/Peripheral/ch32v10x_exti.c:145
}
    13c8:	853e                	mv	a0,a5
    13ca:	5432                	lw	s0,44(sp)
    13cc:	6145                	addi	sp,sp,48
    13ce:	8082                	ret

000013d0 <EXTI_ClearITPendingBit>:
EXTI_ClearITPendingBit():
D:\Car\sure code\slave_school\obj/../Libraries/wch_libraries/Peripheral/ch32v10x_exti.c:154
* Description    : Clears the EXTI's line pending bits.
* Input          : EXTI_Line: specifies the EXTI lines to be enabled or disabled.
* Return         : None
*********************************************************************************/
void EXTI_ClearITPendingBit(uint32_t EXTI_Line)
{  
    13d0:	1101                	addi	sp,sp,-32
    13d2:	ce22                	sw	s0,28(sp)
    13d4:	1000                	addi	s0,sp,32
    13d6:	fea42623          	sw	a0,-20(s0)
D:\Car\sure code\slave_school\obj/../Libraries/wch_libraries/Peripheral/ch32v10x_exti.c:155
  EXTI->INTFR = EXTI_Line;
    13da:	400107b7          	lui	a5,0x40010
    13de:	40078793          	addi	a5,a5,1024 # 40010400 <_eusrstack+0x2000b400>
    13e2:	fec42703          	lw	a4,-20(s0)
    13e6:	cbd8                	sw	a4,20(a5)
D:\Car\sure code\slave_school\obj/../Libraries/wch_libraries/Peripheral/ch32v10x_exti.c:156
}
    13e8:	0001                	nop
    13ea:	4472                	lw	s0,28(sp)
    13ec:	6105                	addi	sp,sp,32
    13ee:	8082                	ret

000013f0 <GPIO_Init>:
GPIO_Init():
D:\Car\sure code\slave_school\obj/../Libraries/wch_libraries/Peripheral/ch32v10x_gpio.c:88
* Input          : GPIO_InitStruct: pointer to a GPIO_InitTypeDef structure that
*      contains the configuration information for the specified GPIO peripheral.
* Return         : None
*******************************************************************************/
void GPIO_Init(GPIO_TypeDef* GPIOx, GPIO_InitTypeDef* GPIO_InitStruct)
{
    13f0:	7139                	addi	sp,sp,-64
    13f2:	de22                	sw	s0,60(sp)
    13f4:	0080                	addi	s0,sp,64
    13f6:	fca42623          	sw	a0,-52(s0)
    13fa:	fcb42423          	sw	a1,-56(s0)
D:\Car\sure code\slave_school\obj/../Libraries/wch_libraries/Peripheral/ch32v10x_gpio.c:89
  uint32_t currentmode = 0x00, currentpin = 0x00, pinpos = 0x00, pos = 0x00;
    13fe:	fe042623          	sw	zero,-20(s0)
    1402:	fe042023          	sw	zero,-32(s0)
    1406:	fe042423          	sw	zero,-24(s0)
    140a:	fc042e23          	sw	zero,-36(s0)
D:\Car\sure code\slave_school\obj/../Libraries/wch_libraries/Peripheral/ch32v10x_gpio.c:90
  uint32_t tmpreg = 0x00, pinmask = 0x00;
    140e:	fe042223          	sw	zero,-28(s0)
    1412:	fc042c23          	sw	zero,-40(s0)
D:\Car\sure code\slave_school\obj/../Libraries/wch_libraries/Peripheral/ch32v10x_gpio.c:92

  currentmode = ((uint32_t)GPIO_InitStruct->GPIO_Mode) & ((uint32_t)0x0F);
    1416:	fc842783          	lw	a5,-56(s0)
    141a:	479c                	lw	a5,8(a5)
    141c:	8bbd                	andi	a5,a5,15
    141e:	fef42623          	sw	a5,-20(s0)
D:\Car\sure code\slave_school\obj/../Libraries/wch_libraries/Peripheral/ch32v10x_gpio.c:94
	
  if ((((uint32_t)GPIO_InitStruct->GPIO_Mode) & ((uint32_t)0x10)) != 0x00)
    1422:	fc842783          	lw	a5,-56(s0)
    1426:	479c                	lw	a5,8(a5)
    1428:	8bc1                	andi	a5,a5,16
    142a:	cb89                	beqz	a5,143c <GPIO_Init+0x4c>
D:\Car\sure code\slave_school\obj/../Libraries/wch_libraries/Peripheral/ch32v10x_gpio.c:96
  { 
    currentmode |= (uint32_t)GPIO_InitStruct->GPIO_Speed;
    142c:	fc842783          	lw	a5,-56(s0)
    1430:	43dc                	lw	a5,4(a5)
    1432:	fec42703          	lw	a4,-20(s0)
    1436:	8fd9                	or	a5,a5,a4
    1438:	fef42623          	sw	a5,-20(s0)
D:\Car\sure code\slave_school\obj/../Libraries/wch_libraries/Peripheral/ch32v10x_gpio.c:99
  }

  if (((uint32_t)GPIO_InitStruct->GPIO_Pin & ((uint32_t)0x00FF)) != 0x00)
    143c:	fc842783          	lw	a5,-56(s0)
    1440:	0007d783          	lhu	a5,0(a5)
    1444:	0ff7f793          	andi	a5,a5,255
    1448:	cff1                	beqz	a5,1524 <GPIO_Init+0x134>
D:\Car\sure code\slave_school\obj/../Libraries/wch_libraries/Peripheral/ch32v10x_gpio.c:101
  {
    tmpreg = GPIOx->CFGLR;
    144a:	fcc42783          	lw	a5,-52(s0)
    144e:	439c                	lw	a5,0(a5)
    1450:	fef42223          	sw	a5,-28(s0)
D:\Car\sure code\slave_school\obj/../Libraries/wch_libraries/Peripheral/ch32v10x_gpio.c:103
		
    for (pinpos = 0x00; pinpos < 0x08; pinpos++)
    1454:	fe042423          	sw	zero,-24(s0)
    1458:	a865                	j	1510 <GPIO_Init+0x120>
D:\Car\sure code\slave_school\obj/../Libraries/wch_libraries/Peripheral/ch32v10x_gpio.c:105
    {
      pos = ((uint32_t)0x01) << pinpos;
    145a:	fe842783          	lw	a5,-24(s0)
    145e:	4705                	li	a4,1
    1460:	00f717b3          	sll	a5,a4,a5
    1464:	fcf42e23          	sw	a5,-36(s0)
D:\Car\sure code\slave_school\obj/../Libraries/wch_libraries/Peripheral/ch32v10x_gpio.c:106
      currentpin = (GPIO_InitStruct->GPIO_Pin) & pos;
    1468:	fc842783          	lw	a5,-56(s0)
    146c:	0007d783          	lhu	a5,0(a5)
    1470:	873e                	mv	a4,a5
    1472:	fdc42783          	lw	a5,-36(s0)
    1476:	8ff9                	and	a5,a5,a4
    1478:	fef42023          	sw	a5,-32(s0)
D:\Car\sure code\slave_school\obj/../Libraries/wch_libraries/Peripheral/ch32v10x_gpio.c:108
			
      if (currentpin == pos)
    147c:	fe042703          	lw	a4,-32(s0)
    1480:	fdc42783          	lw	a5,-36(s0)
    1484:	08f71163          	bne	a4,a5,1506 <GPIO_Init+0x116>
D:\Car\sure code\slave_school\obj/../Libraries/wch_libraries/Peripheral/ch32v10x_gpio.c:110
      {
        pos = pinpos << 2;
    1488:	fe842783          	lw	a5,-24(s0)
    148c:	078a                	slli	a5,a5,0x2
    148e:	fcf42e23          	sw	a5,-36(s0)
D:\Car\sure code\slave_school\obj/../Libraries/wch_libraries/Peripheral/ch32v10x_gpio.c:111
        pinmask = ((uint32_t)0x0F) << pos;
    1492:	fdc42783          	lw	a5,-36(s0)
    1496:	473d                	li	a4,15
    1498:	00f717b3          	sll	a5,a4,a5
    149c:	fcf42c23          	sw	a5,-40(s0)
D:\Car\sure code\slave_school\obj/../Libraries/wch_libraries/Peripheral/ch32v10x_gpio.c:112
        tmpreg &= ~pinmask;
    14a0:	fd842783          	lw	a5,-40(s0)
    14a4:	fff7c793          	not	a5,a5
    14a8:	fe442703          	lw	a4,-28(s0)
    14ac:	8ff9                	and	a5,a5,a4
    14ae:	fef42223          	sw	a5,-28(s0)
D:\Car\sure code\slave_school\obj/../Libraries/wch_libraries/Peripheral/ch32v10x_gpio.c:113
        tmpreg |= (currentmode << pos);
    14b2:	fdc42783          	lw	a5,-36(s0)
    14b6:	fec42703          	lw	a4,-20(s0)
    14ba:	00f717b3          	sll	a5,a4,a5
    14be:	fe442703          	lw	a4,-28(s0)
    14c2:	8fd9                	or	a5,a5,a4
    14c4:	fef42223          	sw	a5,-28(s0)
D:\Car\sure code\slave_school\obj/../Libraries/wch_libraries/Peripheral/ch32v10x_gpio.c:115

        if (GPIO_InitStruct->GPIO_Mode == GPIO_Mode_IPD)
    14c8:	fc842783          	lw	a5,-56(s0)
    14cc:	4798                	lw	a4,8(a5)
    14ce:	02800793          	li	a5,40
    14d2:	00f71b63          	bne	a4,a5,14e8 <GPIO_Init+0xf8>
D:\Car\sure code\slave_school\obj/../Libraries/wch_libraries/Peripheral/ch32v10x_gpio.c:117
        {
          GPIOx->BCR = (((uint32_t)0x01) << pinpos);
    14d6:	fe842783          	lw	a5,-24(s0)
    14da:	4705                	li	a4,1
    14dc:	00f71733          	sll	a4,a4,a5
    14e0:	fcc42783          	lw	a5,-52(s0)
    14e4:	cbd8                	sw	a4,20(a5)
    14e6:	a005                	j	1506 <GPIO_Init+0x116>
D:\Car\sure code\slave_school\obj/../Libraries/wch_libraries/Peripheral/ch32v10x_gpio.c:121
        }
        else
        {
          if (GPIO_InitStruct->GPIO_Mode == GPIO_Mode_IPU)
    14e8:	fc842783          	lw	a5,-56(s0)
    14ec:	4798                	lw	a4,8(a5)
    14ee:	04800793          	li	a5,72
    14f2:	00f71a63          	bne	a4,a5,1506 <GPIO_Init+0x116>
D:\Car\sure code\slave_school\obj/../Libraries/wch_libraries/Peripheral/ch32v10x_gpio.c:123
          {
            GPIOx->BSHR = (((uint32_t)0x01) << pinpos);
    14f6:	fe842783          	lw	a5,-24(s0)
    14fa:	4705                	li	a4,1
    14fc:	00f71733          	sll	a4,a4,a5
    1500:	fcc42783          	lw	a5,-52(s0)
    1504:	cb98                	sw	a4,16(a5)
D:\Car\sure code\slave_school\obj/../Libraries/wch_libraries/Peripheral/ch32v10x_gpio.c:103 (discriminator 2)
    for (pinpos = 0x00; pinpos < 0x08; pinpos++)
    1506:	fe842783          	lw	a5,-24(s0)
    150a:	0785                	addi	a5,a5,1
    150c:	fef42423          	sw	a5,-24(s0)
D:\Car\sure code\slave_school\obj/../Libraries/wch_libraries/Peripheral/ch32v10x_gpio.c:103 (discriminator 1)
    1510:	fe842703          	lw	a4,-24(s0)
    1514:	479d                	li	a5,7
    1516:	f4e7f2e3          	bgeu	a5,a4,145a <GPIO_Init+0x6a>
D:\Car\sure code\slave_school\obj/../Libraries/wch_libraries/Peripheral/ch32v10x_gpio.c:128
          }
        }
      }
    }
    GPIOx->CFGLR = tmpreg;
    151a:	fcc42783          	lw	a5,-52(s0)
    151e:	fe442703          	lw	a4,-28(s0)
    1522:	c398                	sw	a4,0(a5)
D:\Car\sure code\slave_school\obj/../Libraries/wch_libraries/Peripheral/ch32v10x_gpio.c:131
  }

  if (GPIO_InitStruct->GPIO_Pin > 0x00FF)
    1524:	fc842783          	lw	a5,-56(s0)
    1528:	0007d703          	lhu	a4,0(a5)
    152c:	0ff00793          	li	a5,255
    1530:	0ee7f163          	bgeu	a5,a4,1612 <GPIO_Init+0x222>
D:\Car\sure code\slave_school\obj/../Libraries/wch_libraries/Peripheral/ch32v10x_gpio.c:133
  {
    tmpreg = GPIOx->CFGHR;
    1534:	fcc42783          	lw	a5,-52(s0)
    1538:	43dc                	lw	a5,4(a5)
    153a:	fef42223          	sw	a5,-28(s0)
D:\Car\sure code\slave_school\obj/../Libraries/wch_libraries/Peripheral/ch32v10x_gpio.c:135
		
    for (pinpos = 0x00; pinpos < 0x08; pinpos++)
    153e:	fe042423          	sw	zero,-24(s0)
    1542:	a875                	j	15fe <GPIO_Init+0x20e>
D:\Car\sure code\slave_school\obj/../Libraries/wch_libraries/Peripheral/ch32v10x_gpio.c:137
    {
      pos = (((uint32_t)0x01) << (pinpos + 0x08));
    1544:	fe842783          	lw	a5,-24(s0)
    1548:	07a1                	addi	a5,a5,8
    154a:	4705                	li	a4,1
    154c:	00f717b3          	sll	a5,a4,a5
    1550:	fcf42e23          	sw	a5,-36(s0)
D:\Car\sure code\slave_school\obj/../Libraries/wch_libraries/Peripheral/ch32v10x_gpio.c:138
      currentpin = ((GPIO_InitStruct->GPIO_Pin) & pos);
    1554:	fc842783          	lw	a5,-56(s0)
    1558:	0007d783          	lhu	a5,0(a5)
    155c:	873e                	mv	a4,a5
    155e:	fdc42783          	lw	a5,-36(s0)
    1562:	8ff9                	and	a5,a5,a4
    1564:	fef42023          	sw	a5,-32(s0)
D:\Car\sure code\slave_school\obj/../Libraries/wch_libraries/Peripheral/ch32v10x_gpio.c:140
			
      if (currentpin == pos)
    1568:	fe042703          	lw	a4,-32(s0)
    156c:	fdc42783          	lw	a5,-36(s0)
    1570:	08f71263          	bne	a4,a5,15f4 <GPIO_Init+0x204>
D:\Car\sure code\slave_school\obj/../Libraries/wch_libraries/Peripheral/ch32v10x_gpio.c:142
      {
        pos = pinpos << 2;
    1574:	fe842783          	lw	a5,-24(s0)
    1578:	078a                	slli	a5,a5,0x2
    157a:	fcf42e23          	sw	a5,-36(s0)
D:\Car\sure code\slave_school\obj/../Libraries/wch_libraries/Peripheral/ch32v10x_gpio.c:143
        pinmask = ((uint32_t)0x0F) << pos;
    157e:	fdc42783          	lw	a5,-36(s0)
    1582:	473d                	li	a4,15
    1584:	00f717b3          	sll	a5,a4,a5
    1588:	fcf42c23          	sw	a5,-40(s0)
D:\Car\sure code\slave_school\obj/../Libraries/wch_libraries/Peripheral/ch32v10x_gpio.c:144
        tmpreg &= ~pinmask;
    158c:	fd842783          	lw	a5,-40(s0)
    1590:	fff7c793          	not	a5,a5
    1594:	fe442703          	lw	a4,-28(s0)
    1598:	8ff9                	and	a5,a5,a4
    159a:	fef42223          	sw	a5,-28(s0)
D:\Car\sure code\slave_school\obj/../Libraries/wch_libraries/Peripheral/ch32v10x_gpio.c:145
        tmpreg |= (currentmode << pos);
    159e:	fdc42783          	lw	a5,-36(s0)
    15a2:	fec42703          	lw	a4,-20(s0)
    15a6:	00f717b3          	sll	a5,a4,a5
    15aa:	fe442703          	lw	a4,-28(s0)
    15ae:	8fd9                	or	a5,a5,a4
    15b0:	fef42223          	sw	a5,-28(s0)
D:\Car\sure code\slave_school\obj/../Libraries/wch_libraries/Peripheral/ch32v10x_gpio.c:147

        if (GPIO_InitStruct->GPIO_Mode == GPIO_Mode_IPD)
    15b4:	fc842783          	lw	a5,-56(s0)
    15b8:	4798                	lw	a4,8(a5)
    15ba:	02800793          	li	a5,40
    15be:	00f71b63          	bne	a4,a5,15d4 <GPIO_Init+0x1e4>
D:\Car\sure code\slave_school\obj/../Libraries/wch_libraries/Peripheral/ch32v10x_gpio.c:149
        {
          GPIOx->BCR = (((uint32_t)0x01) << (pinpos + 0x08));
    15c2:	fe842783          	lw	a5,-24(s0)
    15c6:	07a1                	addi	a5,a5,8
    15c8:	4705                	li	a4,1
    15ca:	00f71733          	sll	a4,a4,a5
    15ce:	fcc42783          	lw	a5,-52(s0)
    15d2:	cbd8                	sw	a4,20(a5)
D:\Car\sure code\slave_school\obj/../Libraries/wch_libraries/Peripheral/ch32v10x_gpio.c:152
        }

        if (GPIO_InitStruct->GPIO_Mode == GPIO_Mode_IPU)
    15d4:	fc842783          	lw	a5,-56(s0)
    15d8:	4798                	lw	a4,8(a5)
    15da:	04800793          	li	a5,72
    15de:	00f71b63          	bne	a4,a5,15f4 <GPIO_Init+0x204>
D:\Car\sure code\slave_school\obj/../Libraries/wch_libraries/Peripheral/ch32v10x_gpio.c:154
        {
          GPIOx->BSHR = (((uint32_t)0x01) << (pinpos + 0x08));
    15e2:	fe842783          	lw	a5,-24(s0)
    15e6:	07a1                	addi	a5,a5,8
    15e8:	4705                	li	a4,1
    15ea:	00f71733          	sll	a4,a4,a5
    15ee:	fcc42783          	lw	a5,-52(s0)
    15f2:	cb98                	sw	a4,16(a5)
D:\Car\sure code\slave_school\obj/../Libraries/wch_libraries/Peripheral/ch32v10x_gpio.c:135 (discriminator 2)
    for (pinpos = 0x00; pinpos < 0x08; pinpos++)
    15f4:	fe842783          	lw	a5,-24(s0)
    15f8:	0785                	addi	a5,a5,1
    15fa:	fef42423          	sw	a5,-24(s0)
D:\Car\sure code\slave_school\obj/../Libraries/wch_libraries/Peripheral/ch32v10x_gpio.c:135 (discriminator 1)
    15fe:	fe842703          	lw	a4,-24(s0)
    1602:	479d                	li	a5,7
    1604:	f4e7f0e3          	bgeu	a5,a4,1544 <GPIO_Init+0x154>
D:\Car\sure code\slave_school\obj/../Libraries/wch_libraries/Peripheral/ch32v10x_gpio.c:158
        }
      }
    }
    GPIOx->CFGHR = tmpreg;
    1608:	fcc42783          	lw	a5,-52(s0)
    160c:	fe442703          	lw	a4,-28(s0)
    1610:	c3d8                	sw	a4,4(a5)
D:\Car\sure code\slave_school\obj/../Libraries/wch_libraries/Peripheral/ch32v10x_gpio.c:160
  }
}
    1612:	0001                	nop
    1614:	5472                	lw	s0,60(sp)
    1616:	6121                	addi	sp,sp,64
    1618:	8082                	ret

0000161a <GPIO_WriteBit>:
GPIO_WriteBit():
D:\Car\sure code\slave_school\obj/../Libraries/wch_libraries/Peripheral/ch32v10x_gpio.c:282
*                    Bit_SetL: to clear the port pin.
*                    Bit_SetH: to set the port pin.                  
* Return         : None
*******************************************************************************/
void GPIO_WriteBit(GPIO_TypeDef* GPIOx, uint16_t GPIO_Pin, BitAction BitVal)
{
    161a:	1101                	addi	sp,sp,-32
    161c:	ce22                	sw	s0,28(sp)
    161e:	1000                	addi	s0,sp,32
    1620:	fea42623          	sw	a0,-20(s0)
    1624:	87ae                	mv	a5,a1
    1626:	fec42223          	sw	a2,-28(s0)
    162a:	fef41523          	sh	a5,-22(s0)
D:\Car\sure code\slave_school\obj/../Libraries/wch_libraries/Peripheral/ch32v10x_gpio.c:283
  if (BitVal != Bit_RESET)
    162e:	fe442783          	lw	a5,-28(s0)
    1632:	c799                	beqz	a5,1640 <GPIO_WriteBit+0x26>
D:\Car\sure code\slave_school\obj/../Libraries/wch_libraries/Peripheral/ch32v10x_gpio.c:285
  {
    GPIOx->BSHR = GPIO_Pin;
    1634:	fea45703          	lhu	a4,-22(s0)
    1638:	fec42783          	lw	a5,-20(s0)
    163c:	cb98                	sw	a4,16(a5)
D:\Car\sure code\slave_school\obj/../Libraries/wch_libraries/Peripheral/ch32v10x_gpio.c:291
  }
  else
  {
    GPIOx->BCR = GPIO_Pin;
  }
}
    163e:	a031                	j	164a <GPIO_WriteBit+0x30>
D:\Car\sure code\slave_school\obj/../Libraries/wch_libraries/Peripheral/ch32v10x_gpio.c:289
    GPIOx->BCR = GPIO_Pin;
    1640:	fea45703          	lhu	a4,-22(s0)
    1644:	fec42783          	lw	a5,-20(s0)
    1648:	cbd8                	sw	a4,20(a5)
D:\Car\sure code\slave_school\obj/../Libraries/wch_libraries/Peripheral/ch32v10x_gpio.c:291
}
    164a:	0001                	nop
    164c:	4472                	lw	s0,28(sp)
    164e:	6105                	addi	sp,sp,32
    1650:	8082                	ret

00001652 <GPIO_PinRemapConfig>:
GPIO_PinRemapConfig():
D:\Car\sure code\slave_school\obj/../Libraries/wch_libraries/Peripheral/ch32v10x_gpio.c:402
*      only for High density Value line devices)     
*                  NewState: ENABLE or DISABLE.             
* Return         : None
*******************************************************************************/
void GPIO_PinRemapConfig(uint32_t GPIO_Remap, FunctionalState NewState)
{
    1652:	7179                	addi	sp,sp,-48
    1654:	d622                	sw	s0,44(sp)
    1656:	1800                	addi	s0,sp,48
    1658:	fca42e23          	sw	a0,-36(s0)
    165c:	fcb42c23          	sw	a1,-40(s0)
D:\Car\sure code\slave_school\obj/../Libraries/wch_libraries/Peripheral/ch32v10x_gpio.c:403
  uint32_t tmp = 0x00, tmp1 = 0x00, tmpreg = 0x00, tmpmask = 0x00;
    1660:	fe042423          	sw	zero,-24(s0)
    1664:	fe042223          	sw	zero,-28(s0)
    1668:	fe042623          	sw	zero,-20(s0)
    166c:	fe042023          	sw	zero,-32(s0)
D:\Car\sure code\slave_school\obj/../Libraries/wch_libraries/Peripheral/ch32v10x_gpio.c:405

  if((GPIO_Remap & 0x80000000) == 0x80000000)
    1670:	fdc42783          	lw	a5,-36(s0)
    1674:	0007d863          	bgez	a5,1684 <GPIO_PinRemapConfig+0x32>
D:\Car\sure code\slave_school\obj/../Libraries/wch_libraries/Peripheral/ch32v10x_gpio.c:407
  {
    tmpreg = AFIO->PCFR2;
    1678:	400107b7          	lui	a5,0x40010
    167c:	4fdc                	lw	a5,28(a5)
    167e:	fef42623          	sw	a5,-20(s0)
    1682:	a031                	j	168e <GPIO_PinRemapConfig+0x3c>
D:\Car\sure code\slave_school\obj/../Libraries/wch_libraries/Peripheral/ch32v10x_gpio.c:411
  }
  else
  {
    tmpreg = AFIO->PCFR1;
    1684:	400107b7          	lui	a5,0x40010
    1688:	43dc                	lw	a5,4(a5)
    168a:	fef42623          	sw	a5,-20(s0)
D:\Car\sure code\slave_school\obj/../Libraries/wch_libraries/Peripheral/ch32v10x_gpio.c:414
  }

  tmpmask = (GPIO_Remap & DBGAFR_POSITION_MASK) >> 0x10;
    168e:	fdc42783          	lw	a5,-36(s0)
    1692:	83c1                	srli	a5,a5,0x10
    1694:	8bbd                	andi	a5,a5,15
    1696:	fef42023          	sw	a5,-32(s0)
D:\Car\sure code\slave_school\obj/../Libraries/wch_libraries/Peripheral/ch32v10x_gpio.c:415
  tmp = GPIO_Remap & LSB_MASK;
    169a:	fdc42703          	lw	a4,-36(s0)
    169e:	67c1                	lui	a5,0x10
    16a0:	17fd                	addi	a5,a5,-1
    16a2:	8ff9                	and	a5,a5,a4
    16a4:	fef42423          	sw	a5,-24(s0)
D:\Car\sure code\slave_school\obj/../Libraries/wch_libraries/Peripheral/ch32v10x_gpio.c:417

  if ((GPIO_Remap & (DBGAFR_LOCATION_MASK | DBGAFR_NUMBITS_MASK)) == (DBGAFR_LOCATION_MASK | DBGAFR_NUMBITS_MASK))
    16a8:	fdc42703          	lw	a4,-36(s0)
    16ac:	003007b7          	lui	a5,0x300
    16b0:	8f7d                	and	a4,a4,a5
    16b2:	003007b7          	lui	a5,0x300
    16b6:	02f71563          	bne	a4,a5,16e0 <GPIO_PinRemapConfig+0x8e>
D:\Car\sure code\slave_school\obj/../Libraries/wch_libraries/Peripheral/ch32v10x_gpio.c:419
  {
    tmpreg &= DBGAFR_SWJCFG_MASK;
    16ba:	fec42703          	lw	a4,-20(s0)
    16be:	f10007b7          	lui	a5,0xf1000
    16c2:	17fd                	addi	a5,a5,-1
    16c4:	8ff9                	and	a5,a5,a4
    16c6:	fef42623          	sw	a5,-20(s0)
D:\Car\sure code\slave_school\obj/../Libraries/wch_libraries/Peripheral/ch32v10x_gpio.c:420
    AFIO->PCFR1 &= DBGAFR_SWJCFG_MASK;
    16ca:	400107b7          	lui	a5,0x40010
    16ce:	43d4                	lw	a3,4(a5)
    16d0:	400107b7          	lui	a5,0x40010
    16d4:	f1000737          	lui	a4,0xf1000
    16d8:	177d                	addi	a4,a4,-1
    16da:	8f75                	and	a4,a4,a3
    16dc:	c3d8                	sw	a4,4(a5)
    16de:	a0ad                	j	1748 <GPIO_PinRemapConfig+0xf6>
D:\Car\sure code\slave_school\obj/../Libraries/wch_libraries/Peripheral/ch32v10x_gpio.c:422
  }
  else if ((GPIO_Remap & DBGAFR_NUMBITS_MASK) == DBGAFR_NUMBITS_MASK)
    16e0:	fdc42703          	lw	a4,-36(s0)
    16e4:	001007b7          	lui	a5,0x100
    16e8:	8ff9                	and	a5,a5,a4
    16ea:	cb8d                	beqz	a5,171c <GPIO_PinRemapConfig+0xca>
D:\Car\sure code\slave_school\obj/../Libraries/wch_libraries/Peripheral/ch32v10x_gpio.c:424
  {
    tmp1 = ((uint32_t)0x03) << tmpmask;
    16ec:	fe042783          	lw	a5,-32(s0)
    16f0:	470d                	li	a4,3
    16f2:	00f717b3          	sll	a5,a4,a5
    16f6:	fef42223          	sw	a5,-28(s0)
D:\Car\sure code\slave_school\obj/../Libraries/wch_libraries/Peripheral/ch32v10x_gpio.c:425
    tmpreg &= ~tmp1;
    16fa:	fe442783          	lw	a5,-28(s0)
    16fe:	fff7c793          	not	a5,a5
    1702:	fec42703          	lw	a4,-20(s0)
    1706:	8ff9                	and	a5,a5,a4
    1708:	fef42623          	sw	a5,-20(s0)
D:\Car\sure code\slave_school\obj/../Libraries/wch_libraries/Peripheral/ch32v10x_gpio.c:426
    tmpreg |= ~DBGAFR_SWJCFG_MASK;
    170c:	fec42703          	lw	a4,-20(s0)
    1710:	0f0007b7          	lui	a5,0xf000
    1714:	8fd9                	or	a5,a5,a4
    1716:	fef42623          	sw	a5,-20(s0)
    171a:	a03d                	j	1748 <GPIO_PinRemapConfig+0xf6>
D:\Car\sure code\slave_school\obj/../Libraries/wch_libraries/Peripheral/ch32v10x_gpio.c:430
  }
  else
  {
    tmpreg &= ~(tmp << ((GPIO_Remap >> 0x15)*0x10));
    171c:	fdc42783          	lw	a5,-36(s0)
    1720:	83d5                	srli	a5,a5,0x15
    1722:	0792                	slli	a5,a5,0x4
    1724:	fe842703          	lw	a4,-24(s0)
    1728:	00f717b3          	sll	a5,a4,a5
    172c:	fff7c793          	not	a5,a5
    1730:	fec42703          	lw	a4,-20(s0)
    1734:	8ff9                	and	a5,a5,a4
    1736:	fef42623          	sw	a5,-20(s0)
D:\Car\sure code\slave_school\obj/../Libraries/wch_libraries/Peripheral/ch32v10x_gpio.c:431
    tmpreg |= ~DBGAFR_SWJCFG_MASK;
    173a:	fec42703          	lw	a4,-20(s0)
    173e:	0f0007b7          	lui	a5,0xf000
    1742:	8fd9                	or	a5,a5,a4
    1744:	fef42623          	sw	a5,-20(s0)
D:\Car\sure code\slave_school\obj/../Libraries/wch_libraries/Peripheral/ch32v10x_gpio.c:434
  }

  if (NewState != DISABLE)
    1748:	fd842783          	lw	a5,-40(s0)
    174c:	cf91                	beqz	a5,1768 <GPIO_PinRemapConfig+0x116>
D:\Car\sure code\slave_school\obj/../Libraries/wch_libraries/Peripheral/ch32v10x_gpio.c:436
  {
    tmpreg |= (tmp << ((GPIO_Remap >> 0x15)*0x10));
    174e:	fdc42783          	lw	a5,-36(s0)
    1752:	83d5                	srli	a5,a5,0x15
    1754:	0792                	slli	a5,a5,0x4
    1756:	fe842703          	lw	a4,-24(s0)
    175a:	00f717b3          	sll	a5,a4,a5
    175e:	fec42703          	lw	a4,-20(s0)
    1762:	8fd9                	or	a5,a5,a4
    1764:	fef42623          	sw	a5,-20(s0)
D:\Car\sure code\slave_school\obj/../Libraries/wch_libraries/Peripheral/ch32v10x_gpio.c:439
  }

  if((GPIO_Remap & 0x80000000) == 0x80000000)
    1768:	fdc42783          	lw	a5,-36(s0)
    176c:	0007d863          	bgez	a5,177c <GPIO_PinRemapConfig+0x12a>
D:\Car\sure code\slave_school\obj/../Libraries/wch_libraries/Peripheral/ch32v10x_gpio.c:441
  {
    AFIO->PCFR2 = tmpreg;
    1770:	400107b7          	lui	a5,0x40010
    1774:	fec42703          	lw	a4,-20(s0)
    1778:	cfd8                	sw	a4,28(a5)
D:\Car\sure code\slave_school\obj/../Libraries/wch_libraries/Peripheral/ch32v10x_gpio.c:447
  }
  else
  {
    AFIO->PCFR1 = tmpreg;
  }  
}
    177a:	a031                	j	1786 <GPIO_PinRemapConfig+0x134>
D:\Car\sure code\slave_school\obj/../Libraries/wch_libraries/Peripheral/ch32v10x_gpio.c:445
    AFIO->PCFR1 = tmpreg;
    177c:	400107b7          	lui	a5,0x40010
    1780:	fec42703          	lw	a4,-20(s0)
    1784:	c3d8                	sw	a4,4(a5)
D:\Car\sure code\slave_school\obj/../Libraries/wch_libraries/Peripheral/ch32v10x_gpio.c:447
}
    1786:	0001                	nop
    1788:	5432                	lw	s0,44(sp)
    178a:	6145                	addi	sp,sp,48
    178c:	8082                	ret

0000178e <GPIO_EXTILineConfig>:
GPIO_EXTILineConfig():
D:\Car\sure code\slave_school\obj/../Libraries/wch_libraries/Peripheral/ch32v10x_gpio.c:459
*                  GPIO_PinSource: specifies the EXTI line to be configured.
*                    This parameter can be GPIO_PinSourcex where x can be (0..15).
* Return         : None
*******************************************************************************/
void GPIO_EXTILineConfig(uint8_t GPIO_PortSource, uint8_t GPIO_PinSource)
{
    178e:	7179                	addi	sp,sp,-48
    1790:	d622                	sw	s0,44(sp)
    1792:	1800                	addi	s0,sp,48
    1794:	87aa                	mv	a5,a0
    1796:	872e                	mv	a4,a1
    1798:	fcf40fa3          	sb	a5,-33(s0)
    179c:	87ba                	mv	a5,a4
    179e:	fcf40f23          	sb	a5,-34(s0)
D:\Car\sure code\slave_school\obj/../Libraries/wch_libraries/Peripheral/ch32v10x_gpio.c:460
  uint32_t tmp = 0x00;
    17a2:	fe042623          	sw	zero,-20(s0)
D:\Car\sure code\slave_school\obj/../Libraries/wch_libraries/Peripheral/ch32v10x_gpio.c:462

  tmp = ((uint32_t)0x0F) << (0x04 * (GPIO_PinSource & (uint8_t)0x03));
    17a6:	fde44783          	lbu	a5,-34(s0)
    17aa:	8b8d                	andi	a5,a5,3
    17ac:	078a                	slli	a5,a5,0x2
    17ae:	473d                	li	a4,15
    17b0:	00f717b3          	sll	a5,a4,a5
    17b4:	fef42623          	sw	a5,-20(s0)
D:\Car\sure code\slave_school\obj/../Libraries/wch_libraries/Peripheral/ch32v10x_gpio.c:463
  AFIO->EXTICR[GPIO_PinSource >> 0x02] &= ~tmp;
    17b8:	40010737          	lui	a4,0x40010
    17bc:	fde44783          	lbu	a5,-34(s0)
    17c0:	8389                	srli	a5,a5,0x2
    17c2:	0ff7f793          	andi	a5,a5,255
    17c6:	078a                	slli	a5,a5,0x2
    17c8:	97ba                	add	a5,a5,a4
    17ca:	4798                	lw	a4,8(a5)
    17cc:	fec42783          	lw	a5,-20(s0)
    17d0:	fff7c793          	not	a5,a5
    17d4:	400106b7          	lui	a3,0x40010
    17d8:	fde44603          	lbu	a2,-34(s0)
    17dc:	8209                	srli	a2,a2,0x2
    17de:	0ff67613          	andi	a2,a2,255
    17e2:	8f7d                	and	a4,a4,a5
    17e4:	00261793          	slli	a5,a2,0x2
    17e8:	97b6                	add	a5,a5,a3
    17ea:	c798                	sw	a4,8(a5)
D:\Car\sure code\slave_school\obj/../Libraries/wch_libraries/Peripheral/ch32v10x_gpio.c:464
  AFIO->EXTICR[GPIO_PinSource >> 0x02] |= (((uint32_t)GPIO_PortSource) << (0x04 * (GPIO_PinSource & (uint8_t)0x03)));
    17ec:	40010737          	lui	a4,0x40010
    17f0:	fde44783          	lbu	a5,-34(s0)
    17f4:	8389                	srli	a5,a5,0x2
    17f6:	0ff7f793          	andi	a5,a5,255
    17fa:	078a                	slli	a5,a5,0x2
    17fc:	97ba                	add	a5,a5,a4
    17fe:	4798                	lw	a4,8(a5)
    1800:	fdf44683          	lbu	a3,-33(s0)
    1804:	fde44783          	lbu	a5,-34(s0)
    1808:	8b8d                	andi	a5,a5,3
    180a:	078a                	slli	a5,a5,0x2
    180c:	00f697b3          	sll	a5,a3,a5
    1810:	400106b7          	lui	a3,0x40010
    1814:	fde44603          	lbu	a2,-34(s0)
    1818:	8209                	srli	a2,a2,0x2
    181a:	0ff67613          	andi	a2,a2,255
    181e:	8f5d                	or	a4,a4,a5
    1820:	00261793          	slli	a5,a2,0x2
    1824:	97b6                	add	a5,a5,a3
    1826:	c798                	sw	a4,8(a5)
D:\Car\sure code\slave_school\obj/../Libraries/wch_libraries/Peripheral/ch32v10x_gpio.c:465
}
    1828:	0001                	nop
    182a:	5432                	lw	s0,44(sp)
    182c:	6145                	addi	sp,sp,48
    182e:	8082                	ret

00001830 <NVIC_EnableIRQ>:
NVIC_EnableIRQ():
D:\Car\sure code\slave_school\obj/../Libraries/wch_libraries/Core/core_riscv.h:126
* Function Name  : NVIC_EnableIRQ
* Description    : Enable Interrupt
* Input          : IRQn: Interrupt Numbers
* Return         : None
*******************************************************************************/
RV_STATIC_INLINE void NVIC_EnableIRQ(IRQn_Type IRQn){
    1830:	1101                	addi	sp,sp,-32
    1832:	ce22                	sw	s0,28(sp)
    1834:	1000                	addi	s0,sp,32
    1836:	fea42623          	sw	a0,-20(s0)
D:\Car\sure code\slave_school\obj/../Libraries/wch_libraries/Core/core_riscv.h:127
  NVIC->IENR[((uint32_t)(IRQn) >> 5)] = (1 << ((uint32_t)(IRQn) & 0x1F));
    183a:	fec42783          	lw	a5,-20(s0)
    183e:	8bfd                	andi	a5,a5,31
    1840:	4705                	li	a4,1
    1842:	00f716b3          	sll	a3,a4,a5
    1846:	e000e737          	lui	a4,0xe000e
    184a:	fec42783          	lw	a5,-20(s0)
    184e:	8395                	srli	a5,a5,0x5
    1850:	04078793          	addi	a5,a5,64 # 40010040 <_eusrstack+0x2000b040>
    1854:	078a                	slli	a5,a5,0x2
    1856:	97ba                	add	a5,a5,a4
    1858:	c394                	sw	a3,0(a5)
D:\Car\sure code\slave_school\obj/../Libraries/wch_libraries/Core/core_riscv.h:128
}
    185a:	0001                	nop
    185c:	4472                	lw	s0,28(sp)
    185e:	6105                	addi	sp,sp,32
    1860:	8082                	ret

00001862 <NVIC_DisableIRQ>:
NVIC_DisableIRQ():
D:\Car\sure code\slave_school\obj/../Libraries/wch_libraries/Core/core_riscv.h:137
* Description    : Disable Interrupt
* Input          : IRQn: Interrupt Numbers
* Return         : None
*******************************************************************************/
RV_STATIC_INLINE void NVIC_DisableIRQ(IRQn_Type IRQn)
{
    1862:	1101                	addi	sp,sp,-32
    1864:	ce22                	sw	s0,28(sp)
    1866:	1000                	addi	s0,sp,32
    1868:	fea42623          	sw	a0,-20(s0)
D:\Car\sure code\slave_school\obj/../Libraries/wch_libraries/Core/core_riscv.h:138
  NVIC->IRER[((uint32_t)(IRQn) >> 5)] = (1 << ((uint32_t)(IRQn) & 0x1F));
    186c:	fec42783          	lw	a5,-20(s0)
    1870:	8bfd                	andi	a5,a5,31
    1872:	4705                	li	a4,1
    1874:	00f716b3          	sll	a3,a4,a5
    1878:	e000e737          	lui	a4,0xe000e
    187c:	fec42783          	lw	a5,-20(s0)
    1880:	8395                	srli	a5,a5,0x5
    1882:	06078793          	addi	a5,a5,96
    1886:	078a                	slli	a5,a5,0x2
    1888:	97ba                	add	a5,a5,a4
    188a:	c394                	sw	a3,0(a5)
D:\Car\sure code\slave_school\obj/../Libraries/wch_libraries/Core/core_riscv.h:139
}
    188c:	0001                	nop
    188e:	4472                	lw	s0,28(sp)
    1890:	6105                	addi	sp,sp,32
    1892:	8082                	ret

00001894 <NVIC_SetPriority>:
NVIC_SetPriority():
D:\Car\sure code\slave_school\obj/../Libraries/wch_libraries/Core/core_riscv.h:208
*                  priority: bit7:pre-emption priority
*                            bit6-bit4: subpriority
* Return         : None
*******************************************************************************/
RV_STATIC_INLINE void NVIC_SetPriority(IRQn_Type IRQn, uint8_t priority)
{
    1894:	1101                	addi	sp,sp,-32
    1896:	ce22                	sw	s0,28(sp)
    1898:	1000                	addi	s0,sp,32
    189a:	fea42623          	sw	a0,-20(s0)
    189e:	87ae                	mv	a5,a1
    18a0:	fef405a3          	sb	a5,-21(s0)
D:\Car\sure code\slave_school\obj/../Libraries/wch_libraries/Core/core_riscv.h:209
  NVIC->IPRIOR[(uint32_t)(IRQn)] = priority;
    18a4:	e000e737          	lui	a4,0xe000e
    18a8:	fec42783          	lw	a5,-20(s0)
    18ac:	97ba                	add	a5,a5,a4
    18ae:	feb44703          	lbu	a4,-21(s0)
    18b2:	40e78023          	sb	a4,1024(a5)
D:\Car\sure code\slave_school\obj/../Libraries/wch_libraries/Core/core_riscv.h:210
}
    18b6:	0001                	nop
    18b8:	4472                	lw	s0,28(sp)
    18ba:	6105                	addi	sp,sp,32
    18bc:	8082                	ret

000018be <NVIC_Init>:
NVIC_Init():
D:\Car\sure code\slave_school\obj/../Libraries/wch_libraries/Peripheral/ch32v10x_misc.c:44
* Input          : NVIC_InitStruct: pointer to a NVIC_InitTypeDef structure that contains the
*                                   configuration information for the specified NVIC peripheral.                 
* Return         : None
*******************************************************************************************/
void NVIC_Init(NVIC_InitTypeDef* NVIC_InitStruct)
{
    18be:	1101                	addi	sp,sp,-32
    18c0:	ce06                	sw	ra,28(sp)
    18c2:	cc22                	sw	s0,24(sp)
    18c4:	1000                	addi	s0,sp,32
    18c6:	fea42623          	sw	a0,-20(s0)
D:\Car\sure code\slave_school\obj/../Libraries/wch_libraries/Peripheral/ch32v10x_misc.c:47
	//uint8_t tmppre = 0;

	if((PFIC->CFGR&(1<<1)) != 0)                    //中断嵌套标志位：1为关闭
    18ca:	e000e7b7          	lui	a5,0xe000e
    18ce:	47bc                	lw	a5,72(a5)
    18d0:	8b89                	andi	a5,a5,2
    18d2:	c38d                	beqz	a5,18f4 <NVIC_Init+0x36>
D:\Car\sure code\slave_school\obj/../Libraries/wch_libraries/Peripheral/ch32v10x_misc.c:49
	{
		NVIC_SetPriority( NVIC_InitStruct->NVIC_IRQChannel, NVIC_InitStruct->NVIC_IRQChannelSubPriority<<4);
    18d4:	fec42783          	lw	a5,-20(s0)
    18d8:	0007c783          	lbu	a5,0(a5) # e000e000 <_eusrstack+0xc0009000>
    18dc:	873e                	mv	a4,a5
    18de:	fec42783          	lw	a5,-20(s0)
    18e2:	0027c783          	lbu	a5,2(a5)
    18e6:	0792                	slli	a5,a5,0x4
    18e8:	0ff7f793          	andi	a5,a5,255
    18ec:	85be                	mv	a1,a5
    18ee:	853a                	mv	a0,a4
    18f0:	3755                	jal	1894 <NVIC_SetPriority>
    18f2:	a095                	j	1956 <NVIC_Init+0x98>
D:\Car\sure code\slave_school\obj/../Libraries/wch_libraries/Peripheral/ch32v10x_misc.c:51
	}
	else if((PFIC->CFGR&(1<<1)) == 0)               //中断嵌套标志位：0为打开
    18f4:	e000e7b7          	lui	a5,0xe000e
    18f8:	47bc                	lw	a5,72(a5)
    18fa:	8b89                	andi	a5,a5,2
    18fc:	efa9                	bnez	a5,1956 <NVIC_Init+0x98>
D:\Car\sure code\slave_school\obj/../Libraries/wch_libraries/Peripheral/ch32v10x_misc.c:53
	{
        if(NVIC_InitStruct->NVIC_IRQChannelPreemptionPriority == 1)
    18fe:	fec42783          	lw	a5,-20(s0)
    1902:	0017c703          	lbu	a4,1(a5) # e000e001 <_eusrstack+0xc0009001>
    1906:	4785                	li	a5,1
    1908:	02f71863          	bne	a4,a5,1938 <NVIC_Init+0x7a>
D:\Car\sure code\slave_school\obj/../Libraries/wch_libraries/Peripheral/ch32v10x_misc.c:55
        {
            NVIC_SetPriority( NVIC_InitStruct->NVIC_IRQChannel, (1<<7)|(NVIC_InitStruct->NVIC_IRQChannelSubPriority<<4));
    190c:	fec42783          	lw	a5,-20(s0)
    1910:	0007c783          	lbu	a5,0(a5)
    1914:	873e                	mv	a4,a5
    1916:	fec42783          	lw	a5,-20(s0)
    191a:	0027c783          	lbu	a5,2(a5)
    191e:	0792                	slli	a5,a5,0x4
    1920:	07e2                	slli	a5,a5,0x18
    1922:	87e1                	srai	a5,a5,0x18
    1924:	f807e793          	ori	a5,a5,-128
    1928:	07e2                	slli	a5,a5,0x18
    192a:	87e1                	srai	a5,a5,0x18
    192c:	0ff7f793          	andi	a5,a5,255
    1930:	85be                	mv	a1,a5
    1932:	853a                	mv	a0,a4
    1934:	3785                	jal	1894 <NVIC_SetPriority>
    1936:	a005                	j	1956 <NVIC_Init+0x98>
D:\Car\sure code\slave_school\obj/../Libraries/wch_libraries/Peripheral/ch32v10x_misc.c:59
        }
        else
        {
            NVIC_SetPriority( NVIC_InitStruct->NVIC_IRQChannel, (0<<7)|(NVIC_InitStruct->NVIC_IRQChannelSubPriority<<4));
    1938:	fec42783          	lw	a5,-20(s0)
    193c:	0007c783          	lbu	a5,0(a5)
    1940:	873e                	mv	a4,a5
    1942:	fec42783          	lw	a5,-20(s0)
    1946:	0027c783          	lbu	a5,2(a5)
    194a:	0792                	slli	a5,a5,0x4
    194c:	0ff7f793          	andi	a5,a5,255
    1950:	85be                	mv	a1,a5
    1952:	853a                	mv	a0,a4
    1954:	3781                	jal	1894 <NVIC_SetPriority>
D:\Car\sure code\slave_school\obj/../Libraries/wch_libraries/Peripheral/ch32v10x_misc.c:93
//	else if(NVIC_Priority_Group == NVIC_PriorityGroup_4)
//	{
//		NVIC_SetPriority( NVIC_InitStruct->NVIC_IRQChannel, NVIC_InitStruct->NVIC_IRQChannelPreemptionPriority<<4);
//	}

  if (NVIC_InitStruct->NVIC_IRQChannelCmd != DISABLE)
    1956:	fec42783          	lw	a5,-20(s0)
    195a:	43dc                	lw	a5,4(a5)
    195c:	cb81                	beqz	a5,196c <NVIC_Init+0xae>
D:\Car\sure code\slave_school\obj/../Libraries/wch_libraries/Peripheral/ch32v10x_misc.c:95
  {
  	NVIC_EnableIRQ(NVIC_InitStruct->NVIC_IRQChannel);
    195e:	fec42783          	lw	a5,-20(s0)
    1962:	0007c783          	lbu	a5,0(a5)
    1966:	853e                	mv	a0,a5
    1968:	35e1                	jal	1830 <NVIC_EnableIRQ>
D:\Car\sure code\slave_school\obj/../Libraries/wch_libraries/Peripheral/ch32v10x_misc.c:101
  }
  else
  {
  	NVIC_DisableIRQ(NVIC_InitStruct->NVIC_IRQChannel);
  }
}
    196a:	a039                	j	1978 <NVIC_Init+0xba>
D:\Car\sure code\slave_school\obj/../Libraries/wch_libraries/Peripheral/ch32v10x_misc.c:99
  	NVIC_DisableIRQ(NVIC_InitStruct->NVIC_IRQChannel);
    196c:	fec42783          	lw	a5,-20(s0)
    1970:	0007c783          	lbu	a5,0(a5)
    1974:	853e                	mv	a0,a5
    1976:	35f5                	jal	1862 <NVIC_DisableIRQ>
D:\Car\sure code\slave_school\obj/../Libraries/wch_libraries/Peripheral/ch32v10x_misc.c:101
}
    1978:	0001                	nop
    197a:	40f2                	lw	ra,28(sp)
    197c:	4462                	lw	s0,24(sp)
    197e:	6105                	addi	sp,sp,32
    1980:	8082                	ret

00001982 <RCC_GetClocksFreq>:
RCC_GetClocksFreq():
D:\Car\sure code\slave_school\obj/../Libraries/wch_libraries/Peripheral/ch32v10x_rcc.c:469
* Input          : The result of this function could be not correct when using
*      fractional value for HSE crystal.
* Return         : None
********************************************************************************/
void RCC_GetClocksFreq(RCC_ClocksTypeDef* RCC_Clocks)
{
    1982:	7179                	addi	sp,sp,-48
    1984:	d622                	sw	s0,44(sp)
    1986:	1800                	addi	s0,sp,48
    1988:	fca42e23          	sw	a0,-36(s0)
D:\Car\sure code\slave_school\obj/../Libraries/wch_libraries/Peripheral/ch32v10x_rcc.c:470
  uint32_t tmp = 0, pllmull = 0, pllsource = 0, presc = 0;
    198c:	fe042623          	sw	zero,-20(s0)
    1990:	fe042423          	sw	zero,-24(s0)
    1994:	fe042223          	sw	zero,-28(s0)
    1998:	fe042023          	sw	zero,-32(s0)
D:\Car\sure code\slave_school\obj/../Libraries/wch_libraries/Peripheral/ch32v10x_rcc.c:472
  
  tmp = RCC->CFGR0 & CFGR0_SWS_Mask;
    199c:	400217b7          	lui	a5,0x40021
    19a0:	43dc                	lw	a5,4(a5)
    19a2:	8bb1                	andi	a5,a5,12
    19a4:	fef42623          	sw	a5,-20(s0)
    19a8:	fec42703          	lw	a4,-20(s0)
    19ac:	4791                	li	a5,4
    19ae:	02f70263          	beq	a4,a5,19d2 <RCC_GetClocksFreq+0x50>
    19b2:	fec42703          	lw	a4,-20(s0)
    19b6:	47a1                	li	a5,8
    19b8:	02f70563          	beq	a4,a5,19e2 <RCC_GetClocksFreq+0x60>
    19bc:	fec42783          	lw	a5,-20(s0)
    19c0:	e7c5                	bnez	a5,1a68 <RCC_GetClocksFreq+0xe6>
D:\Car\sure code\slave_school\obj/../Libraries/wch_libraries/Peripheral/ch32v10x_rcc.c:477
  
  switch (tmp)
  {
    case 0x00: 
      RCC_Clocks->SYSCLK_Frequency = HSI_VALUE;
    19c2:	fdc42783          	lw	a5,-36(s0)
    19c6:	007a1737          	lui	a4,0x7a1
    19ca:	20070713          	addi	a4,a4,512 # 7a1200 <_data_lma+0x79ba3c>
    19ce:	c398                	sw	a4,0(a5)
D:\Car\sure code\slave_school\obj/../Libraries/wch_libraries/Peripheral/ch32v10x_rcc.c:478
      break;
    19d0:	a065                	j	1a78 <RCC_GetClocksFreq+0xf6>
D:\Car\sure code\slave_school\obj/../Libraries/wch_libraries/Peripheral/ch32v10x_rcc.c:481
		
    case 0x04:
      RCC_Clocks->SYSCLK_Frequency = HSE_VALUE;
    19d2:	fdc42783          	lw	a5,-36(s0)
    19d6:	007a1737          	lui	a4,0x7a1
    19da:	20070713          	addi	a4,a4,512 # 7a1200 <_data_lma+0x79ba3c>
    19de:	c398                	sw	a4,0(a5)
D:\Car\sure code\slave_school\obj/../Libraries/wch_libraries/Peripheral/ch32v10x_rcc.c:482
      break;
    19e0:	a861                	j	1a78 <RCC_GetClocksFreq+0xf6>
D:\Car\sure code\slave_school\obj/../Libraries/wch_libraries/Peripheral/ch32v10x_rcc.c:485
		
    case 0x08:
      pllmull = RCC->CFGR0 & CFGR0_PLLMull_Mask;
    19e2:	400217b7          	lui	a5,0x40021
    19e6:	43d8                	lw	a4,4(a5)
    19e8:	003c07b7          	lui	a5,0x3c0
    19ec:	8ff9                	and	a5,a5,a4
    19ee:	fef42423          	sw	a5,-24(s0)
D:\Car\sure code\slave_school\obj/../Libraries/wch_libraries/Peripheral/ch32v10x_rcc.c:486
      pllsource = RCC->CFGR0 & CFGR0_PLLSRC_Mask;    
    19f2:	400217b7          	lui	a5,0x40021
    19f6:	43d8                	lw	a4,4(a5)
    19f8:	67c1                	lui	a5,0x10
    19fa:	8ff9                	and	a5,a5,a4
    19fc:	fef42223          	sw	a5,-28(s0)
D:\Car\sure code\slave_school\obj/../Libraries/wch_libraries/Peripheral/ch32v10x_rcc.c:487
      pllmull = ( pllmull >> 18) + 2;
    1a00:	fe842783          	lw	a5,-24(s0)
    1a04:	83c9                	srli	a5,a5,0x12
    1a06:	0789                	addi	a5,a5,2
    1a08:	fef42423          	sw	a5,-24(s0)
D:\Car\sure code\slave_school\obj/../Libraries/wch_libraries/Peripheral/ch32v10x_rcc.c:489
      
      if (pllsource == 0x00)
    1a0c:	fe442783          	lw	a5,-28(s0)
    1a10:	ef89                	bnez	a5,1a2a <RCC_GetClocksFreq+0xa8>
D:\Car\sure code\slave_school\obj/../Libraries/wch_libraries/Peripheral/ch32v10x_rcc.c:491
      {
        RCC_Clocks->SYSCLK_Frequency = (HSI_VALUE >> 1) * pllmull;
    1a12:	fe842703          	lw	a4,-24(s0)
    1a16:	003d17b7          	lui	a5,0x3d1
    1a1a:	90078793          	addi	a5,a5,-1792 # 3d0900 <_data_lma+0x3cb13c>
    1a1e:	02f70733          	mul	a4,a4,a5
    1a22:	fdc42783          	lw	a5,-36(s0)
    1a26:	c398                	sw	a4,0(a5)
D:\Car\sure code\slave_school\obj/../Libraries/wch_libraries/Peripheral/ch32v10x_rcc.c:504
        else
        {
          RCC_Clocks->SYSCLK_Frequency = HSE_VALUE * pllmull;
        }
      } 
      break;
    1a28:	a881                	j	1a78 <RCC_GetClocksFreq+0xf6>
D:\Car\sure code\slave_school\obj/../Libraries/wch_libraries/Peripheral/ch32v10x_rcc.c:495
        if ((RCC->CFGR0 & CFGR0_PLLXTPRE_Mask) != (uint32_t)RESET)
    1a2a:	400217b7          	lui	a5,0x40021
    1a2e:	43d8                	lw	a4,4(a5)
    1a30:	000207b7          	lui	a5,0x20
    1a34:	8ff9                	and	a5,a5,a4
    1a36:	cf89                	beqz	a5,1a50 <RCC_GetClocksFreq+0xce>
D:\Car\sure code\slave_school\obj/../Libraries/wch_libraries/Peripheral/ch32v10x_rcc.c:497
          RCC_Clocks->SYSCLK_Frequency = (HSE_VALUE >> 1) * pllmull;
    1a38:	fe842703          	lw	a4,-24(s0)
    1a3c:	003d17b7          	lui	a5,0x3d1
    1a40:	90078793          	addi	a5,a5,-1792 # 3d0900 <_data_lma+0x3cb13c>
    1a44:	02f70733          	mul	a4,a4,a5
    1a48:	fdc42783          	lw	a5,-36(s0)
    1a4c:	c398                	sw	a4,0(a5)
D:\Car\sure code\slave_school\obj/../Libraries/wch_libraries/Peripheral/ch32v10x_rcc.c:504
      break;
    1a4e:	a02d                	j	1a78 <RCC_GetClocksFreq+0xf6>
D:\Car\sure code\slave_school\obj/../Libraries/wch_libraries/Peripheral/ch32v10x_rcc.c:501
          RCC_Clocks->SYSCLK_Frequency = HSE_VALUE * pllmull;
    1a50:	fe842703          	lw	a4,-24(s0)
    1a54:	007a17b7          	lui	a5,0x7a1
    1a58:	20078793          	addi	a5,a5,512 # 7a1200 <_data_lma+0x79ba3c>
    1a5c:	02f70733          	mul	a4,a4,a5
    1a60:	fdc42783          	lw	a5,-36(s0)
    1a64:	c398                	sw	a4,0(a5)
D:\Car\sure code\slave_school\obj/../Libraries/wch_libraries/Peripheral/ch32v10x_rcc.c:504
      break;
    1a66:	a809                	j	1a78 <RCC_GetClocksFreq+0xf6>
D:\Car\sure code\slave_school\obj/../Libraries/wch_libraries/Peripheral/ch32v10x_rcc.c:507

    default:
      RCC_Clocks->SYSCLK_Frequency = HSI_VALUE;
    1a68:	fdc42783          	lw	a5,-36(s0)
    1a6c:	007a1737          	lui	a4,0x7a1
    1a70:	20070713          	addi	a4,a4,512 # 7a1200 <_data_lma+0x79ba3c>
    1a74:	c398                	sw	a4,0(a5)
D:\Car\sure code\slave_school\obj/../Libraries/wch_libraries/Peripheral/ch32v10x_rcc.c:508
      break;
    1a76:	0001                	nop
D:\Car\sure code\slave_school\obj/../Libraries/wch_libraries/Peripheral/ch32v10x_rcc.c:511
  }

  tmp = RCC->CFGR0 & CFGR0_HPRE_Set_Mask;
    1a78:	400217b7          	lui	a5,0x40021
    1a7c:	43dc                	lw	a5,4(a5)
    1a7e:	0f07f793          	andi	a5,a5,240
    1a82:	fef42623          	sw	a5,-20(s0)
D:\Car\sure code\slave_school\obj/../Libraries/wch_libraries/Peripheral/ch32v10x_rcc.c:512
  tmp = tmp >> 4;
    1a86:	fec42783          	lw	a5,-20(s0)
    1a8a:	8391                	srli	a5,a5,0x4
    1a8c:	fef42623          	sw	a5,-20(s0)
D:\Car\sure code\slave_school\obj/../Libraries/wch_libraries/Peripheral/ch32v10x_rcc.c:513
  presc = APBAHBPrescTable[tmp];
    1a90:	200007b7          	lui	a5,0x20000
    1a94:	00078713          	mv	a4,a5
    1a98:	fec42783          	lw	a5,-20(s0)
    1a9c:	97ba                	add	a5,a5,a4
    1a9e:	0007c783          	lbu	a5,0(a5) # 20000000 <_data_vma>
    1aa2:	0ff7f793          	andi	a5,a5,255
    1aa6:	fef42023          	sw	a5,-32(s0)
D:\Car\sure code\slave_school\obj/../Libraries/wch_libraries/Peripheral/ch32v10x_rcc.c:514
  RCC_Clocks->HCLK_Frequency = RCC_Clocks->SYSCLK_Frequency >> presc;
    1aaa:	fdc42783          	lw	a5,-36(s0)
    1aae:	4398                	lw	a4,0(a5)
    1ab0:	fe042783          	lw	a5,-32(s0)
    1ab4:	00f75733          	srl	a4,a4,a5
    1ab8:	fdc42783          	lw	a5,-36(s0)
    1abc:	c3d8                	sw	a4,4(a5)
D:\Car\sure code\slave_school\obj/../Libraries/wch_libraries/Peripheral/ch32v10x_rcc.c:515
  tmp = RCC->CFGR0 & CFGR0_PPRE1_Set_Mask;
    1abe:	400217b7          	lui	a5,0x40021
    1ac2:	43dc                	lw	a5,4(a5)
    1ac4:	7007f793          	andi	a5,a5,1792
    1ac8:	fef42623          	sw	a5,-20(s0)
D:\Car\sure code\slave_school\obj/../Libraries/wch_libraries/Peripheral/ch32v10x_rcc.c:516
  tmp = tmp >> 8;
    1acc:	fec42783          	lw	a5,-20(s0)
    1ad0:	83a1                	srli	a5,a5,0x8
    1ad2:	fef42623          	sw	a5,-20(s0)
D:\Car\sure code\slave_school\obj/../Libraries/wch_libraries/Peripheral/ch32v10x_rcc.c:517
  presc = APBAHBPrescTable[tmp];
    1ad6:	200007b7          	lui	a5,0x20000
    1ada:	00078713          	mv	a4,a5
    1ade:	fec42783          	lw	a5,-20(s0)
    1ae2:	97ba                	add	a5,a5,a4
    1ae4:	0007c783          	lbu	a5,0(a5) # 20000000 <_data_vma>
    1ae8:	0ff7f793          	andi	a5,a5,255
    1aec:	fef42023          	sw	a5,-32(s0)
D:\Car\sure code\slave_school\obj/../Libraries/wch_libraries/Peripheral/ch32v10x_rcc.c:518
  RCC_Clocks->PCLK1_Frequency = RCC_Clocks->HCLK_Frequency >> presc;
    1af0:	fdc42783          	lw	a5,-36(s0)
    1af4:	43d8                	lw	a4,4(a5)
    1af6:	fe042783          	lw	a5,-32(s0)
    1afa:	00f75733          	srl	a4,a4,a5
    1afe:	fdc42783          	lw	a5,-36(s0)
    1b02:	c798                	sw	a4,8(a5)
D:\Car\sure code\slave_school\obj/../Libraries/wch_libraries/Peripheral/ch32v10x_rcc.c:519
  tmp = RCC->CFGR0 & CFGR0_PPRE2_Set_Mask;
    1b04:	400217b7          	lui	a5,0x40021
    1b08:	43d8                	lw	a4,4(a5)
    1b0a:	6791                	lui	a5,0x4
    1b0c:	80078793          	addi	a5,a5,-2048 # 3800 <systick_delay+0x44>
    1b10:	8ff9                	and	a5,a5,a4
    1b12:	fef42623          	sw	a5,-20(s0)
D:\Car\sure code\slave_school\obj/../Libraries/wch_libraries/Peripheral/ch32v10x_rcc.c:520
  tmp = tmp >> 11;
    1b16:	fec42783          	lw	a5,-20(s0)
    1b1a:	83ad                	srli	a5,a5,0xb
    1b1c:	fef42623          	sw	a5,-20(s0)
D:\Car\sure code\slave_school\obj/../Libraries/wch_libraries/Peripheral/ch32v10x_rcc.c:521
  presc = APBAHBPrescTable[tmp];
    1b20:	200007b7          	lui	a5,0x20000
    1b24:	00078713          	mv	a4,a5
    1b28:	fec42783          	lw	a5,-20(s0)
    1b2c:	97ba                	add	a5,a5,a4
    1b2e:	0007c783          	lbu	a5,0(a5) # 20000000 <_data_vma>
    1b32:	0ff7f793          	andi	a5,a5,255
    1b36:	fef42023          	sw	a5,-32(s0)
D:\Car\sure code\slave_school\obj/../Libraries/wch_libraries/Peripheral/ch32v10x_rcc.c:522
  RCC_Clocks->PCLK2_Frequency = RCC_Clocks->HCLK_Frequency >> presc;
    1b3a:	fdc42783          	lw	a5,-36(s0)
    1b3e:	43d8                	lw	a4,4(a5)
    1b40:	fe042783          	lw	a5,-32(s0)
    1b44:	00f75733          	srl	a4,a4,a5
    1b48:	fdc42783          	lw	a5,-36(s0)
    1b4c:	c7d8                	sw	a4,12(a5)
D:\Car\sure code\slave_school\obj/../Libraries/wch_libraries/Peripheral/ch32v10x_rcc.c:523
  tmp = RCC->CFGR0 & CFGR0_ADCPRE_Set_Mask;
    1b4e:	400217b7          	lui	a5,0x40021
    1b52:	43d8                	lw	a4,4(a5)
    1b54:	67b1                	lui	a5,0xc
    1b56:	8ff9                	and	a5,a5,a4
    1b58:	fef42623          	sw	a5,-20(s0)
D:\Car\sure code\slave_school\obj/../Libraries/wch_libraries/Peripheral/ch32v10x_rcc.c:524
  tmp = tmp >> 14;
    1b5c:	fec42783          	lw	a5,-20(s0)
    1b60:	83b9                	srli	a5,a5,0xe
    1b62:	fef42623          	sw	a5,-20(s0)
D:\Car\sure code\slave_school\obj/../Libraries/wch_libraries/Peripheral/ch32v10x_rcc.c:525
  presc = ADCPrescTable[tmp];
    1b66:	200007b7          	lui	a5,0x20000
    1b6a:	0bc78713          	addi	a4,a5,188 # 200000bc <ADCPrescTable>
    1b6e:	fec42783          	lw	a5,-20(s0)
    1b72:	97ba                	add	a5,a5,a4
    1b74:	0007c783          	lbu	a5,0(a5)
    1b78:	0ff7f793          	andi	a5,a5,255
    1b7c:	fef42023          	sw	a5,-32(s0)
D:\Car\sure code\slave_school\obj/../Libraries/wch_libraries/Peripheral/ch32v10x_rcc.c:526
  RCC_Clocks->ADCCLK_Frequency = RCC_Clocks->PCLK2_Frequency / presc;
    1b80:	fdc42783          	lw	a5,-36(s0)
    1b84:	47d8                	lw	a4,12(a5)
    1b86:	fe042783          	lw	a5,-32(s0)
    1b8a:	02f75733          	divu	a4,a4,a5
    1b8e:	fdc42783          	lw	a5,-36(s0)
    1b92:	cb98                	sw	a4,16(a5)
D:\Car\sure code\slave_school\obj/../Libraries/wch_libraries/Peripheral/ch32v10x_rcc.c:527
}
    1b94:	0001                	nop
    1b96:	5432                	lw	s0,44(sp)
    1b98:	6145                	addi	sp,sp,48
    1b9a:	8082                	ret

00001b9c <RCC_AHBPeriphClockCmd>:
RCC_AHBPeriphClockCmd():
D:\Car\sure code\slave_school\obj/../Libraries/wch_libraries/Peripheral/ch32v10x_rcc.c:542
*                    RCC_AHBPeriph_CRC.                  
*                  NewState: ENABLE or DISABLE.
* Return         : None
*******************************************************************************/	
void RCC_AHBPeriphClockCmd(uint32_t RCC_AHBPeriph, FunctionalState NewState)
{
    1b9c:	1101                	addi	sp,sp,-32
    1b9e:	ce22                	sw	s0,28(sp)
    1ba0:	1000                	addi	s0,sp,32
    1ba2:	fea42623          	sw	a0,-20(s0)
    1ba6:	feb42423          	sw	a1,-24(s0)
D:\Car\sure code\slave_school\obj/../Libraries/wch_libraries/Peripheral/ch32v10x_rcc.c:543
  if (NewState != DISABLE)
    1baa:	fe842783          	lw	a5,-24(s0)
    1bae:	cb99                	beqz	a5,1bc4 <RCC_AHBPeriphClockCmd+0x28>
D:\Car\sure code\slave_school\obj/../Libraries/wch_libraries/Peripheral/ch32v10x_rcc.c:545
  {
    RCC->AHBPCENR |= RCC_AHBPeriph;
    1bb0:	400217b7          	lui	a5,0x40021
    1bb4:	4bd4                	lw	a3,20(a5)
    1bb6:	400217b7          	lui	a5,0x40021
    1bba:	fec42703          	lw	a4,-20(s0)
    1bbe:	8f55                	or	a4,a4,a3
    1bc0:	cbd8                	sw	a4,20(a5)
D:\Car\sure code\slave_school\obj/../Libraries/wch_libraries/Peripheral/ch32v10x_rcc.c:551
  }
  else
  {
    RCC->AHBPCENR &= ~RCC_AHBPeriph;
  }
}
    1bc2:	a821                	j	1bda <RCC_AHBPeriphClockCmd+0x3e>
D:\Car\sure code\slave_school\obj/../Libraries/wch_libraries/Peripheral/ch32v10x_rcc.c:549
    RCC->AHBPCENR &= ~RCC_AHBPeriph;
    1bc4:	400217b7          	lui	a5,0x40021
    1bc8:	4bd4                	lw	a3,20(a5)
    1bca:	fec42783          	lw	a5,-20(s0)
    1bce:	fff7c713          	not	a4,a5
    1bd2:	400217b7          	lui	a5,0x40021
    1bd6:	8f75                	and	a4,a4,a3
    1bd8:	cbd8                	sw	a4,20(a5)
D:\Car\sure code\slave_school\obj/../Libraries/wch_libraries/Peripheral/ch32v10x_rcc.c:551
}
    1bda:	0001                	nop
    1bdc:	4472                	lw	s0,28(sp)
    1bde:	6105                	addi	sp,sp,32
    1be0:	8082                	ret

00001be2 <RCC_APB2PeriphClockCmd>:
RCC_APB2PeriphClockCmd():
D:\Car\sure code\slave_school\obj/../Libraries/wch_libraries/Peripheral/ch32v10x_rcc.c:570
*                    RCC_APB2Periph_USART1.
*                  NewState: ENABLE or DISABLE
* Return         : None
*******************************************************************************/	
void RCC_APB2PeriphClockCmd(uint32_t RCC_APB2Periph, FunctionalState NewState)
{
    1be2:	1101                	addi	sp,sp,-32
    1be4:	ce22                	sw	s0,28(sp)
    1be6:	1000                	addi	s0,sp,32
    1be8:	fea42623          	sw	a0,-20(s0)
    1bec:	feb42423          	sw	a1,-24(s0)
D:\Car\sure code\slave_school\obj/../Libraries/wch_libraries/Peripheral/ch32v10x_rcc.c:571
  if (NewState != DISABLE)
    1bf0:	fe842783          	lw	a5,-24(s0)
    1bf4:	cb99                	beqz	a5,1c0a <RCC_APB2PeriphClockCmd+0x28>
D:\Car\sure code\slave_school\obj/../Libraries/wch_libraries/Peripheral/ch32v10x_rcc.c:573
  {
    RCC->APB2PCENR |= RCC_APB2Periph;
    1bf6:	400217b7          	lui	a5,0x40021
    1bfa:	4f94                	lw	a3,24(a5)
    1bfc:	400217b7          	lui	a5,0x40021
    1c00:	fec42703          	lw	a4,-20(s0)
    1c04:	8f55                	or	a4,a4,a3
    1c06:	cf98                	sw	a4,24(a5)
D:\Car\sure code\slave_school\obj/../Libraries/wch_libraries/Peripheral/ch32v10x_rcc.c:579
  }
  else
  {
    RCC->APB2PCENR &= ~RCC_APB2Periph;
  }
}
    1c08:	a821                	j	1c20 <RCC_APB2PeriphClockCmd+0x3e>
D:\Car\sure code\slave_school\obj/../Libraries/wch_libraries/Peripheral/ch32v10x_rcc.c:577
    RCC->APB2PCENR &= ~RCC_APB2Periph;
    1c0a:	400217b7          	lui	a5,0x40021
    1c0e:	4f94                	lw	a3,24(a5)
    1c10:	fec42783          	lw	a5,-20(s0)
    1c14:	fff7c713          	not	a4,a5
    1c18:	400217b7          	lui	a5,0x40021
    1c1c:	8f75                	and	a4,a4,a3
    1c1e:	cf98                	sw	a4,24(a5)
D:\Car\sure code\slave_school\obj/../Libraries/wch_libraries/Peripheral/ch32v10x_rcc.c:579
}
    1c20:	0001                	nop
    1c22:	4472                	lw	s0,28(sp)
    1c24:	6105                	addi	sp,sp,32
    1c26:	8082                	ret

00001c28 <RCC_APB1PeriphClockCmd>:
RCC_APB1PeriphClockCmd():
D:\Car\sure code\slave_school\obj/../Libraries/wch_libraries/Peripheral/ch32v10x_rcc.c:603
*                    RCC_APB1Periph_DAC.                
*                  NewState: ENABLE or DISABLE.
* Return         : None
*******************************************************************************/	
void RCC_APB1PeriphClockCmd(uint32_t RCC_APB1Periph, FunctionalState NewState)
{
    1c28:	1101                	addi	sp,sp,-32
    1c2a:	ce22                	sw	s0,28(sp)
    1c2c:	1000                	addi	s0,sp,32
    1c2e:	fea42623          	sw	a0,-20(s0)
    1c32:	feb42423          	sw	a1,-24(s0)
D:\Car\sure code\slave_school\obj/../Libraries/wch_libraries/Peripheral/ch32v10x_rcc.c:604
  if (NewState != DISABLE)
    1c36:	fe842783          	lw	a5,-24(s0)
    1c3a:	cb99                	beqz	a5,1c50 <RCC_APB1PeriphClockCmd+0x28>
D:\Car\sure code\slave_school\obj/../Libraries/wch_libraries/Peripheral/ch32v10x_rcc.c:606
  {
    RCC->APB1PCENR |= RCC_APB1Periph;
    1c3c:	400217b7          	lui	a5,0x40021
    1c40:	4fd4                	lw	a3,28(a5)
    1c42:	400217b7          	lui	a5,0x40021
    1c46:	fec42703          	lw	a4,-20(s0)
    1c4a:	8f55                	or	a4,a4,a3
    1c4c:	cfd8                	sw	a4,28(a5)
D:\Car\sure code\slave_school\obj/../Libraries/wch_libraries/Peripheral/ch32v10x_rcc.c:612
  }
  else
  {
    RCC->APB1PCENR &= ~RCC_APB1Periph;
  }
}
    1c4e:	a821                	j	1c66 <RCC_APB1PeriphClockCmd+0x3e>
D:\Car\sure code\slave_school\obj/../Libraries/wch_libraries/Peripheral/ch32v10x_rcc.c:610
    RCC->APB1PCENR &= ~RCC_APB1Periph;
    1c50:	400217b7          	lui	a5,0x40021
    1c54:	4fd4                	lw	a3,28(a5)
    1c56:	fec42783          	lw	a5,-20(s0)
    1c5a:	fff7c713          	not	a4,a5
    1c5e:	400217b7          	lui	a5,0x40021
    1c62:	8f75                	and	a4,a4,a3
    1c64:	cfd8                	sw	a4,28(a5)
D:\Car\sure code\slave_school\obj/../Libraries/wch_libraries/Peripheral/ch32v10x_rcc.c:612
}
    1c66:	0001                	nop
    1c68:	4472                	lw	s0,28(sp)
    1c6a:	6105                	addi	sp,sp,32
    1c6c:	8082                	ret

00001c6e <TIM_TimeBaseInit>:
TIM_TimeBaseInit():
D:\Car\sure code\slave_school\obj/../Libraries/wch_libraries/Peripheral/ch32v10x_tim.c:67
*                  TIM_TimeBaseInitStruct: pointer to a TIM_TimeBaseInitTypeDef
*      structure.
* Return         : None
*******************************************************************************/
void TIM_TimeBaseInit(TIM_TypeDef* TIMx, TIM_TimeBaseInitTypeDef* TIM_TimeBaseInitStruct)
{
    1c6e:	7179                	addi	sp,sp,-48
    1c70:	d622                	sw	s0,44(sp)
    1c72:	1800                	addi	s0,sp,48
    1c74:	fca42e23          	sw	a0,-36(s0)
    1c78:	fcb42c23          	sw	a1,-40(s0)
D:\Car\sure code\slave_school\obj/../Libraries/wch_libraries/Peripheral/ch32v10x_tim.c:68
  uint16_t tmpcr1 = 0;
    1c7c:	fe041723          	sh	zero,-18(s0)
D:\Car\sure code\slave_school\obj/../Libraries/wch_libraries/Peripheral/ch32v10x_tim.c:70

  tmpcr1 = TIMx->CTLR1;  
    1c80:	fdc42783          	lw	a5,-36(s0)
    1c84:	0007d783          	lhu	a5,0(a5) # 40021000 <_eusrstack+0x2001c000>
    1c88:	fef41723          	sh	a5,-18(s0)
D:\Car\sure code\slave_school\obj/../Libraries/wch_libraries/Peripheral/ch32v10x_tim.c:72

  if((TIMx == TIM1) || (TIMx == TIM2) || (TIMx == TIM3)|| (TIMx == TIM4)) 
    1c8c:	fdc42703          	lw	a4,-36(s0)
    1c90:	400137b7          	lui	a5,0x40013
    1c94:	c0078793          	addi	a5,a5,-1024 # 40012c00 <_eusrstack+0x2000dc00>
    1c98:	02f70863          	beq	a4,a5,1cc8 <TIM_TimeBaseInit+0x5a>
D:\Car\sure code\slave_school\obj/../Libraries/wch_libraries/Peripheral/ch32v10x_tim.c:72 (discriminator 1)
    1c9c:	fdc42703          	lw	a4,-36(s0)
    1ca0:	400007b7          	lui	a5,0x40000
    1ca4:	02f70263          	beq	a4,a5,1cc8 <TIM_TimeBaseInit+0x5a>
D:\Car\sure code\slave_school\obj/../Libraries/wch_libraries/Peripheral/ch32v10x_tim.c:72 (discriminator 2)
    1ca8:	fdc42703          	lw	a4,-36(s0)
    1cac:	400007b7          	lui	a5,0x40000
    1cb0:	40078793          	addi	a5,a5,1024 # 40000400 <_eusrstack+0x1fffb400>
    1cb4:	00f70a63          	beq	a4,a5,1cc8 <TIM_TimeBaseInit+0x5a>
D:\Car\sure code\slave_school\obj/../Libraries/wch_libraries/Peripheral/ch32v10x_tim.c:72 (discriminator 3)
    1cb8:	fdc42703          	lw	a4,-36(s0)
    1cbc:	400017b7          	lui	a5,0x40001
    1cc0:	80078793          	addi	a5,a5,-2048 # 40000800 <_eusrstack+0x1fffb800>
    1cc4:	02f71163          	bne	a4,a5,1ce6 <TIM_TimeBaseInit+0x78>
D:\Car\sure code\slave_school\obj/../Libraries/wch_libraries/Peripheral/ch32v10x_tim.c:74
  {
    tmpcr1 &= (uint16_t)(~((uint16_t)(TIM_DIR | TIM_CMS)));
    1cc8:	fee45783          	lhu	a5,-18(s0)
    1ccc:	f8f7f793          	andi	a5,a5,-113
    1cd0:	fef41723          	sh	a5,-18(s0)
D:\Car\sure code\slave_school\obj/../Libraries/wch_libraries/Peripheral/ch32v10x_tim.c:75
    tmpcr1 |= (uint32_t)TIM_TimeBaseInitStruct->TIM_CounterMode;
    1cd4:	fd842783          	lw	a5,-40(s0)
    1cd8:	0027d703          	lhu	a4,2(a5)
    1cdc:	fee45783          	lhu	a5,-18(s0)
    1ce0:	8fd9                	or	a5,a5,a4
    1ce2:	fef41723          	sh	a5,-18(s0)
D:\Car\sure code\slave_school\obj/../Libraries/wch_libraries/Peripheral/ch32v10x_tim.c:78
  }

  tmpcr1 &= (uint16_t)(~((uint16_t)TIM_CTLR1_CKD));
    1ce6:	fee45783          	lhu	a5,-18(s0)
    1cea:	cff7f793          	andi	a5,a5,-769
    1cee:	fef41723          	sh	a5,-18(s0)
D:\Car\sure code\slave_school\obj/../Libraries/wch_libraries/Peripheral/ch32v10x_tim.c:79
  tmpcr1 |= (uint32_t)TIM_TimeBaseInitStruct->TIM_ClockDivision;
    1cf2:	fd842783          	lw	a5,-40(s0)
    1cf6:	0067d703          	lhu	a4,6(a5)
    1cfa:	fee45783          	lhu	a5,-18(s0)
    1cfe:	8fd9                	or	a5,a5,a4
    1d00:	fef41723          	sh	a5,-18(s0)
D:\Car\sure code\slave_school\obj/../Libraries/wch_libraries/Peripheral/ch32v10x_tim.c:81

  TIMx->CTLR1 = tmpcr1;
    1d04:	fdc42783          	lw	a5,-36(s0)
    1d08:	fee45703          	lhu	a4,-18(s0)
    1d0c:	00e79023          	sh	a4,0(a5)
D:\Car\sure code\slave_school\obj/../Libraries/wch_libraries/Peripheral/ch32v10x_tim.c:82
  TIMx->ATRLR = TIM_TimeBaseInitStruct->TIM_Period ;
    1d10:	fd842783          	lw	a5,-40(s0)
    1d14:	0047d703          	lhu	a4,4(a5)
    1d18:	fdc42783          	lw	a5,-36(s0)
    1d1c:	02e79623          	sh	a4,44(a5)
D:\Car\sure code\slave_school\obj/../Libraries/wch_libraries/Peripheral/ch32v10x_tim.c:83
  TIMx->PSC = TIM_TimeBaseInitStruct->TIM_Prescaler;
    1d20:	fd842783          	lw	a5,-40(s0)
    1d24:	0007d703          	lhu	a4,0(a5)
    1d28:	fdc42783          	lw	a5,-36(s0)
    1d2c:	02e79423          	sh	a4,40(a5)
D:\Car\sure code\slave_school\obj/../Libraries/wch_libraries/Peripheral/ch32v10x_tim.c:85
    
  if (TIMx == TIM1)  
    1d30:	fdc42703          	lw	a4,-36(s0)
    1d34:	400137b7          	lui	a5,0x40013
    1d38:	c0078793          	addi	a5,a5,-1024 # 40012c00 <_eusrstack+0x2000dc00>
    1d3c:	00f71d63          	bne	a4,a5,1d56 <TIM_TimeBaseInit+0xe8>
D:\Car\sure code\slave_school\obj/../Libraries/wch_libraries/Peripheral/ch32v10x_tim.c:87
  {
    TIMx->RPTCR = TIM_TimeBaseInitStruct->TIM_RepetitionCounter;
    1d40:	fd842783          	lw	a5,-40(s0)
    1d44:	0087c783          	lbu	a5,8(a5)
    1d48:	01079713          	slli	a4,a5,0x10
    1d4c:	8341                	srli	a4,a4,0x10
    1d4e:	fdc42783          	lw	a5,-36(s0)
    1d52:	02e79823          	sh	a4,48(a5)
D:\Car\sure code\slave_school\obj/../Libraries/wch_libraries/Peripheral/ch32v10x_tim.c:90
  }

  TIMx->SWEVGR = TIM_PSCReloadMode_Immediate;           
    1d56:	fdc42783          	lw	a5,-36(s0)
    1d5a:	4705                	li	a4,1
    1d5c:	00e79a23          	sh	a4,20(a5)
D:\Car\sure code\slave_school\obj/../Libraries/wch_libraries/Peripheral/ch32v10x_tim.c:91
}
    1d60:	0001                	nop
    1d62:	5432                	lw	s0,44(sp)
    1d64:	6145                	addi	sp,sp,48
    1d66:	8082                	ret

00001d68 <TIM_TimeBaseStructInit>:
TIM_TimeBaseStructInit():
D:\Car\sure code\slave_school\obj/../Libraries/wch_libraries/Peripheral/ch32v10x_tim.c:367
* Description    : Fills each TIM_TimeBaseInitStruct member with its default value.
* Input          : TIM_TimeBaseInitStruct : pointer to a TIM_TimeBaseInitTypeDef structure.                 
* Return         : None
*******************************************************************************/
void TIM_TimeBaseStructInit(TIM_TimeBaseInitTypeDef* TIM_TimeBaseInitStruct)
{
    1d68:	1101                	addi	sp,sp,-32
    1d6a:	ce22                	sw	s0,28(sp)
    1d6c:	1000                	addi	s0,sp,32
    1d6e:	fea42623          	sw	a0,-20(s0)
D:\Car\sure code\slave_school\obj/../Libraries/wch_libraries/Peripheral/ch32v10x_tim.c:368
  TIM_TimeBaseInitStruct->TIM_Period = 0xFFFF;
    1d72:	fec42783          	lw	a5,-20(s0)
    1d76:	577d                	li	a4,-1
    1d78:	00e79223          	sh	a4,4(a5)
D:\Car\sure code\slave_school\obj/../Libraries/wch_libraries/Peripheral/ch32v10x_tim.c:369
  TIM_TimeBaseInitStruct->TIM_Prescaler = 0x0000;
    1d7c:	fec42783          	lw	a5,-20(s0)
    1d80:	00079023          	sh	zero,0(a5)
D:\Car\sure code\slave_school\obj/../Libraries/wch_libraries/Peripheral/ch32v10x_tim.c:370
  TIM_TimeBaseInitStruct->TIM_ClockDivision = TIM_CKD_DIV1;
    1d84:	fec42783          	lw	a5,-20(s0)
    1d88:	00079323          	sh	zero,6(a5)
D:\Car\sure code\slave_school\obj/../Libraries/wch_libraries/Peripheral/ch32v10x_tim.c:371
  TIM_TimeBaseInitStruct->TIM_CounterMode = TIM_CounterMode_Up;
    1d8c:	fec42783          	lw	a5,-20(s0)
    1d90:	00079123          	sh	zero,2(a5)
D:\Car\sure code\slave_school\obj/../Libraries/wch_libraries/Peripheral/ch32v10x_tim.c:372
  TIM_TimeBaseInitStruct->TIM_RepetitionCounter = 0x0000;
    1d94:	fec42783          	lw	a5,-20(s0)
    1d98:	00078423          	sb	zero,8(a5)
D:\Car\sure code\slave_school\obj/../Libraries/wch_libraries/Peripheral/ch32v10x_tim.c:373
}
    1d9c:	0001                	nop
    1d9e:	4472                	lw	s0,28(sp)
    1da0:	6105                	addi	sp,sp,32
    1da2:	8082                	ret

00001da4 <TIM_Cmd>:
TIM_Cmd():
D:\Car\sure code\slave_school\obj/../Libraries/wch_libraries/Peripheral/ch32v10x_tim.c:433
* Input          : TIMx: where x can be 1 to 4 to select the TIM peripheral.
*                  NewState: ENABLE or DISABLE.
* Return         : None
*******************************************************************************/
void TIM_Cmd(TIM_TypeDef* TIMx, FunctionalState NewState)
{ 
    1da4:	1101                	addi	sp,sp,-32
    1da6:	ce22                	sw	s0,28(sp)
    1da8:	1000                	addi	s0,sp,32
    1daa:	fea42623          	sw	a0,-20(s0)
    1dae:	feb42423          	sw	a1,-24(s0)
D:\Car\sure code\slave_school\obj/../Libraries/wch_libraries/Peripheral/ch32v10x_tim.c:434
  if (NewState != DISABLE)
    1db2:	fe842783          	lw	a5,-24(s0)
    1db6:	c38d                	beqz	a5,1dd8 <TIM_Cmd+0x34>
D:\Car\sure code\slave_school\obj/../Libraries/wch_libraries/Peripheral/ch32v10x_tim.c:436
  {
    TIMx->CTLR1 |= TIM_CEN;
    1db8:	fec42783          	lw	a5,-20(s0)
    1dbc:	0007d783          	lhu	a5,0(a5)
    1dc0:	07c2                	slli	a5,a5,0x10
    1dc2:	83c1                	srli	a5,a5,0x10
    1dc4:	0017e793          	ori	a5,a5,1
    1dc8:	01079713          	slli	a4,a5,0x10
    1dcc:	8341                	srli	a4,a4,0x10
    1dce:	fec42783          	lw	a5,-20(s0)
    1dd2:	00e79023          	sh	a4,0(a5)
D:\Car\sure code\slave_school\obj/../Libraries/wch_libraries/Peripheral/ch32v10x_tim.c:442
  }
  else
  {
    TIMx->CTLR1 &= (uint16_t)(~((uint16_t)TIM_CEN));
  }
}
    1dd6:	a839                	j	1df4 <TIM_Cmd+0x50>
D:\Car\sure code\slave_school\obj/../Libraries/wch_libraries/Peripheral/ch32v10x_tim.c:440
    TIMx->CTLR1 &= (uint16_t)(~((uint16_t)TIM_CEN));
    1dd8:	fec42783          	lw	a5,-20(s0)
    1ddc:	0007d783          	lhu	a5,0(a5)
    1de0:	07c2                	slli	a5,a5,0x10
    1de2:	83c1                	srli	a5,a5,0x10
    1de4:	9bf9                	andi	a5,a5,-2
    1de6:	01079713          	slli	a4,a5,0x10
    1dea:	8341                	srli	a4,a4,0x10
    1dec:	fec42783          	lw	a5,-20(s0)
    1df0:	00e79023          	sh	a4,0(a5)
D:\Car\sure code\slave_school\obj/../Libraries/wch_libraries/Peripheral/ch32v10x_tim.c:442
}
    1df4:	0001                	nop
    1df6:	4472                	lw	s0,28(sp)
    1df8:	6105                	addi	sp,sp,32
    1dfa:	8082                	ret

00001dfc <TIM_ITConfig>:
TIM_ITConfig():
D:\Car\sure code\slave_school\obj/../Libraries/wch_libraries/Peripheral/ch32v10x_tim.c:480
*                    TIM_IT_Break: TIM Break Interrupt source.
*                  NewState: ENABLE or DISABLE.
* Return         : None
*******************************************************************************/
void TIM_ITConfig(TIM_TypeDef* TIMx, uint16_t TIM_IT, FunctionalState NewState)
{  
    1dfc:	1101                	addi	sp,sp,-32
    1dfe:	ce22                	sw	s0,28(sp)
    1e00:	1000                	addi	s0,sp,32
    1e02:	fea42623          	sw	a0,-20(s0)
    1e06:	87ae                	mv	a5,a1
    1e08:	fec42223          	sw	a2,-28(s0)
    1e0c:	fef41523          	sh	a5,-22(s0)
D:\Car\sure code\slave_school\obj/../Libraries/wch_libraries/Peripheral/ch32v10x_tim.c:481
  if (NewState != DISABLE)
    1e10:	fe442783          	lw	a5,-28(s0)
    1e14:	c39d                	beqz	a5,1e3a <TIM_ITConfig+0x3e>
D:\Car\sure code\slave_school\obj/../Libraries/wch_libraries/Peripheral/ch32v10x_tim.c:483
  {
    TIMx->DMAINTENR |= TIM_IT;
    1e16:	fec42783          	lw	a5,-20(s0)
    1e1a:	00c7d783          	lhu	a5,12(a5)
    1e1e:	01079713          	slli	a4,a5,0x10
    1e22:	8341                	srli	a4,a4,0x10
    1e24:	fea45783          	lhu	a5,-22(s0)
    1e28:	8fd9                	or	a5,a5,a4
    1e2a:	01079713          	slli	a4,a5,0x10
    1e2e:	8341                	srli	a4,a4,0x10
    1e30:	fec42783          	lw	a5,-20(s0)
    1e34:	00e79623          	sh	a4,12(a5)
D:\Car\sure code\slave_school\obj/../Libraries/wch_libraries/Peripheral/ch32v10x_tim.c:489
  }
  else
  {
    TIMx->DMAINTENR &= (uint16_t)~TIM_IT;
  }
}
    1e38:	a035                	j	1e64 <TIM_ITConfig+0x68>
D:\Car\sure code\slave_school\obj/../Libraries/wch_libraries/Peripheral/ch32v10x_tim.c:487
    TIMx->DMAINTENR &= (uint16_t)~TIM_IT;
    1e3a:	fec42783          	lw	a5,-20(s0)
    1e3e:	00c7d783          	lhu	a5,12(a5)
    1e42:	01079713          	slli	a4,a5,0x10
    1e46:	8341                	srli	a4,a4,0x10
    1e48:	fea45783          	lhu	a5,-22(s0)
    1e4c:	fff7c793          	not	a5,a5
    1e50:	07c2                	slli	a5,a5,0x10
    1e52:	83c1                	srli	a5,a5,0x10
    1e54:	8ff9                	and	a5,a5,a4
    1e56:	01079713          	slli	a4,a5,0x10
    1e5a:	8341                	srli	a4,a4,0x10
    1e5c:	fec42783          	lw	a5,-20(s0)
    1e60:	00e79623          	sh	a4,12(a5)
D:\Car\sure code\slave_school\obj/../Libraries/wch_libraries/Peripheral/ch32v10x_tim.c:489
}
    1e64:	0001                	nop
    1e66:	4472                	lw	s0,28(sp)
    1e68:	6105                	addi	sp,sp,32
    1e6a:	8082                	ret

00001e6c <TIM_DMACmd>:
TIM_DMACmd():
D:\Car\sure code\slave_school\obj/../Libraries/wch_libraries/Peripheral/ch32v10x_tim.c:559
*                    TIM_DMA_Trigger: TIM Trigger DMA source.
*                  NewState: ENABLE or DISABLE.
* Return         : None
*******************************************************************************/
void TIM_DMACmd(TIM_TypeDef* TIMx, uint16_t TIM_DMASource, FunctionalState NewState)
{ 
    1e6c:	1101                	addi	sp,sp,-32
    1e6e:	ce22                	sw	s0,28(sp)
    1e70:	1000                	addi	s0,sp,32
    1e72:	fea42623          	sw	a0,-20(s0)
    1e76:	87ae                	mv	a5,a1
    1e78:	fec42223          	sw	a2,-28(s0)
    1e7c:	fef41523          	sh	a5,-22(s0)
D:\Car\sure code\slave_school\obj/../Libraries/wch_libraries/Peripheral/ch32v10x_tim.c:560
  if (NewState != DISABLE)
    1e80:	fe442783          	lw	a5,-28(s0)
    1e84:	c39d                	beqz	a5,1eaa <TIM_DMACmd+0x3e>
D:\Car\sure code\slave_school\obj/../Libraries/wch_libraries/Peripheral/ch32v10x_tim.c:562
  {
    TIMx->DMAINTENR |= TIM_DMASource; 
    1e86:	fec42783          	lw	a5,-20(s0)
    1e8a:	00c7d783          	lhu	a5,12(a5)
    1e8e:	01079713          	slli	a4,a5,0x10
    1e92:	8341                	srli	a4,a4,0x10
    1e94:	fea45783          	lhu	a5,-22(s0)
    1e98:	8fd9                	or	a5,a5,a4
    1e9a:	01079713          	slli	a4,a5,0x10
    1e9e:	8341                	srli	a4,a4,0x10
    1ea0:	fec42783          	lw	a5,-20(s0)
    1ea4:	00e79623          	sh	a4,12(a5)
D:\Car\sure code\slave_school\obj/../Libraries/wch_libraries/Peripheral/ch32v10x_tim.c:568
  }
  else
  {
    TIMx->DMAINTENR &= (uint16_t)~TIM_DMASource;
  }
}
    1ea8:	a035                	j	1ed4 <TIM_DMACmd+0x68>
D:\Car\sure code\slave_school\obj/../Libraries/wch_libraries/Peripheral/ch32v10x_tim.c:566
    TIMx->DMAINTENR &= (uint16_t)~TIM_DMASource;
    1eaa:	fec42783          	lw	a5,-20(s0)
    1eae:	00c7d783          	lhu	a5,12(a5)
    1eb2:	01079713          	slli	a4,a5,0x10
    1eb6:	8341                	srli	a4,a4,0x10
    1eb8:	fea45783          	lhu	a5,-22(s0)
    1ebc:	fff7c793          	not	a5,a5
    1ec0:	07c2                	slli	a5,a5,0x10
    1ec2:	83c1                	srli	a5,a5,0x10
    1ec4:	8ff9                	and	a5,a5,a4
    1ec6:	01079713          	slli	a4,a5,0x10
    1eca:	8341                	srli	a4,a4,0x10
    1ecc:	fec42783          	lw	a5,-20(s0)
    1ed0:	00e79623          	sh	a4,12(a5)
D:\Car\sure code\slave_school\obj/../Libraries/wch_libraries/Peripheral/ch32v10x_tim.c:568
}
    1ed4:	0001                	nop
    1ed6:	4472                	lw	s0,28(sp)
    1ed8:	6105                	addi	sp,sp,32
    1eda:	8082                	ret

00001edc <TIM_ETRClockMode1Config>:
TIM_ETRClockMode1Config():
D:\Car\sure code\slave_school\obj/../Libraries/wch_libraries/Peripheral/ch32v10x_tim.c:649
*                    This parameter must be a value between 0x0 and 0xF.
* Return         : None
*******************************************************************************/
void TIM_ETRClockMode1Config(TIM_TypeDef* TIMx, uint16_t TIM_ExtTRGPrescaler, uint16_t TIM_ExtTRGPolarity,
                             uint16_t ExtTRGFilter)
{
    1edc:	7179                	addi	sp,sp,-48
    1ede:	d606                	sw	ra,44(sp)
    1ee0:	d422                	sw	s0,40(sp)
    1ee2:	1800                	addi	s0,sp,48
    1ee4:	fca42e23          	sw	a0,-36(s0)
    1ee8:	87ae                	mv	a5,a1
    1eea:	8736                	mv	a4,a3
    1eec:	fcf41d23          	sh	a5,-38(s0)
    1ef0:	87b2                	mv	a5,a2
    1ef2:	fcf41c23          	sh	a5,-40(s0)
    1ef6:	87ba                	mv	a5,a4
    1ef8:	fcf41b23          	sh	a5,-42(s0)
D:\Car\sure code\slave_school\obj/../Libraries/wch_libraries/Peripheral/ch32v10x_tim.c:650
  uint16_t tmpsmcr = 0;
    1efc:	fe041723          	sh	zero,-18(s0)
D:\Car\sure code\slave_school\obj/../Libraries/wch_libraries/Peripheral/ch32v10x_tim.c:652

  TIM_ETRConfig(TIMx, TIM_ExtTRGPrescaler, TIM_ExtTRGPolarity, ExtTRGFilter);
    1f00:	fd645683          	lhu	a3,-42(s0)
    1f04:	fd845703          	lhu	a4,-40(s0)
    1f08:	fda45783          	lhu	a5,-38(s0)
    1f0c:	863a                	mv	a2,a4
    1f0e:	85be                	mv	a1,a5
    1f10:	fdc42503          	lw	a0,-36(s0)
    1f14:	2889                	jal	1f66 <TIM_ETRConfig>
D:\Car\sure code\slave_school\obj/../Libraries/wch_libraries/Peripheral/ch32v10x_tim.c:653
  tmpsmcr = TIMx->SMCFGR;
    1f16:	fdc42783          	lw	a5,-36(s0)
    1f1a:	0087d783          	lhu	a5,8(a5)
    1f1e:	fef41723          	sh	a5,-18(s0)
D:\Car\sure code\slave_school\obj/../Libraries/wch_libraries/Peripheral/ch32v10x_tim.c:654
  tmpsmcr &= (uint16_t)(~((uint16_t)TIM_SMS));
    1f22:	fee45783          	lhu	a5,-18(s0)
    1f26:	9be1                	andi	a5,a5,-8
    1f28:	fef41723          	sh	a5,-18(s0)
D:\Car\sure code\slave_school\obj/../Libraries/wch_libraries/Peripheral/ch32v10x_tim.c:655
  tmpsmcr |= TIM_SlaveMode_External1;
    1f2c:	fee45783          	lhu	a5,-18(s0)
    1f30:	0077e793          	ori	a5,a5,7
    1f34:	fef41723          	sh	a5,-18(s0)
D:\Car\sure code\slave_school\obj/../Libraries/wch_libraries/Peripheral/ch32v10x_tim.c:656
  tmpsmcr &= (uint16_t)(~((uint16_t)TIM_TS));
    1f38:	fee45783          	lhu	a5,-18(s0)
    1f3c:	f8f7f793          	andi	a5,a5,-113
    1f40:	fef41723          	sh	a5,-18(s0)
D:\Car\sure code\slave_school\obj/../Libraries/wch_libraries/Peripheral/ch32v10x_tim.c:657
  tmpsmcr |= TIM_TS_ETRF;
    1f44:	fee45783          	lhu	a5,-18(s0)
    1f48:	0707e793          	ori	a5,a5,112
    1f4c:	fef41723          	sh	a5,-18(s0)
D:\Car\sure code\slave_school\obj/../Libraries/wch_libraries/Peripheral/ch32v10x_tim.c:658
  TIMx->SMCFGR = tmpsmcr;
    1f50:	fdc42783          	lw	a5,-36(s0)
    1f54:	fee45703          	lhu	a4,-18(s0)
    1f58:	00e79423          	sh	a4,8(a5)
D:\Car\sure code\slave_school\obj/../Libraries/wch_libraries/Peripheral/ch32v10x_tim.c:659
}
    1f5c:	0001                	nop
    1f5e:	50b2                	lw	ra,44(sp)
    1f60:	5422                	lw	s0,40(sp)
    1f62:	6145                	addi	sp,sp,48
    1f64:	8082                	ret

00001f66 <TIM_ETRConfig>:
TIM_ETRConfig():
D:\Car\sure code\slave_school\obj/../Libraries/wch_libraries/Peripheral/ch32v10x_tim.c:702
*                    This parameter must be a value between 0x0 and 0xF.
* Return         : None
*******************************************************************************/
void TIM_ETRConfig(TIM_TypeDef* TIMx, uint16_t TIM_ExtTRGPrescaler, uint16_t TIM_ExtTRGPolarity,
                   uint16_t ExtTRGFilter)
{
    1f66:	7179                	addi	sp,sp,-48
    1f68:	d622                	sw	s0,44(sp)
    1f6a:	1800                	addi	s0,sp,48
    1f6c:	fca42e23          	sw	a0,-36(s0)
    1f70:	87ae                	mv	a5,a1
    1f72:	8736                	mv	a4,a3
    1f74:	fcf41d23          	sh	a5,-38(s0)
    1f78:	87b2                	mv	a5,a2
    1f7a:	fcf41c23          	sh	a5,-40(s0)
    1f7e:	87ba                	mv	a5,a4
    1f80:	fcf41b23          	sh	a5,-42(s0)
D:\Car\sure code\slave_school\obj/../Libraries/wch_libraries/Peripheral/ch32v10x_tim.c:703
  uint16_t tmpsmcr = 0;
    1f84:	fe041723          	sh	zero,-18(s0)
D:\Car\sure code\slave_school\obj/../Libraries/wch_libraries/Peripheral/ch32v10x_tim.c:705

  tmpsmcr = TIMx->SMCFGR;
    1f88:	fdc42783          	lw	a5,-36(s0)
    1f8c:	0087d783          	lhu	a5,8(a5)
    1f90:	fef41723          	sh	a5,-18(s0)
D:\Car\sure code\slave_school\obj/../Libraries/wch_libraries/Peripheral/ch32v10x_tim.c:706
  tmpsmcr &= SMCFGR_ETR_Mask;
    1f94:	fee45783          	lhu	a5,-18(s0)
    1f98:	0ff7f793          	andi	a5,a5,255
    1f9c:	fef41723          	sh	a5,-18(s0)
D:\Car\sure code\slave_school\obj/../Libraries/wch_libraries/Peripheral/ch32v10x_tim.c:707
  tmpsmcr |= (uint16_t)(TIM_ExtTRGPrescaler | (uint16_t)(TIM_ExtTRGPolarity | (uint16_t)(ExtTRGFilter << (uint16_t)8)));
    1fa0:	fd645783          	lhu	a5,-42(s0)
    1fa4:	07a2                	slli	a5,a5,0x8
    1fa6:	01079713          	slli	a4,a5,0x10
    1faa:	8341                	srli	a4,a4,0x10
    1fac:	fd845783          	lhu	a5,-40(s0)
    1fb0:	8fd9                	or	a5,a5,a4
    1fb2:	01079713          	slli	a4,a5,0x10
    1fb6:	8341                	srli	a4,a4,0x10
    1fb8:	fda45783          	lhu	a5,-38(s0)
    1fbc:	8fd9                	or	a5,a5,a4
    1fbe:	01079713          	slli	a4,a5,0x10
    1fc2:	8341                	srli	a4,a4,0x10
    1fc4:	fee45783          	lhu	a5,-18(s0)
    1fc8:	8fd9                	or	a5,a5,a4
    1fca:	fef41723          	sh	a5,-18(s0)
D:\Car\sure code\slave_school\obj/../Libraries/wch_libraries/Peripheral/ch32v10x_tim.c:708
  TIMx->SMCFGR = tmpsmcr;
    1fce:	fdc42783          	lw	a5,-36(s0)
    1fd2:	fee45703          	lhu	a4,-18(s0)
    1fd6:	00e79423          	sh	a4,8(a5)
D:\Car\sure code\slave_school\obj/../Libraries/wch_libraries/Peripheral/ch32v10x_tim.c:709
}
    1fda:	0001                	nop
    1fdc:	5432                	lw	s0,44(sp)
    1fde:	6145                	addi	sp,sp,48
    1fe0:	8082                	ret

00001fe2 <TIM_SelectInputTrigger>:
TIM_SelectInputTrigger():
D:\Car\sure code\slave_school\obj/../Libraries/wch_libraries/Peripheral/ch32v10x_tim.c:766
*                    TIM_TS_TI2FP2: Filtered Timer Input 2.
*                    TIM_TS_ETRF: External Trigger input.
* Return         : None
*******************************************************************************/
void TIM_SelectInputTrigger(TIM_TypeDef* TIMx, uint16_t TIM_InputTriggerSource)
{
    1fe2:	7179                	addi	sp,sp,-48
    1fe4:	d622                	sw	s0,44(sp)
    1fe6:	1800                	addi	s0,sp,48
    1fe8:	fca42e23          	sw	a0,-36(s0)
    1fec:	87ae                	mv	a5,a1
    1fee:	fcf41d23          	sh	a5,-38(s0)
D:\Car\sure code\slave_school\obj/../Libraries/wch_libraries/Peripheral/ch32v10x_tim.c:767
  uint16_t tmpsmcr = 0;
    1ff2:	fe041723          	sh	zero,-18(s0)
D:\Car\sure code\slave_school\obj/../Libraries/wch_libraries/Peripheral/ch32v10x_tim.c:769

  tmpsmcr = TIMx->SMCFGR;
    1ff6:	fdc42783          	lw	a5,-36(s0)
    1ffa:	0087d783          	lhu	a5,8(a5)
    1ffe:	fef41723          	sh	a5,-18(s0)
D:\Car\sure code\slave_school\obj/../Libraries/wch_libraries/Peripheral/ch32v10x_tim.c:770
  tmpsmcr &= (uint16_t)(~((uint16_t)TIM_TS));
    2002:	fee45783          	lhu	a5,-18(s0)
    2006:	f8f7f793          	andi	a5,a5,-113
    200a:	fef41723          	sh	a5,-18(s0)
D:\Car\sure code\slave_school\obj/../Libraries/wch_libraries/Peripheral/ch32v10x_tim.c:771
  tmpsmcr |= TIM_InputTriggerSource;
    200e:	fee45703          	lhu	a4,-18(s0)
    2012:	fda45783          	lhu	a5,-38(s0)
    2016:	8fd9                	or	a5,a5,a4
    2018:	fef41723          	sh	a5,-18(s0)
D:\Car\sure code\slave_school\obj/../Libraries/wch_libraries/Peripheral/ch32v10x_tim.c:772
  TIMx->SMCFGR = tmpsmcr;
    201c:	fdc42783          	lw	a5,-36(s0)
    2020:	fee45703          	lhu	a4,-18(s0)
    2024:	00e79423          	sh	a4,8(a5)
D:\Car\sure code\slave_school\obj/../Libraries/wch_libraries/Peripheral/ch32v10x_tim.c:773
}
    2028:	0001                	nop
    202a:	5432                	lw	s0,44(sp)
    202c:	6145                	addi	sp,sp,48
    202e:	8082                	ret

00002030 <TIM_EncoderInterfaceConfig>:
TIM_EncoderInterfaceConfig():
D:\Car\sure code\slave_school\obj/../Libraries/wch_libraries/Peripheral/ch32v10x_tim.c:796
*                    TIM_ICPolarity_Rising: IC Rising edge.
* Return         : None
*******************************************************************************/
void TIM_EncoderInterfaceConfig(TIM_TypeDef* TIMx, uint16_t TIM_EncoderMode,
                                uint16_t TIM_IC1Polarity, uint16_t TIM_IC2Polarity)
{
    2030:	7179                	addi	sp,sp,-48
    2032:	d622                	sw	s0,44(sp)
    2034:	1800                	addi	s0,sp,48
    2036:	fca42e23          	sw	a0,-36(s0)
    203a:	87ae                	mv	a5,a1
    203c:	8736                	mv	a4,a3
    203e:	fcf41d23          	sh	a5,-38(s0)
    2042:	87b2                	mv	a5,a2
    2044:	fcf41c23          	sh	a5,-40(s0)
    2048:	87ba                	mv	a5,a4
    204a:	fcf41b23          	sh	a5,-42(s0)
D:\Car\sure code\slave_school\obj/../Libraries/wch_libraries/Peripheral/ch32v10x_tim.c:797
  uint16_t tmpsmcr = 0;
    204e:	fe041723          	sh	zero,-18(s0)
D:\Car\sure code\slave_school\obj/../Libraries/wch_libraries/Peripheral/ch32v10x_tim.c:798
  uint16_t tmpccmr1 = 0;
    2052:	fe041623          	sh	zero,-20(s0)
D:\Car\sure code\slave_school\obj/../Libraries/wch_libraries/Peripheral/ch32v10x_tim.c:799
  uint16_t tmpccer = 0;
    2056:	fe041523          	sh	zero,-22(s0)
D:\Car\sure code\slave_school\obj/../Libraries/wch_libraries/Peripheral/ch32v10x_tim.c:801
    
  tmpsmcr = TIMx->SMCFGR;
    205a:	fdc42783          	lw	a5,-36(s0)
    205e:	0087d783          	lhu	a5,8(a5)
    2062:	fef41723          	sh	a5,-18(s0)
D:\Car\sure code\slave_school\obj/../Libraries/wch_libraries/Peripheral/ch32v10x_tim.c:802
  tmpccmr1 = TIMx->CHCTLR1;
    2066:	fdc42783          	lw	a5,-36(s0)
    206a:	0187d783          	lhu	a5,24(a5)
    206e:	fef41623          	sh	a5,-20(s0)
D:\Car\sure code\slave_school\obj/../Libraries/wch_libraries/Peripheral/ch32v10x_tim.c:803
  tmpccer = TIMx->CCER;
    2072:	fdc42783          	lw	a5,-36(s0)
    2076:	0207d783          	lhu	a5,32(a5)
    207a:	fef41523          	sh	a5,-22(s0)
D:\Car\sure code\slave_school\obj/../Libraries/wch_libraries/Peripheral/ch32v10x_tim.c:804
  tmpsmcr &= (uint16_t)(~((uint16_t)TIM_SMS));
    207e:	fee45783          	lhu	a5,-18(s0)
    2082:	9be1                	andi	a5,a5,-8
    2084:	fef41723          	sh	a5,-18(s0)
D:\Car\sure code\slave_school\obj/../Libraries/wch_libraries/Peripheral/ch32v10x_tim.c:805
  tmpsmcr |= TIM_EncoderMode;
    2088:	fee45703          	lhu	a4,-18(s0)
    208c:	fda45783          	lhu	a5,-38(s0)
    2090:	8fd9                	or	a5,a5,a4
    2092:	fef41723          	sh	a5,-18(s0)
D:\Car\sure code\slave_school\obj/../Libraries/wch_libraries/Peripheral/ch32v10x_tim.c:806
  tmpccmr1 &= (uint16_t)(((uint16_t)~((uint16_t)TIM_CC1S)) & (uint16_t)(~((uint16_t)TIM_CC2S)));
    2096:	fec45783          	lhu	a5,-20(s0)
    209a:	cfc7f793          	andi	a5,a5,-772
    209e:	fef41623          	sh	a5,-20(s0)
D:\Car\sure code\slave_school\obj/../Libraries/wch_libraries/Peripheral/ch32v10x_tim.c:807
  tmpccmr1 |= TIM_CC1S_0 | TIM_CC2S_0;
    20a2:	fec45783          	lhu	a5,-20(s0)
    20a6:	1017e793          	ori	a5,a5,257
    20aa:	fef41623          	sh	a5,-20(s0)
D:\Car\sure code\slave_school\obj/../Libraries/wch_libraries/Peripheral/ch32v10x_tim.c:808
  tmpccer &= (uint16_t)(((uint16_t)~((uint16_t)TIM_CC1P)) & ((uint16_t)~((uint16_t)TIM_CC2P)));
    20ae:	fea45783          	lhu	a5,-22(s0)
    20b2:	fdd7f793          	andi	a5,a5,-35
    20b6:	fef41523          	sh	a5,-22(s0)
D:\Car\sure code\slave_school\obj/../Libraries/wch_libraries/Peripheral/ch32v10x_tim.c:809
  tmpccer |= (uint16_t)(TIM_IC1Polarity | (uint16_t)(TIM_IC2Polarity << (uint16_t)4)); 
    20ba:	fd645783          	lhu	a5,-42(s0)
    20be:	0792                	slli	a5,a5,0x4
    20c0:	01079713          	slli	a4,a5,0x10
    20c4:	8341                	srli	a4,a4,0x10
    20c6:	fd845783          	lhu	a5,-40(s0)
    20ca:	8fd9                	or	a5,a5,a4
    20cc:	01079713          	slli	a4,a5,0x10
    20d0:	8341                	srli	a4,a4,0x10
    20d2:	fea45783          	lhu	a5,-22(s0)
    20d6:	8fd9                	or	a5,a5,a4
    20d8:	fef41523          	sh	a5,-22(s0)
D:\Car\sure code\slave_school\obj/../Libraries/wch_libraries/Peripheral/ch32v10x_tim.c:810
  TIMx->SMCFGR = tmpsmcr;
    20dc:	fdc42783          	lw	a5,-36(s0)
    20e0:	fee45703          	lhu	a4,-18(s0)
    20e4:	00e79423          	sh	a4,8(a5)
D:\Car\sure code\slave_school\obj/../Libraries/wch_libraries/Peripheral/ch32v10x_tim.c:811
  TIMx->CHCTLR1 = tmpccmr1;
    20e8:	fdc42783          	lw	a5,-36(s0)
    20ec:	fec45703          	lhu	a4,-20(s0)
    20f0:	00e79c23          	sh	a4,24(a5)
D:\Car\sure code\slave_school\obj/../Libraries/wch_libraries/Peripheral/ch32v10x_tim.c:812
  TIMx->CCER = tmpccer;
    20f4:	fdc42783          	lw	a5,-36(s0)
    20f8:	fea45703          	lhu	a4,-22(s0)
    20fc:	02e79023          	sh	a4,32(a5)
D:\Car\sure code\slave_school\obj/../Libraries/wch_libraries/Peripheral/ch32v10x_tim.c:813
}
    2100:	0001                	nop
    2102:	5432                	lw	s0,44(sp)
    2104:	6145                	addi	sp,sp,48
    2106:	8082                	ret

00002108 <TIM_SelectSlaveMode>:
TIM_SelectSlaveMode():
D:\Car\sure code\slave_school\obj/../Libraries/wch_libraries/Peripheral/ch32v10x_tim.c:1535
*                    TIM_SlaveMode_External1: Rising edges of the selected trigger
*      (TRGI) clock the counter.
* Return         : None
*******************************************************************************/
void TIM_SelectSlaveMode(TIM_TypeDef* TIMx, uint16_t TIM_SlaveMode)
{
    2108:	1101                	addi	sp,sp,-32
    210a:	ce22                	sw	s0,28(sp)
    210c:	1000                	addi	s0,sp,32
    210e:	fea42623          	sw	a0,-20(s0)
    2112:	87ae                	mv	a5,a1
    2114:	fef41523          	sh	a5,-22(s0)
D:\Car\sure code\slave_school\obj/../Libraries/wch_libraries/Peripheral/ch32v10x_tim.c:1536
  TIMx->SMCFGR &= (uint16_t)~((uint16_t)TIM_SMS);
    2118:	fec42783          	lw	a5,-20(s0)
    211c:	0087d783          	lhu	a5,8(a5)
    2120:	07c2                	slli	a5,a5,0x10
    2122:	83c1                	srli	a5,a5,0x10
    2124:	9be1                	andi	a5,a5,-8
    2126:	01079713          	slli	a4,a5,0x10
    212a:	8341                	srli	a4,a4,0x10
    212c:	fec42783          	lw	a5,-20(s0)
    2130:	00e79423          	sh	a4,8(a5)
D:\Car\sure code\slave_school\obj/../Libraries/wch_libraries/Peripheral/ch32v10x_tim.c:1537
  TIMx->SMCFGR |= TIM_SlaveMode;
    2134:	fec42783          	lw	a5,-20(s0)
    2138:	0087d783          	lhu	a5,8(a5)
    213c:	01079713          	slli	a4,a5,0x10
    2140:	8341                	srli	a4,a4,0x10
    2142:	fea45783          	lhu	a5,-22(s0)
    2146:	8fd9                	or	a5,a5,a4
    2148:	01079713          	slli	a4,a5,0x10
    214c:	8341                	srli	a4,a4,0x10
    214e:	fec42783          	lw	a5,-20(s0)
    2152:	00e79423          	sh	a4,8(a5)
D:\Car\sure code\slave_school\obj/../Libraries/wch_libraries/Peripheral/ch32v10x_tim.c:1538
}
    2156:	0001                	nop
    2158:	4472                	lw	s0,28(sp)
    215a:	6105                	addi	sp,sp,32
    215c:	8082                	ret

0000215e <TIM_SelectMasterSlaveMode>:
TIM_SelectMasterSlaveMode():
D:\Car\sure code\slave_school\obj/../Libraries/wch_libraries/Peripheral/ch32v10x_tim.c:1551
*      timer and its slaves (through TRGO).
*                    TIM_MasterSlaveMode_Disable: No action.
* Return         : None
*******************************************************************************/
void TIM_SelectMasterSlaveMode(TIM_TypeDef* TIMx, uint16_t TIM_MasterSlaveMode)
{
    215e:	1101                	addi	sp,sp,-32
    2160:	ce22                	sw	s0,28(sp)
    2162:	1000                	addi	s0,sp,32
    2164:	fea42623          	sw	a0,-20(s0)
    2168:	87ae                	mv	a5,a1
    216a:	fef41523          	sh	a5,-22(s0)
D:\Car\sure code\slave_school\obj/../Libraries/wch_libraries/Peripheral/ch32v10x_tim.c:1552
  TIMx->SMCFGR &= (uint16_t)~((uint16_t)TIM_MSM);  
    216e:	fec42783          	lw	a5,-20(s0)
    2172:	0087d783          	lhu	a5,8(a5)
    2176:	07c2                	slli	a5,a5,0x10
    2178:	83c1                	srli	a5,a5,0x10
    217a:	f7f7f793          	andi	a5,a5,-129
    217e:	01079713          	slli	a4,a5,0x10
    2182:	8341                	srli	a4,a4,0x10
    2184:	fec42783          	lw	a5,-20(s0)
    2188:	00e79423          	sh	a4,8(a5)
D:\Car\sure code\slave_school\obj/../Libraries/wch_libraries/Peripheral/ch32v10x_tim.c:1553
  TIMx->SMCFGR |= TIM_MasterSlaveMode;
    218c:	fec42783          	lw	a5,-20(s0)
    2190:	0087d783          	lhu	a5,8(a5)
    2194:	01079713          	slli	a4,a5,0x10
    2198:	8341                	srli	a4,a4,0x10
    219a:	fea45783          	lhu	a5,-22(s0)
    219e:	8fd9                	or	a5,a5,a4
    21a0:	01079713          	slli	a4,a5,0x10
    21a4:	8341                	srli	a4,a4,0x10
    21a6:	fec42783          	lw	a5,-20(s0)
    21aa:	00e79423          	sh	a4,8(a5)
D:\Car\sure code\slave_school\obj/../Libraries/wch_libraries/Peripheral/ch32v10x_tim.c:1554
}
    21ae:	0001                	nop
    21b0:	4472                	lw	s0,28(sp)
    21b2:	6105                	addi	sp,sp,32
    21b4:	8082                	ret

000021b6 <TIM_GetITStatus>:
TIM_GetITStatus():
D:\Car\sure code\slave_school\obj/../Libraries/wch_libraries/Peripheral/ch32v10x_tim.c:1853
*                    TIM_IT_Trigger: TIM Trigger Interrupt source.
*                    TIM_IT_Break: TIM Break Interrupt source.
* Return         : bitstatus: SET or RESET.
*******************************************************************************/
ITStatus TIM_GetITStatus(TIM_TypeDef* TIMx, uint16_t TIM_IT)
{
    21b6:	7179                	addi	sp,sp,-48
    21b8:	d622                	sw	s0,44(sp)
    21ba:	1800                	addi	s0,sp,48
    21bc:	fca42e23          	sw	a0,-36(s0)
    21c0:	87ae                	mv	a5,a1
    21c2:	fcf41d23          	sh	a5,-38(s0)
D:\Car\sure code\slave_school\obj/../Libraries/wch_libraries/Peripheral/ch32v10x_tim.c:1854
  ITStatus bitstatus = RESET;  
    21c6:	fe042623          	sw	zero,-20(s0)
D:\Car\sure code\slave_school\obj/../Libraries/wch_libraries/Peripheral/ch32v10x_tim.c:1855
  uint16_t itstatus = 0x0, itenable = 0x0;
    21ca:	fe041523          	sh	zero,-22(s0)
    21ce:	fe041423          	sh	zero,-24(s0)
D:\Car\sure code\slave_school\obj/../Libraries/wch_libraries/Peripheral/ch32v10x_tim.c:1857
   
  itstatus = TIMx->INTFR & TIM_IT;
    21d2:	fdc42783          	lw	a5,-36(s0)
    21d6:	0107d783          	lhu	a5,16(a5)
    21da:	01079713          	slli	a4,a5,0x10
    21de:	8341                	srli	a4,a4,0x10
    21e0:	fda45783          	lhu	a5,-38(s0)
    21e4:	8ff9                	and	a5,a5,a4
    21e6:	fef41523          	sh	a5,-22(s0)
D:\Car\sure code\slave_school\obj/../Libraries/wch_libraries/Peripheral/ch32v10x_tim.c:1859
  
  itenable = TIMx->DMAINTENR & TIM_IT;
    21ea:	fdc42783          	lw	a5,-36(s0)
    21ee:	00c7d783          	lhu	a5,12(a5)
    21f2:	01079713          	slli	a4,a5,0x10
    21f6:	8341                	srli	a4,a4,0x10
    21f8:	fda45783          	lhu	a5,-38(s0)
    21fc:	8ff9                	and	a5,a5,a4
    21fe:	fef41423          	sh	a5,-24(s0)
D:\Car\sure code\slave_school\obj/../Libraries/wch_libraries/Peripheral/ch32v10x_tim.c:1860
  if ((itstatus != (uint16_t)RESET) && (itenable != (uint16_t)RESET))
    2202:	fea45783          	lhu	a5,-22(s0)
    2206:	cb81                	beqz	a5,2216 <TIM_GetITStatus+0x60>
D:\Car\sure code\slave_school\obj/../Libraries/wch_libraries/Peripheral/ch32v10x_tim.c:1860 (discriminator 1)
    2208:	fe845783          	lhu	a5,-24(s0)
    220c:	c789                	beqz	a5,2216 <TIM_GetITStatus+0x60>
D:\Car\sure code\slave_school\obj/../Libraries/wch_libraries/Peripheral/ch32v10x_tim.c:1862
  {
    bitstatus = SET;
    220e:	4785                	li	a5,1
    2210:	fef42623          	sw	a5,-20(s0)
    2214:	a019                	j	221a <TIM_GetITStatus+0x64>
D:\Car\sure code\slave_school\obj/../Libraries/wch_libraries/Peripheral/ch32v10x_tim.c:1866
  }
  else
  {
    bitstatus = RESET;
    2216:	fe042623          	sw	zero,-20(s0)
D:\Car\sure code\slave_school\obj/../Libraries/wch_libraries/Peripheral/ch32v10x_tim.c:1869
  }
	
  return bitstatus;
    221a:	fec42783          	lw	a5,-20(s0)
D:\Car\sure code\slave_school\obj/../Libraries/wch_libraries/Peripheral/ch32v10x_tim.c:1870
}
    221e:	853e                	mv	a0,a5
    2220:	5432                	lw	s0,44(sp)
    2222:	6145                	addi	sp,sp,48
    2224:	8082                	ret

00002226 <TIM_ClearITPendingBit>:
TIM_ClearITPendingBit():
D:\Car\sure code\slave_school\obj/../Libraries/wch_libraries/Peripheral/ch32v10x_tim.c:1888
*                    TIM_IT_Trigger: TIM Trigger Interrupt source.
*                    TIM_IT_Break: TIM Break Interrupt source.
* Return         : None
*******************************************************************************/
void TIM_ClearITPendingBit(TIM_TypeDef* TIMx, uint16_t TIM_IT)
{
    2226:	1101                	addi	sp,sp,-32
    2228:	ce22                	sw	s0,28(sp)
    222a:	1000                	addi	s0,sp,32
    222c:	fea42623          	sw	a0,-20(s0)
    2230:	87ae                	mv	a5,a1
    2232:	fef41523          	sh	a5,-22(s0)
D:\Car\sure code\slave_school\obj/../Libraries/wch_libraries/Peripheral/ch32v10x_tim.c:1889
  TIMx->INTFR = (uint16_t)~TIM_IT;
    2236:	fea45783          	lhu	a5,-22(s0)
    223a:	fff7c793          	not	a5,a5
    223e:	01079713          	slli	a4,a5,0x10
    2242:	8341                	srli	a4,a4,0x10
    2244:	fec42783          	lw	a5,-20(s0)
    2248:	00e79823          	sh	a4,16(a5)
D:\Car\sure code\slave_school\obj/../Libraries/wch_libraries/Peripheral/ch32v10x_tim.c:1890
}
    224c:	0001                	nop
    224e:	4472                	lw	s0,28(sp)
    2250:	6105                	addi	sp,sp,32
    2252:	8082                	ret

00002254 <USART_Init>:
USART_Init():
D:\Car\sure code\slave_school\obj/../Libraries/wch_libraries/Peripheral/ch32v10x_usart.c:105
*                  USART_InitStruct: pointer to a USART_InitTypeDef structure
*      that contains the configuration information for the specified USART peripheral. 
* Return         : None
*******************************************************************************/
void USART_Init(USART_TypeDef* USARTx, USART_InitTypeDef* USART_InitStruct)
{
    2254:	715d                	addi	sp,sp,-80
    2256:	c686                	sw	ra,76(sp)
    2258:	c4a2                	sw	s0,72(sp)
    225a:	0880                	addi	s0,sp,80
    225c:	faa42e23          	sw	a0,-68(s0)
    2260:	fab42c23          	sw	a1,-72(s0)
D:\Car\sure code\slave_school\obj/../Libraries/wch_libraries/Peripheral/ch32v10x_usart.c:106
  uint32_t tmpreg = 0x00, apbclock = 0x00;
    2264:	fe042623          	sw	zero,-20(s0)
    2268:	fe042423          	sw	zero,-24(s0)
D:\Car\sure code\slave_school\obj/../Libraries/wch_libraries/Peripheral/ch32v10x_usart.c:107
  uint32_t integerdivider = 0x00;
    226c:	fe042223          	sw	zero,-28(s0)
D:\Car\sure code\slave_school\obj/../Libraries/wch_libraries/Peripheral/ch32v10x_usart.c:108
  uint32_t fractionaldivider = 0x00;
    2270:	fe042023          	sw	zero,-32(s0)
D:\Car\sure code\slave_school\obj/../Libraries/wch_libraries/Peripheral/ch32v10x_usart.c:109
  uint32_t usartxbase = 0;
    2274:	fc042e23          	sw	zero,-36(s0)
D:\Car\sure code\slave_school\obj/../Libraries/wch_libraries/Peripheral/ch32v10x_usart.c:116

  if (USART_InitStruct->USART_HardwareFlowControl != USART_HardwareFlowControl_None)
  {
  }

  usartxbase = (uint32_t)USARTx;
    2278:	fbc42783          	lw	a5,-68(s0)
    227c:	fcf42e23          	sw	a5,-36(s0)
D:\Car\sure code\slave_school\obj/../Libraries/wch_libraries/Peripheral/ch32v10x_usart.c:117
  tmpreg = USARTx->CTLR2;
    2280:	fbc42783          	lw	a5,-68(s0)
    2284:	0107d783          	lhu	a5,16(a5)
    2288:	07c2                	slli	a5,a5,0x10
    228a:	83c1                	srli	a5,a5,0x10
    228c:	fef42623          	sw	a5,-20(s0)
D:\Car\sure code\slave_school\obj/../Libraries/wch_libraries/Peripheral/ch32v10x_usart.c:118
  tmpreg &= CTLR2_STOP_CLEAR_Mask;
    2290:	fec42703          	lw	a4,-20(s0)
    2294:	67b5                	lui	a5,0xd
    2296:	17fd                	addi	a5,a5,-1
    2298:	8ff9                	and	a5,a5,a4
    229a:	fef42623          	sw	a5,-20(s0)
D:\Car\sure code\slave_school\obj/../Libraries/wch_libraries/Peripheral/ch32v10x_usart.c:119
  tmpreg |= (uint32_t)USART_InitStruct->USART_StopBits;  
    229e:	fb842783          	lw	a5,-72(s0)
    22a2:	0067d783          	lhu	a5,6(a5) # d006 <_data_lma+0x7842>
    22a6:	873e                	mv	a4,a5
    22a8:	fec42783          	lw	a5,-20(s0)
    22ac:	8fd9                	or	a5,a5,a4
    22ae:	fef42623          	sw	a5,-20(s0)
D:\Car\sure code\slave_school\obj/../Libraries/wch_libraries/Peripheral/ch32v10x_usart.c:121
	
  USARTx->CTLR2 = (uint16_t)tmpreg;
    22b2:	fec42783          	lw	a5,-20(s0)
    22b6:	01079713          	slli	a4,a5,0x10
    22ba:	8341                	srli	a4,a4,0x10
    22bc:	fbc42783          	lw	a5,-68(s0)
    22c0:	00e79823          	sh	a4,16(a5)
D:\Car\sure code\slave_school\obj/../Libraries/wch_libraries/Peripheral/ch32v10x_usart.c:122
  tmpreg = USARTx->CTLR1;
    22c4:	fbc42783          	lw	a5,-68(s0)
    22c8:	00c7d783          	lhu	a5,12(a5)
    22cc:	07c2                	slli	a5,a5,0x10
    22ce:	83c1                	srli	a5,a5,0x10
    22d0:	fef42623          	sw	a5,-20(s0)
D:\Car\sure code\slave_school\obj/../Libraries/wch_libraries/Peripheral/ch32v10x_usart.c:123
  tmpreg &= CTLR1_CLEAR_Mask;
    22d4:	fec42703          	lw	a4,-20(s0)
    22d8:	67bd                	lui	a5,0xf
    22da:	9f378793          	addi	a5,a5,-1549 # e9f3 <_data_lma+0x922f>
    22de:	8ff9                	and	a5,a5,a4
    22e0:	fef42623          	sw	a5,-20(s0)
D:\Car\sure code\slave_school\obj/../Libraries/wch_libraries/Peripheral/ch32v10x_usart.c:124
  tmpreg |= (uint32_t)USART_InitStruct->USART_WordLength | USART_InitStruct->USART_Parity |
    22e4:	fb842783          	lw	a5,-72(s0)
    22e8:	0047d703          	lhu	a4,4(a5)
    22ec:	fb842783          	lw	a5,-72(s0)
    22f0:	0087d783          	lhu	a5,8(a5)
    22f4:	8fd9                	or	a5,a5,a4
    22f6:	01079713          	slli	a4,a5,0x10
    22fa:	8341                	srli	a4,a4,0x10
D:\Car\sure code\slave_school\obj/../Libraries/wch_libraries/Peripheral/ch32v10x_usart.c:125
            USART_InitStruct->USART_Mode;
    22fc:	fb842783          	lw	a5,-72(s0)
    2300:	00a7d783          	lhu	a5,10(a5)
D:\Car\sure code\slave_school\obj/../Libraries/wch_libraries/Peripheral/ch32v10x_usart.c:124
  tmpreg |= (uint32_t)USART_InitStruct->USART_WordLength | USART_InitStruct->USART_Parity |
    2304:	8fd9                	or	a5,a5,a4
    2306:	07c2                	slli	a5,a5,0x10
    2308:	83c1                	srli	a5,a5,0x10
    230a:	873e                	mv	a4,a5
    230c:	fec42783          	lw	a5,-20(s0)
    2310:	8fd9                	or	a5,a5,a4
    2312:	fef42623          	sw	a5,-20(s0)
D:\Car\sure code\slave_school\obj/../Libraries/wch_libraries/Peripheral/ch32v10x_usart.c:126
  USARTx->CTLR1 = (uint16_t)tmpreg;
    2316:	fec42783          	lw	a5,-20(s0)
    231a:	01079713          	slli	a4,a5,0x10
    231e:	8341                	srli	a4,a4,0x10
    2320:	fbc42783          	lw	a5,-68(s0)
    2324:	00e79623          	sh	a4,12(a5)
D:\Car\sure code\slave_school\obj/../Libraries/wch_libraries/Peripheral/ch32v10x_usart.c:128
 
  tmpreg = USARTx->CTLR3;
    2328:	fbc42783          	lw	a5,-68(s0)
    232c:	0147d783          	lhu	a5,20(a5)
    2330:	07c2                	slli	a5,a5,0x10
    2332:	83c1                	srli	a5,a5,0x10
    2334:	fef42623          	sw	a5,-20(s0)
D:\Car\sure code\slave_school\obj/../Libraries/wch_libraries/Peripheral/ch32v10x_usart.c:129
  tmpreg &= CTLR3_CLEAR_Mask;
    2338:	fec42703          	lw	a4,-20(s0)
    233c:	67c1                	lui	a5,0x10
    233e:	cff78793          	addi	a5,a5,-769 # fcff <_data_lma+0xa53b>
    2342:	8ff9                	and	a5,a5,a4
    2344:	fef42623          	sw	a5,-20(s0)
D:\Car\sure code\slave_school\obj/../Libraries/wch_libraries/Peripheral/ch32v10x_usart.c:130
  tmpreg |= USART_InitStruct->USART_HardwareFlowControl;
    2348:	fb842783          	lw	a5,-72(s0)
    234c:	00c7d783          	lhu	a5,12(a5)
    2350:	873e                	mv	a4,a5
    2352:	fec42783          	lw	a5,-20(s0)
    2356:	8fd9                	or	a5,a5,a4
    2358:	fef42623          	sw	a5,-20(s0)
D:\Car\sure code\slave_school\obj/../Libraries/wch_libraries/Peripheral/ch32v10x_usart.c:131
  USARTx->CTLR3 = (uint16_t)tmpreg;
    235c:	fec42783          	lw	a5,-20(s0)
    2360:	01079713          	slli	a4,a5,0x10
    2364:	8341                	srli	a4,a4,0x10
    2366:	fbc42783          	lw	a5,-68(s0)
    236a:	00e79a23          	sh	a4,20(a5)
D:\Car\sure code\slave_school\obj/../Libraries/wch_libraries/Peripheral/ch32v10x_usart.c:133

  RCC_GetClocksFreq(&RCC_ClocksStatus);
    236e:	fc840793          	addi	a5,s0,-56
    2372:	853e                	mv	a0,a5
    2374:	e0eff0ef          	jal	ra,1982 <RCC_GetClocksFreq>
D:\Car\sure code\slave_school\obj/../Libraries/wch_libraries/Peripheral/ch32v10x_usart.c:135
	
  if (usartxbase == USART1_BASE)
    2378:	fdc42703          	lw	a4,-36(s0)
    237c:	400147b7          	lui	a5,0x40014
    2380:	80078793          	addi	a5,a5,-2048 # 40013800 <_eusrstack+0x2000e800>
    2384:	00f71763          	bne	a4,a5,2392 <USART_Init+0x13e>
D:\Car\sure code\slave_school\obj/../Libraries/wch_libraries/Peripheral/ch32v10x_usart.c:137
  {
    apbclock = RCC_ClocksStatus.PCLK2_Frequency;
    2388:	fd442783          	lw	a5,-44(s0)
    238c:	fef42423          	sw	a5,-24(s0)
    2390:	a029                	j	239a <USART_Init+0x146>
D:\Car\sure code\slave_school\obj/../Libraries/wch_libraries/Peripheral/ch32v10x_usart.c:141
  }
  else
  {
    apbclock = RCC_ClocksStatus.PCLK1_Frequency;
    2392:	fd042783          	lw	a5,-48(s0)
    2396:	fef42423          	sw	a5,-24(s0)
D:\Car\sure code\slave_school\obj/../Libraries/wch_libraries/Peripheral/ch32v10x_usart.c:144
  }
  
  if ((USARTx->CTLR1 & CTLR1_OVER8_Set) != 0)
    239a:	fbc42783          	lw	a5,-68(s0)
    239e:	00c7d783          	lhu	a5,12(a5)
    23a2:	07c2                	slli	a5,a5,0x10
    23a4:	83c1                	srli	a5,a5,0x10
    23a6:	07c2                	slli	a5,a5,0x10
    23a8:	87c1                	srai	a5,a5,0x10
    23aa:	0207d263          	bgez	a5,23ce <USART_Init+0x17a>
D:\Car\sure code\slave_school\obj/../Libraries/wch_libraries/Peripheral/ch32v10x_usart.c:146
  {
    integerdivider = ((25 * apbclock) / (2 * (USART_InitStruct->USART_BaudRate)));    
    23ae:	fe842703          	lw	a4,-24(s0)
    23b2:	87ba                	mv	a5,a4
    23b4:	0786                	slli	a5,a5,0x1
    23b6:	97ba                	add	a5,a5,a4
    23b8:	078e                	slli	a5,a5,0x3
    23ba:	973e                	add	a4,a4,a5
    23bc:	fb842783          	lw	a5,-72(s0)
    23c0:	439c                	lw	a5,0(a5)
    23c2:	0786                	slli	a5,a5,0x1
    23c4:	02f757b3          	divu	a5,a4,a5
    23c8:	fef42223          	sw	a5,-28(s0)
    23cc:	a005                	j	23ec <USART_Init+0x198>
D:\Car\sure code\slave_school\obj/../Libraries/wch_libraries/Peripheral/ch32v10x_usart.c:150
  }
  else 
  {
    integerdivider = ((25 * apbclock) / (4 * (USART_InitStruct->USART_BaudRate)));    
    23ce:	fe842703          	lw	a4,-24(s0)
    23d2:	87ba                	mv	a5,a4
    23d4:	0786                	slli	a5,a5,0x1
    23d6:	97ba                	add	a5,a5,a4
    23d8:	078e                	slli	a5,a5,0x3
    23da:	973e                	add	a4,a4,a5
    23dc:	fb842783          	lw	a5,-72(s0)
    23e0:	439c                	lw	a5,0(a5)
    23e2:	078a                	slli	a5,a5,0x2
    23e4:	02f757b3          	divu	a5,a4,a5
    23e8:	fef42223          	sw	a5,-28(s0)
D:\Car\sure code\slave_school\obj/../Libraries/wch_libraries/Peripheral/ch32v10x_usart.c:152
  }
  tmpreg = (integerdivider / 100) << 4;
    23ec:	fe442703          	lw	a4,-28(s0)
    23f0:	06400793          	li	a5,100
    23f4:	02f757b3          	divu	a5,a4,a5
    23f8:	0792                	slli	a5,a5,0x4
    23fa:	fef42623          	sw	a5,-20(s0)
D:\Car\sure code\slave_school\obj/../Libraries/wch_libraries/Peripheral/ch32v10x_usart.c:154

  fractionaldivider = integerdivider - (100 * (tmpreg >> 4));
    23fe:	fec42783          	lw	a5,-20(s0)
    2402:	0047d713          	srli	a4,a5,0x4
    2406:	06400793          	li	a5,100
    240a:	02f707b3          	mul	a5,a4,a5
    240e:	fe442703          	lw	a4,-28(s0)
    2412:	40f707b3          	sub	a5,a4,a5
    2416:	fef42023          	sw	a5,-32(s0)
D:\Car\sure code\slave_school\obj/../Libraries/wch_libraries/Peripheral/ch32v10x_usart.c:156

  if ((USARTx->CTLR1 & CTLR1_OVER8_Set) != 0)
    241a:	fbc42783          	lw	a5,-68(s0)
    241e:	00c7d783          	lhu	a5,12(a5)
    2422:	07c2                	slli	a5,a5,0x10
    2424:	83c1                	srli	a5,a5,0x10
    2426:	07c2                	slli	a5,a5,0x10
    2428:	87c1                	srai	a5,a5,0x10
    242a:	0207d263          	bgez	a5,244e <USART_Init+0x1fa>
D:\Car\sure code\slave_school\obj/../Libraries/wch_libraries/Peripheral/ch32v10x_usart.c:158
  {
    tmpreg |= ((((fractionaldivider * 8) + 50) / 100)) & ((uint8_t)0x07);
    242e:	fe042783          	lw	a5,-32(s0)
    2432:	078e                	slli	a5,a5,0x3
    2434:	03278713          	addi	a4,a5,50
    2438:	06400793          	li	a5,100
    243c:	02f757b3          	divu	a5,a4,a5
    2440:	8b9d                	andi	a5,a5,7
    2442:	fec42703          	lw	a4,-20(s0)
    2446:	8fd9                	or	a5,a5,a4
    2448:	fef42623          	sw	a5,-20(s0)
    244c:	a005                	j	246c <USART_Init+0x218>
D:\Car\sure code\slave_school\obj/../Libraries/wch_libraries/Peripheral/ch32v10x_usart.c:162
  }
  else 
  {
    tmpreg |= ((((fractionaldivider * 16) + 50) / 100)) & ((uint8_t)0x0F);
    244e:	fe042783          	lw	a5,-32(s0)
    2452:	0792                	slli	a5,a5,0x4
    2454:	03278713          	addi	a4,a5,50
    2458:	06400793          	li	a5,100
    245c:	02f757b3          	divu	a5,a4,a5
    2460:	8bbd                	andi	a5,a5,15
    2462:	fec42703          	lw	a4,-20(s0)
    2466:	8fd9                	or	a5,a5,a4
    2468:	fef42623          	sw	a5,-20(s0)
D:\Car\sure code\slave_school\obj/../Libraries/wch_libraries/Peripheral/ch32v10x_usart.c:165
  }
  
  USARTx->BRR = (uint16_t)tmpreg;
    246c:	fec42783          	lw	a5,-20(s0)
    2470:	01079713          	slli	a4,a5,0x10
    2474:	8341                	srli	a4,a4,0x10
    2476:	fbc42783          	lw	a5,-68(s0)
    247a:	00e79423          	sh	a4,8(a5)
D:\Car\sure code\slave_school\obj/../Libraries/wch_libraries/Peripheral/ch32v10x_usart.c:166
}
    247e:	0001                	nop
    2480:	40b6                	lw	ra,76(sp)
    2482:	4426                	lw	s0,72(sp)
    2484:	6161                	addi	sp,sp,80
    2486:	8082                	ret

00002488 <USART_Cmd>:
USART_Cmd():
D:\Car\sure code\slave_school\obj/../Libraries/wch_libraries/Peripheral/ch32v10x_usart.c:229
* Input          : USARTx: where x can be 1, 2, 3 to select the USART peripheral.
*                  NewState: ENABLE or DISABLE.
* Return         : None
*******************************************************************************/
void USART_Cmd(USART_TypeDef* USARTx, FunctionalState NewState)
{
    2488:	1101                	addi	sp,sp,-32
    248a:	ce22                	sw	s0,28(sp)
    248c:	1000                	addi	s0,sp,32
    248e:	fea42623          	sw	a0,-20(s0)
    2492:	feb42423          	sw	a1,-24(s0)
D:\Car\sure code\slave_school\obj/../Libraries/wch_libraries/Peripheral/ch32v10x_usart.c:230
  if (NewState != DISABLE)
    2496:	fe842783          	lw	a5,-24(s0)
    249a:	c395                	beqz	a5,24be <USART_Cmd+0x36>
D:\Car\sure code\slave_school\obj/../Libraries/wch_libraries/Peripheral/ch32v10x_usart.c:232
  {
    USARTx->CTLR1 |= CTLR1_UE_Set;
    249c:	fec42783          	lw	a5,-20(s0)
    24a0:	00c7d783          	lhu	a5,12(a5)
    24a4:	01079713          	slli	a4,a5,0x10
    24a8:	8341                	srli	a4,a4,0x10
    24aa:	6789                	lui	a5,0x2
    24ac:	8fd9                	or	a5,a5,a4
    24ae:	01079713          	slli	a4,a5,0x10
    24b2:	8341                	srli	a4,a4,0x10
    24b4:	fec42783          	lw	a5,-20(s0)
    24b8:	00e79623          	sh	a4,12(a5) # 200c <TIM_SelectInputTrigger+0x2a>
D:\Car\sure code\slave_school\obj/../Libraries/wch_libraries/Peripheral/ch32v10x_usart.c:238
  }
  else
  {
    USARTx->CTLR1 &= CTLR1_UE_Reset;
  }
}
    24bc:	a015                	j	24e0 <USART_Cmd+0x58>
D:\Car\sure code\slave_school\obj/../Libraries/wch_libraries/Peripheral/ch32v10x_usart.c:236
    USARTx->CTLR1 &= CTLR1_UE_Reset;
    24be:	fec42783          	lw	a5,-20(s0)
    24c2:	00c7d783          	lhu	a5,12(a5)
    24c6:	01079713          	slli	a4,a5,0x10
    24ca:	8341                	srli	a4,a4,0x10
    24cc:	77f9                	lui	a5,0xffffe
    24ce:	17fd                	addi	a5,a5,-1
    24d0:	8ff9                	and	a5,a5,a4
    24d2:	01079713          	slli	a4,a5,0x10
    24d6:	8341                	srli	a4,a4,0x10
    24d8:	fec42783          	lw	a5,-20(s0)
    24dc:	00e79623          	sh	a4,12(a5) # ffffe00c <_eusrstack+0xdfff900c>
D:\Car\sure code\slave_school\obj/../Libraries/wch_libraries/Peripheral/ch32v10x_usart.c:238
}
    24e0:	0001                	nop
    24e2:	4472                	lw	s0,28(sp)
    24e4:	6105                	addi	sp,sp,32
    24e6:	8082                	ret

000024e8 <USART_ITConfig>:
USART_ITConfig():
D:\Car\sure code\slave_school\obj/../Libraries/wch_libraries/Peripheral/ch32v10x_usart.c:257
*                    USART_IT_ERR:  Error interrupt.
*                  NewState: ENABLE or DISABLE.
* Return         : None
*******************************************************************************/
void USART_ITConfig(USART_TypeDef* USARTx, uint16_t USART_IT, FunctionalState NewState)
{
    24e8:	7179                	addi	sp,sp,-48
    24ea:	d622                	sw	s0,44(sp)
    24ec:	1800                	addi	s0,sp,48
    24ee:	fca42e23          	sw	a0,-36(s0)
    24f2:	87ae                	mv	a5,a1
    24f4:	fcc42a23          	sw	a2,-44(s0)
    24f8:	fcf41d23          	sh	a5,-38(s0)
D:\Car\sure code\slave_school\obj/../Libraries/wch_libraries/Peripheral/ch32v10x_usart.c:258
  uint32_t usartreg = 0x00, itpos = 0x00, itmask = 0x00;
    24fc:	fe042423          	sw	zero,-24(s0)
    2500:	fe042223          	sw	zero,-28(s0)
    2504:	fe042023          	sw	zero,-32(s0)
D:\Car\sure code\slave_school\obj/../Libraries/wch_libraries/Peripheral/ch32v10x_usart.c:259
  uint32_t usartxbase = 0x00;
    2508:	fe042623          	sw	zero,-20(s0)
D:\Car\sure code\slave_school\obj/../Libraries/wch_libraries/Peripheral/ch32v10x_usart.c:265

  if (USART_IT == USART_IT_CTS)
  {
  }   
  
  usartxbase = (uint32_t)USARTx;
    250c:	fdc42783          	lw	a5,-36(s0)
    2510:	fef42623          	sw	a5,-20(s0)
D:\Car\sure code\slave_school\obj/../Libraries/wch_libraries/Peripheral/ch32v10x_usart.c:266
  usartreg = (((uint8_t)USART_IT) >> 0x05);
    2514:	fda45783          	lhu	a5,-38(s0)
    2518:	0ff7f793          	andi	a5,a5,255
    251c:	8395                	srli	a5,a5,0x5
    251e:	0ff7f793          	andi	a5,a5,255
    2522:	fef42423          	sw	a5,-24(s0)
D:\Car\sure code\slave_school\obj/../Libraries/wch_libraries/Peripheral/ch32v10x_usart.c:267
  itpos = USART_IT & IT_Mask;
    2526:	fda45783          	lhu	a5,-38(s0)
    252a:	8bfd                	andi	a5,a5,31
    252c:	fef42223          	sw	a5,-28(s0)
D:\Car\sure code\slave_school\obj/../Libraries/wch_libraries/Peripheral/ch32v10x_usart.c:268
  itmask = (((uint32_t)0x01) << itpos);
    2530:	fe442783          	lw	a5,-28(s0)
    2534:	4705                	li	a4,1
    2536:	00f717b3          	sll	a5,a4,a5
    253a:	fef42023          	sw	a5,-32(s0)
D:\Car\sure code\slave_school\obj/../Libraries/wch_libraries/Peripheral/ch32v10x_usart.c:270
    
  if (usartreg == 0x01) 
    253e:	fe842703          	lw	a4,-24(s0)
    2542:	4785                	li	a5,1
    2544:	00f71863          	bne	a4,a5,2554 <USART_ITConfig+0x6c>
D:\Car\sure code\slave_school\obj/../Libraries/wch_libraries/Peripheral/ch32v10x_usart.c:272
  {
    usartxbase += 0x0C;
    2548:	fec42783          	lw	a5,-20(s0)
    254c:	07b1                	addi	a5,a5,12
    254e:	fef42623          	sw	a5,-20(s0)
    2552:	a00d                	j	2574 <USART_ITConfig+0x8c>
D:\Car\sure code\slave_school\obj/../Libraries/wch_libraries/Peripheral/ch32v10x_usart.c:274
  }
  else if (usartreg == 0x02) 
    2554:	fe842703          	lw	a4,-24(s0)
    2558:	4789                	li	a5,2
    255a:	00f71863          	bne	a4,a5,256a <USART_ITConfig+0x82>
D:\Car\sure code\slave_school\obj/../Libraries/wch_libraries/Peripheral/ch32v10x_usart.c:276
  {
    usartxbase += 0x10;
    255e:	fec42783          	lw	a5,-20(s0)
    2562:	07c1                	addi	a5,a5,16
    2564:	fef42623          	sw	a5,-20(s0)
    2568:	a031                	j	2574 <USART_ITConfig+0x8c>
D:\Car\sure code\slave_school\obj/../Libraries/wch_libraries/Peripheral/ch32v10x_usart.c:280
  }
  else 
  {
    usartxbase += 0x14; 
    256a:	fec42783          	lw	a5,-20(s0)
    256e:	07d1                	addi	a5,a5,20
    2570:	fef42623          	sw	a5,-20(s0)
D:\Car\sure code\slave_school\obj/../Libraries/wch_libraries/Peripheral/ch32v10x_usart.c:283
  }
	
  if (NewState != DISABLE)
    2574:	fd442783          	lw	a5,-44(s0)
    2578:	cb99                	beqz	a5,258e <USART_ITConfig+0xa6>
D:\Car\sure code\slave_school\obj/../Libraries/wch_libraries/Peripheral/ch32v10x_usart.c:285
  {
    *(__IO uint32_t*)usartxbase  |= itmask;
    257a:	fec42783          	lw	a5,-20(s0)
    257e:	4394                	lw	a3,0(a5)
    2580:	fec42783          	lw	a5,-20(s0)
    2584:	fe042703          	lw	a4,-32(s0)
    2588:	8f55                	or	a4,a4,a3
    258a:	c398                	sw	a4,0(a5)
D:\Car\sure code\slave_school\obj/../Libraries/wch_libraries/Peripheral/ch32v10x_usart.c:291
  }
  else
  {
    *(__IO uint32_t*)usartxbase &= ~itmask;
  }
}
    258c:	a821                	j	25a4 <USART_ITConfig+0xbc>
D:\Car\sure code\slave_school\obj/../Libraries/wch_libraries/Peripheral/ch32v10x_usart.c:289
    *(__IO uint32_t*)usartxbase &= ~itmask;
    258e:	fec42783          	lw	a5,-20(s0)
    2592:	4394                	lw	a3,0(a5)
    2594:	fe042783          	lw	a5,-32(s0)
    2598:	fff7c713          	not	a4,a5
    259c:	fec42783          	lw	a5,-20(s0)
    25a0:	8f75                	and	a4,a4,a3
    25a2:	c398                	sw	a4,0(a5)
D:\Car\sure code\slave_school\obj/../Libraries/wch_libraries/Peripheral/ch32v10x_usart.c:291
}
    25a4:	0001                	nop
    25a6:	5432                	lw	s0,44(sp)
    25a8:	6145                	addi	sp,sp,48
    25aa:	8082                	ret

000025ac <USART_SendData>:
USART_SendData():
D:\Car\sure code\slave_school\obj/../Libraries/wch_libraries/Peripheral/ch32v10x_usart.c:404
* Input          : USARTx: where x can be 1, 2, 3 to select the USART peripheral.
*                  Data: the data to transmit..
* Return         : None
*******************************************************************************/
void USART_SendData(USART_TypeDef* USARTx, uint16_t Data)
{
    25ac:	1101                	addi	sp,sp,-32
    25ae:	ce22                	sw	s0,28(sp)
    25b0:	1000                	addi	s0,sp,32
    25b2:	fea42623          	sw	a0,-20(s0)
    25b6:	87ae                	mv	a5,a1
    25b8:	fef41523          	sh	a5,-22(s0)
D:\Car\sure code\slave_school\obj/../Libraries/wch_libraries/Peripheral/ch32v10x_usart.c:405
  USARTx->DATAR = (Data & (uint16_t)0x01FF);
    25bc:	fea45783          	lhu	a5,-22(s0)
    25c0:	1ff7f793          	andi	a5,a5,511
    25c4:	01079713          	slli	a4,a5,0x10
    25c8:	8341                	srli	a4,a4,0x10
    25ca:	fec42783          	lw	a5,-20(s0)
    25ce:	00e79223          	sh	a4,4(a5)
D:\Car\sure code\slave_school\obj/../Libraries/wch_libraries/Peripheral/ch32v10x_usart.c:406
}
    25d2:	0001                	nop
    25d4:	4472                	lw	s0,28(sp)
    25d6:	6105                	addi	sp,sp,32
    25d8:	8082                	ret

000025da <USART_GetFlagStatus>:
USART_GetFlagStatus():
D:\Car\sure code\slave_school\obj/../Libraries/wch_libraries/Peripheral/ch32v10x_usart.c:603
*                    USART_FLAG_FE: Framing Error flag.
*                    USART_FLAG_PE: Parity Error flag.
* Return         : bitstatus: SET or RESET.
*******************************************************************************/
FlagStatus USART_GetFlagStatus(USART_TypeDef* USARTx, uint16_t USART_FLAG)
{
    25da:	7179                	addi	sp,sp,-48
    25dc:	d622                	sw	s0,44(sp)
    25de:	1800                	addi	s0,sp,48
    25e0:	fca42e23          	sw	a0,-36(s0)
    25e4:	87ae                	mv	a5,a1
    25e6:	fcf41d23          	sh	a5,-38(s0)
D:\Car\sure code\slave_school\obj/../Libraries/wch_libraries/Peripheral/ch32v10x_usart.c:604
  FlagStatus bitstatus = RESET;
    25ea:	fe042623          	sw	zero,-20(s0)
D:\Car\sure code\slave_school\obj/../Libraries/wch_libraries/Peripheral/ch32v10x_usart.c:610

  if (USART_FLAG == USART_FLAG_CTS)
  {
  }  
  
  if ((USARTx->STATR & USART_FLAG) != (uint16_t)RESET)
    25ee:	fdc42783          	lw	a5,-36(s0)
    25f2:	0007d783          	lhu	a5,0(a5)
    25f6:	01079713          	slli	a4,a5,0x10
    25fa:	8341                	srli	a4,a4,0x10
    25fc:	fda45783          	lhu	a5,-38(s0)
    2600:	8ff9                	and	a5,a5,a4
    2602:	07c2                	slli	a5,a5,0x10
    2604:	83c1                	srli	a5,a5,0x10
    2606:	c789                	beqz	a5,2610 <USART_GetFlagStatus+0x36>
D:\Car\sure code\slave_school\obj/../Libraries/wch_libraries/Peripheral/ch32v10x_usart.c:612
  {
    bitstatus = SET;
    2608:	4785                	li	a5,1
    260a:	fef42623          	sw	a5,-20(s0)
    260e:	a019                	j	2614 <USART_GetFlagStatus+0x3a>
D:\Car\sure code\slave_school\obj/../Libraries/wch_libraries/Peripheral/ch32v10x_usart.c:616
  }
  else
  {
    bitstatus = RESET;
    2610:	fe042623          	sw	zero,-20(s0)
D:\Car\sure code\slave_school\obj/../Libraries/wch_libraries/Peripheral/ch32v10x_usart.c:618
  }
  return bitstatus;
    2614:	fec42783          	lw	a5,-20(s0)
D:\Car\sure code\slave_school\obj/../Libraries/wch_libraries/Peripheral/ch32v10x_usart.c:619
}
    2618:	853e                	mv	a0,a5
    261a:	5432                	lw	s0,44(sp)
    261c:	6145                	addi	sp,sp,48
    261e:	8082                	ret

00002620 <USART_GetITStatus>:
USART_GetITStatus():
D:\Car\sure code\slave_school\obj/../Libraries/wch_libraries/Peripheral/ch32v10x_usart.c:660
*                    USART_IT_FE: Framing Error interrupt.
*                    USART_IT_PE: Parity Error interrupt.
* Return         : bitstatus: SET or RESET.
*******************************************************************************/
ITStatus USART_GetITStatus(USART_TypeDef* USARTx, uint16_t USART_IT)
{
    2620:	7179                	addi	sp,sp,-48
    2622:	d622                	sw	s0,44(sp)
    2624:	1800                	addi	s0,sp,48
    2626:	fca42e23          	sw	a0,-36(s0)
    262a:	87ae                	mv	a5,a1
    262c:	fcf41d23          	sh	a5,-38(s0)
D:\Car\sure code\slave_school\obj/../Libraries/wch_libraries/Peripheral/ch32v10x_usart.c:661
  uint32_t bitpos = 0x00, itmask = 0x00, usartreg = 0x00;
    2630:	fe042223          	sw	zero,-28(s0)
    2634:	fe042623          	sw	zero,-20(s0)
    2638:	fe042023          	sw	zero,-32(s0)
D:\Car\sure code\slave_school\obj/../Libraries/wch_libraries/Peripheral/ch32v10x_usart.c:662
  ITStatus bitstatus = RESET;
    263c:	fe042423          	sw	zero,-24(s0)
D:\Car\sure code\slave_school\obj/../Libraries/wch_libraries/Peripheral/ch32v10x_usart.c:668

  if (USART_IT == USART_IT_CTS)
  {
  }   
  
  usartreg = (((uint8_t)USART_IT) >> 0x05);
    2640:	fda45783          	lhu	a5,-38(s0)
    2644:	0ff7f793          	andi	a5,a5,255
    2648:	8395                	srli	a5,a5,0x5
    264a:	0ff7f793          	andi	a5,a5,255
    264e:	fef42023          	sw	a5,-32(s0)
D:\Car\sure code\slave_school\obj/../Libraries/wch_libraries/Peripheral/ch32v10x_usart.c:669
  itmask = USART_IT & IT_Mask;
    2652:	fda45783          	lhu	a5,-38(s0)
    2656:	8bfd                	andi	a5,a5,31
    2658:	fef42623          	sw	a5,-20(s0)
D:\Car\sure code\slave_school\obj/../Libraries/wch_libraries/Peripheral/ch32v10x_usart.c:670
  itmask = (uint32_t)0x01 << itmask;
    265c:	fec42783          	lw	a5,-20(s0)
    2660:	4705                	li	a4,1
    2662:	00f717b3          	sll	a5,a4,a5
    2666:	fef42623          	sw	a5,-20(s0)
D:\Car\sure code\slave_school\obj/../Libraries/wch_libraries/Peripheral/ch32v10x_usart.c:672
  
  if (usartreg == 0x01) 
    266a:	fe042703          	lw	a4,-32(s0)
    266e:	4785                	li	a5,1
    2670:	00f71f63          	bne	a4,a5,268e <USART_GetITStatus+0x6e>
D:\Car\sure code\slave_school\obj/../Libraries/wch_libraries/Peripheral/ch32v10x_usart.c:674
  {
    itmask &= USARTx->CTLR1;
    2674:	fdc42783          	lw	a5,-36(s0)
    2678:	00c7d783          	lhu	a5,12(a5)
    267c:	07c2                	slli	a5,a5,0x10
    267e:	83c1                	srli	a5,a5,0x10
    2680:	873e                	mv	a4,a5
    2682:	fec42783          	lw	a5,-20(s0)
    2686:	8ff9                	and	a5,a5,a4
    2688:	fef42623          	sw	a5,-20(s0)
    268c:	a83d                	j	26ca <USART_GetITStatus+0xaa>
D:\Car\sure code\slave_school\obj/../Libraries/wch_libraries/Peripheral/ch32v10x_usart.c:676
  }
  else if (usartreg == 0x02) 
    268e:	fe042703          	lw	a4,-32(s0)
    2692:	4789                	li	a5,2
    2694:	00f71f63          	bne	a4,a5,26b2 <USART_GetITStatus+0x92>
D:\Car\sure code\slave_school\obj/../Libraries/wch_libraries/Peripheral/ch32v10x_usart.c:678
  {
    itmask &= USARTx->CTLR2;
    2698:	fdc42783          	lw	a5,-36(s0)
    269c:	0107d783          	lhu	a5,16(a5)
    26a0:	07c2                	slli	a5,a5,0x10
    26a2:	83c1                	srli	a5,a5,0x10
    26a4:	873e                	mv	a4,a5
    26a6:	fec42783          	lw	a5,-20(s0)
    26aa:	8ff9                	and	a5,a5,a4
    26ac:	fef42623          	sw	a5,-20(s0)
    26b0:	a829                	j	26ca <USART_GetITStatus+0xaa>
D:\Car\sure code\slave_school\obj/../Libraries/wch_libraries/Peripheral/ch32v10x_usart.c:682
  }
  else 
  {
    itmask &= USARTx->CTLR3;
    26b2:	fdc42783          	lw	a5,-36(s0)
    26b6:	0147d783          	lhu	a5,20(a5)
    26ba:	07c2                	slli	a5,a5,0x10
    26bc:	83c1                	srli	a5,a5,0x10
    26be:	873e                	mv	a4,a5
    26c0:	fec42783          	lw	a5,-20(s0)
    26c4:	8ff9                	and	a5,a5,a4
    26c6:	fef42623          	sw	a5,-20(s0)
D:\Car\sure code\slave_school\obj/../Libraries/wch_libraries/Peripheral/ch32v10x_usart.c:685
  }
  
  bitpos = USART_IT >> 0x08;
    26ca:	fda45783          	lhu	a5,-38(s0)
    26ce:	83a1                	srli	a5,a5,0x8
    26d0:	07c2                	slli	a5,a5,0x10
    26d2:	83c1                	srli	a5,a5,0x10
    26d4:	fef42223          	sw	a5,-28(s0)
D:\Car\sure code\slave_school\obj/../Libraries/wch_libraries/Peripheral/ch32v10x_usart.c:686
  bitpos = (uint32_t)0x01 << bitpos;
    26d8:	fe442783          	lw	a5,-28(s0)
    26dc:	4705                	li	a4,1
    26de:	00f717b3          	sll	a5,a4,a5
    26e2:	fef42223          	sw	a5,-28(s0)
D:\Car\sure code\slave_school\obj/../Libraries/wch_libraries/Peripheral/ch32v10x_usart.c:687
  bitpos &= USARTx->STATR;
    26e6:	fdc42783          	lw	a5,-36(s0)
    26ea:	0007d783          	lhu	a5,0(a5)
    26ee:	07c2                	slli	a5,a5,0x10
    26f0:	83c1                	srli	a5,a5,0x10
    26f2:	873e                	mv	a4,a5
    26f4:	fe442783          	lw	a5,-28(s0)
    26f8:	8ff9                	and	a5,a5,a4
    26fa:	fef42223          	sw	a5,-28(s0)
D:\Car\sure code\slave_school\obj/../Libraries/wch_libraries/Peripheral/ch32v10x_usart.c:689
	
  if ((itmask != (uint16_t)RESET)&&(bitpos != (uint16_t)RESET))
    26fe:	fec42783          	lw	a5,-20(s0)
    2702:	cb81                	beqz	a5,2712 <USART_GetITStatus+0xf2>
D:\Car\sure code\slave_school\obj/../Libraries/wch_libraries/Peripheral/ch32v10x_usart.c:689 (discriminator 1)
    2704:	fe442783          	lw	a5,-28(s0)
    2708:	c789                	beqz	a5,2712 <USART_GetITStatus+0xf2>
D:\Car\sure code\slave_school\obj/../Libraries/wch_libraries/Peripheral/ch32v10x_usart.c:691
  {
    bitstatus = SET;
    270a:	4785                	li	a5,1
    270c:	fef42423          	sw	a5,-24(s0)
    2710:	a019                	j	2716 <USART_GetITStatus+0xf6>
D:\Car\sure code\slave_school\obj/../Libraries/wch_libraries/Peripheral/ch32v10x_usart.c:695
  }
  else
  {
    bitstatus = RESET;
    2712:	fe042423          	sw	zero,-24(s0)
D:\Car\sure code\slave_school\obj/../Libraries/wch_libraries/Peripheral/ch32v10x_usart.c:698
  }
  
  return bitstatus;  
    2716:	fe842783          	lw	a5,-24(s0)
D:\Car\sure code\slave_school\obj/../Libraries/wch_libraries/Peripheral/ch32v10x_usart.c:699
}
    271a:	853e                	mv	a0,a5
    271c:	5432                	lw	s0,44(sp)
    271e:	6145                	addi	sp,sp,48
    2720:	8082                	ret

00002722 <USART_ClearITPendingBit>:
USART_ClearITPendingBit():
D:\Car\sure code\slave_school\obj/../Libraries/wch_libraries/Peripheral/ch32v10x_usart.c:713
*                    USART_IT_TC:   Transmission complete interrupt.
*                    USART_IT_RXNE: Receive Data register not empty interrupt.
* Return         : None
*******************************************************************************/
void USART_ClearITPendingBit(USART_TypeDef* USARTx, uint16_t USART_IT)
{
    2722:	7179                	addi	sp,sp,-48
    2724:	d622                	sw	s0,44(sp)
    2726:	1800                	addi	s0,sp,48
    2728:	fca42e23          	sw	a0,-36(s0)
    272c:	87ae                	mv	a5,a1
    272e:	fcf41d23          	sh	a5,-38(s0)
D:\Car\sure code\slave_school\obj/../Libraries/wch_libraries/Peripheral/ch32v10x_usart.c:714
  uint16_t bitpos = 0x00, itmask = 0x00;
    2732:	fe041723          	sh	zero,-18(s0)
    2736:	fe041623          	sh	zero,-20(s0)
D:\Car\sure code\slave_school\obj/../Libraries/wch_libraries/Peripheral/ch32v10x_usart.c:720

  if (USART_IT == USART_IT_CTS)
  {
  }   
  
  bitpos = USART_IT >> 0x08;
    273a:	fda45783          	lhu	a5,-38(s0)
    273e:	83a1                	srli	a5,a5,0x8
    2740:	fef41723          	sh	a5,-18(s0)
D:\Car\sure code\slave_school\obj/../Libraries/wch_libraries/Peripheral/ch32v10x_usart.c:721
  itmask = ((uint16_t)0x01 << (uint16_t)bitpos);
    2744:	fee45783          	lhu	a5,-18(s0)
    2748:	4705                	li	a4,1
    274a:	00f717b3          	sll	a5,a4,a5
    274e:	fef41623          	sh	a5,-20(s0)
D:\Car\sure code\slave_school\obj/../Libraries/wch_libraries/Peripheral/ch32v10x_usart.c:722
  USARTx->STATR = (uint16_t)~itmask;
    2752:	fec45783          	lhu	a5,-20(s0)
    2756:	fff7c793          	not	a5,a5
    275a:	01079713          	slli	a4,a5,0x10
    275e:	8341                	srli	a4,a4,0x10
    2760:	fdc42783          	lw	a5,-36(s0)
    2764:	00e79023          	sh	a4,0(a5)
D:\Car\sure code\slave_school\obj/../Libraries/wch_libraries/Peripheral/ch32v10x_usart.c:723
}
    2768:	0001                	nop
    276a:	5432                	lw	s0,44(sp)
    276c:	6145                	addi	sp,sp,48
    276e:	8082                	ret

00002770 <mt9v03x_uart_callback>:
mt9v03x_uart_callback():
D:\Car\sure code\slave_school\obj/../Libraries/seekfree_peripheral/SEEKFREE_MT9V03X.c:90
//  @since      v1.0
//  Sample usage:
//  @note       
//-------------------------------------------------------------------------------------------------------------------
void mt9v03x_uart_callback(void)
{
    2770:	1141                	addi	sp,sp,-16
    2772:	c622                	sw	s0,12(sp)
    2774:	0800                	addi	s0,sp,16
D:\Car\sure code\slave_school\obj/../Libraries/seekfree_peripheral/SEEKFREE_MT9V03X.c:91
    receive[receive_num] = ((USART_TypeDef*)UARTN[MT9V03X_COF_UART])->DATAR & 0x01FF;;
    2776:	6795                	lui	a5,0x5
    2778:	6c078793          	addi	a5,a5,1728 # 56c0 <UARTN>
    277c:	43dc                	lw	a5,4(a5)
    277e:	0047d783          	lhu	a5,4(a5)
    2782:	01079713          	slli	a4,a5,0x10
    2786:	8341                	srli	a4,a4,0x10
    2788:	82b1c783          	lbu	a5,-2005(gp) # 200000e3 <receive_num>
    278c:	86be                	mv	a3,a5
    278e:	0ff77713          	andi	a4,a4,255
    2792:	82818793          	addi	a5,gp,-2008 # 200000e0 <receive>
    2796:	97b6                	add	a5,a5,a3
    2798:	00e78023          	sb	a4,0(a5)
D:\Car\sure code\slave_school\obj/../Libraries/seekfree_peripheral/SEEKFREE_MT9V03X.c:92
    receive_num++;
    279c:	82b1c783          	lbu	a5,-2005(gp) # 200000e3 <receive_num>
    27a0:	0785                	addi	a5,a5,1
    27a2:	0ff7f713          	andi	a4,a5,255
    27a6:	82e185a3          	sb	a4,-2005(gp) # 200000e3 <receive_num>
D:\Car\sure code\slave_school\obj/../Libraries/seekfree_peripheral/SEEKFREE_MT9V03X.c:94

    if(1==receive_num && 0XA5!=receive[0])  receive_num = 0;
    27aa:	82b1c703          	lbu	a4,-2005(gp) # 200000e3 <receive_num>
    27ae:	4785                	li	a5,1
    27b0:	00f71a63          	bne	a4,a5,27c4 <mt9v03x_uart_callback+0x54>
D:\Car\sure code\slave_school\obj/../Libraries/seekfree_peripheral/SEEKFREE_MT9V03X.c:94 (discriminator 1)
    27b4:	8281c703          	lbu	a4,-2008(gp) # 200000e0 <receive>
    27b8:	0a500793          	li	a5,165
    27bc:	00f70463          	beq	a4,a5,27c4 <mt9v03x_uart_callback+0x54>
D:\Car\sure code\slave_school\obj/../Libraries/seekfree_peripheral/SEEKFREE_MT9V03X.c:94 (discriminator 2)
    27c0:	820185a3          	sb	zero,-2005(gp) # 200000e3 <receive_num>
D:\Car\sure code\slave_school\obj/../Libraries/seekfree_peripheral/SEEKFREE_MT9V03X.c:95
    if(3 == receive_num)
    27c4:	82b1c703          	lbu	a4,-2005(gp) # 200000e3 <receive_num>
    27c8:	478d                	li	a5,3
    27ca:	00f71763          	bne	a4,a5,27d8 <mt9v03x_uart_callback+0x68>
D:\Car\sure code\slave_school\obj/../Libraries/seekfree_peripheral/SEEKFREE_MT9V03X.c:97
    {
        receive_num = 0;
    27ce:	820185a3          	sb	zero,-2005(gp) # 200000e3 <receive_num>
D:\Car\sure code\slave_school\obj/../Libraries/seekfree_peripheral/SEEKFREE_MT9V03X.c:98
        uart_receive_flag = 1;
    27d2:	4705                	li	a4,1
    27d4:	82e18623          	sb	a4,-2004(gp) # 200000e4 <uart_receive_flag>
D:\Car\sure code\slave_school\obj/../Libraries/seekfree_peripheral/SEEKFREE_MT9V03X.c:101
    }
    
}
    27d8:	0001                	nop
    27da:	4432                	lw	s0,12(sp)
    27dc:	0141                	addi	sp,sp,16
    27de:	8082                	ret

000027e0 <set_config>:
set_config():
D:\Car\sure code\slave_school\obj/../Libraries/seekfree_peripheral/SEEKFREE_MT9V03X.c:114
//  @return     void
//  @since      v1.0
//  Sample usage:           调用该函数前请先初始化串口
//-------------------------------------------------------------------------------------------------------------------
void set_config(UARTN_enum uartn, int16 buff[CONFIG_FINISH-1][2])
{
    27e0:	7179                	addi	sp,sp,-48
    27e2:	d606                	sw	ra,44(sp)
    27e4:	d422                	sw	s0,40(sp)
    27e6:	d24a                	sw	s2,36(sp)
    27e8:	d04e                	sw	s3,32(sp)
    27ea:	1800                	addi	s0,sp,48
    27ec:	fca42e23          	sw	a0,-36(s0)
    27f0:	fcb42c23          	sw	a1,-40(s0)
D:\Car\sure code\slave_school\obj/../Libraries/seekfree_peripheral/SEEKFREE_MT9V03X.c:118
    uint16 temp, i;
    uint8  send_buffer[4];

    uart_receive_flag = 0;
    27f4:	82018623          	sb	zero,-2004(gp) # 200000e4 <uart_receive_flag>
D:\Car\sure code\slave_school\obj/../Libraries/seekfree_peripheral/SEEKFREE_MT9V03X.c:122
    
    //设置参数  具体请参看问题锦集手册
    //开始配置摄像头并重新初始化
    for(i=0; i<CONFIG_FINISH; i++)
    27f8:	fe041723          	sh	zero,-18(s0)
    27fc:	a069                	j	2886 <set_config+0xa6>
D:\Car\sure code\slave_school\obj/../Libraries/seekfree_peripheral/SEEKFREE_MT9V03X.c:124 (discriminator 3)
    {
        send_buffer[0] = 0xA5;
    27fe:	fa500793          	li	a5,-91
    2802:	fef40423          	sb	a5,-24(s0)
D:\Car\sure code\slave_school\obj/../Libraries/seekfree_peripheral/SEEKFREE_MT9V03X.c:125 (discriminator 3)
        send_buffer[1] = buff[i][0];
    2806:	fee45783          	lhu	a5,-18(s0)
    280a:	078a                	slli	a5,a5,0x2
    280c:	fd842703          	lw	a4,-40(s0)
    2810:	97ba                	add	a5,a5,a4
    2812:	00079783          	lh	a5,0(a5)
    2816:	0ff7f793          	andi	a5,a5,255
    281a:	fef404a3          	sb	a5,-23(s0)
D:\Car\sure code\slave_school\obj/../Libraries/seekfree_peripheral/SEEKFREE_MT9V03X.c:126 (discriminator 3)
        temp = buff[i][1];
    281e:	fee45783          	lhu	a5,-18(s0)
    2822:	078a                	slli	a5,a5,0x2
    2824:	fd842703          	lw	a4,-40(s0)
    2828:	97ba                	add	a5,a5,a4
    282a:	00279783          	lh	a5,2(a5)
    282e:	fef41623          	sh	a5,-20(s0)
D:\Car\sure code\slave_school\obj/../Libraries/seekfree_peripheral/SEEKFREE_MT9V03X.c:127 (discriminator 3)
        send_buffer[2] = temp>>8;
    2832:	fec45783          	lhu	a5,-20(s0)
    2836:	83a1                	srli	a5,a5,0x8
    2838:	07c2                	slli	a5,a5,0x10
    283a:	83c1                	srli	a5,a5,0x10
    283c:	0ff7f793          	andi	a5,a5,255
    2840:	fef40523          	sb	a5,-22(s0)
D:\Car\sure code\slave_school\obj/../Libraries/seekfree_peripheral/SEEKFREE_MT9V03X.c:128 (discriminator 3)
        send_buffer[3] = (uint8)temp;
    2844:	fec45783          	lhu	a5,-20(s0)
    2848:	0ff7f793          	andi	a5,a5,255
    284c:	fef405a3          	sb	a5,-21(s0)
D:\Car\sure code\slave_school\obj/../Libraries/seekfree_peripheral/SEEKFREE_MT9V03X.c:130 (discriminator 3)
        
        uart_putbuff(uartn,send_buffer,4);
    2850:	fe840793          	addi	a5,s0,-24
    2854:	4611                	li	a2,4
    2856:	85be                	mv	a1,a5
    2858:	fdc42503          	lw	a0,-36(s0)
    285c:	23a010ef          	jal	ra,3a96 <uart_putbuff>
D:\Car\sure code\slave_school\obj/../Libraries/seekfree_peripheral/SEEKFREE_MT9V03X.c:131 (discriminator 3)
        systick_delay_ms(2);
    2860:	8381a703          	lw	a4,-1992(gp) # 200000f0 <sys_clk>
    2864:	6789                	lui	a5,0x2
    2866:	f4078793          	addi	a5,a5,-192 # 1f40 <TIM_ETRClockMode1Config+0x64>
    286a:	02f757b3          	divu	a5,a4,a5
    286e:	0786                	slli	a5,a5,0x1
    2870:	893e                	mv	s2,a5
    2872:	4981                	li	s3,0
    2874:	854a                	mv	a0,s2
    2876:	85ce                	mv	a1,s3
    2878:	745000ef          	jal	ra,37bc <systick_delay>
D:\Car\sure code\slave_school\obj/../Libraries/seekfree_peripheral/SEEKFREE_MT9V03X.c:122 (discriminator 3)
    for(i=0; i<CONFIG_FINISH; i++)
    287c:	fee45783          	lhu	a5,-18(s0)
    2880:	0785                	addi	a5,a5,1
    2882:	fef41723          	sh	a5,-18(s0)
D:\Car\sure code\slave_school\obj/../Libraries/seekfree_peripheral/SEEKFREE_MT9V03X.c:122 (discriminator 1)
    2886:	fee45703          	lhu	a4,-18(s0)
    288a:	47a1                	li	a5,8
    288c:	f6e7f9e3          	bgeu	a5,a4,27fe <set_config+0x1e>
D:\Car\sure code\slave_school\obj/../Libraries/seekfree_peripheral/SEEKFREE_MT9V03X.c:134
    }
    //等待摄像头初始化成功
    while(!uart_receive_flag);
    2890:	0001                	nop
D:\Car\sure code\slave_school\obj/../Libraries/seekfree_peripheral/SEEKFREE_MT9V03X.c:134 (discriminator 1)
    2892:	82c1c783          	lbu	a5,-2004(gp) # 200000e4 <uart_receive_flag>
    2896:	0ff7f793          	andi	a5,a5,255
    289a:	dfe5                	beqz	a5,2892 <set_config+0xb2>
D:\Car\sure code\slave_school\obj/../Libraries/seekfree_peripheral/SEEKFREE_MT9V03X.c:135
    uart_receive_flag = 0;
    289c:	82018623          	sb	zero,-2004(gp) # 200000e4 <uart_receive_flag>
D:\Car\sure code\slave_school\obj/../Libraries/seekfree_peripheral/SEEKFREE_MT9V03X.c:136
    while((0xff != receive[1]) || (0xff != receive[2]));
    28a0:	0001                	nop
D:\Car\sure code\slave_school\obj/../Libraries/seekfree_peripheral/SEEKFREE_MT9V03X.c:136 (discriminator 3)
    28a2:	82818793          	addi	a5,gp,-2008 # 200000e0 <receive>
    28a6:	0017c703          	lbu	a4,1(a5)
    28aa:	0ff00793          	li	a5,255
    28ae:	fef71ae3          	bne	a4,a5,28a2 <set_config+0xc2>
D:\Car\sure code\slave_school\obj/../Libraries/seekfree_peripheral/SEEKFREE_MT9V03X.c:136 (discriminator 2)
    28b2:	82818793          	addi	a5,gp,-2008 # 200000e0 <receive>
    28b6:	0027c703          	lbu	a4,2(a5)
    28ba:	0ff00793          	li	a5,255
    28be:	fef712e3          	bne	a4,a5,28a2 <set_config+0xc2>
D:\Car\sure code\slave_school\obj/../Libraries/seekfree_peripheral/SEEKFREE_MT9V03X.c:139
    //以上部分对摄像头配置的数据全部都会保存在摄像头上51单片机的eeprom中
    //利用set_exposure_time函数单独配置的曝光数据不存储在eeprom中
}
    28c2:	0001                	nop
    28c4:	50b2                	lw	ra,44(sp)
    28c6:	5422                	lw	s0,40(sp)
    28c8:	5912                	lw	s2,36(sp)
    28ca:	5982                	lw	s3,32(sp)
    28cc:	6145                	addi	sp,sp,48
    28ce:	8082                	ret

000028d0 <get_config>:
get_config():
D:\Car\sure code\slave_school\obj/../Libraries/seekfree_peripheral/SEEKFREE_MT9V03X.c:151
//  @return     void
//  @since      v1.0
//  Sample usage:           调用该函数前请先初始化串口
//-------------------------------------------------------------------------------------------------------------------
void get_config(UARTN_enum uartn, int16 buff[CONFIG_FINISH-1][2])
{
    28d0:	7179                	addi	sp,sp,-48
    28d2:	d606                	sw	ra,44(sp)
    28d4:	d422                	sw	s0,40(sp)
    28d6:	1800                	addi	s0,sp,48
    28d8:	fca42e23          	sw	a0,-36(s0)
    28dc:	fcb42c23          	sw	a1,-40(s0)
D:\Car\sure code\slave_school\obj/../Libraries/seekfree_peripheral/SEEKFREE_MT9V03X.c:155
    uint16 temp, i;
    uint8  send_buffer[4];
    
    for(i=0; i<CONFIG_FINISH-1; i++)
    28e0:	fe041723          	sh	zero,-18(s0)
    28e4:	a045                	j	2984 <get_config+0xb4>
D:\Car\sure code\slave_school\obj/../Libraries/seekfree_peripheral/SEEKFREE_MT9V03X.c:157
    {
        send_buffer[0] = 0xA5;
    28e6:	fa500793          	li	a5,-91
    28ea:	fef40423          	sb	a5,-24(s0)
D:\Car\sure code\slave_school\obj/../Libraries/seekfree_peripheral/SEEKFREE_MT9V03X.c:158
        send_buffer[1] = GET_STATUS;
    28ee:	57c5                	li	a5,-15
    28f0:	fef404a3          	sb	a5,-23(s0)
D:\Car\sure code\slave_school\obj/../Libraries/seekfree_peripheral/SEEKFREE_MT9V03X.c:159
        temp = buff[i][0];
    28f4:	fee45783          	lhu	a5,-18(s0)
    28f8:	078a                	slli	a5,a5,0x2
    28fa:	fd842703          	lw	a4,-40(s0)
    28fe:	97ba                	add	a5,a5,a4
    2900:	00079783          	lh	a5,0(a5)
    2904:	fef41623          	sh	a5,-20(s0)
D:\Car\sure code\slave_school\obj/../Libraries/seekfree_peripheral/SEEKFREE_MT9V03X.c:160
        send_buffer[2] = temp>>8;
    2908:	fec45783          	lhu	a5,-20(s0)
    290c:	83a1                	srli	a5,a5,0x8
    290e:	07c2                	slli	a5,a5,0x10
    2910:	83c1                	srli	a5,a5,0x10
    2912:	0ff7f793          	andi	a5,a5,255
    2916:	fef40523          	sb	a5,-22(s0)
D:\Car\sure code\slave_school\obj/../Libraries/seekfree_peripheral/SEEKFREE_MT9V03X.c:161
        send_buffer[3] = (uint8)temp;
    291a:	fec45783          	lhu	a5,-20(s0)
    291e:	0ff7f793          	andi	a5,a5,255
    2922:	fef405a3          	sb	a5,-21(s0)
D:\Car\sure code\slave_school\obj/../Libraries/seekfree_peripheral/SEEKFREE_MT9V03X.c:163
        
        uart_putbuff(uartn,send_buffer,4);
    2926:	fe840793          	addi	a5,s0,-24
    292a:	4611                	li	a2,4
    292c:	85be                	mv	a1,a5
    292e:	fdc42503          	lw	a0,-36(s0)
    2932:	164010ef          	jal	ra,3a96 <uart_putbuff>
D:\Car\sure code\slave_school\obj/../Libraries/seekfree_peripheral/SEEKFREE_MT9V03X.c:166
        
        //等待接受回传数据
        while(!uart_receive_flag);
    2936:	0001                	nop
D:\Car\sure code\slave_school\obj/../Libraries/seekfree_peripheral/SEEKFREE_MT9V03X.c:166 (discriminator 1)
    2938:	82c1c783          	lbu	a5,-2004(gp) # 200000e4 <uart_receive_flag>
    293c:	0ff7f793          	andi	a5,a5,255
    2940:	dfe5                	beqz	a5,2938 <get_config+0x68>
D:\Car\sure code\slave_school\obj/../Libraries/seekfree_peripheral/SEEKFREE_MT9V03X.c:167 (discriminator 2)
        uart_receive_flag = 0;
    2942:	82018623          	sb	zero,-2004(gp) # 200000e4 <uart_receive_flag>
D:\Car\sure code\slave_school\obj/../Libraries/seekfree_peripheral/SEEKFREE_MT9V03X.c:169 (discriminator 2)
        
        buff[i][1] = receive[1]<<8 | receive[2];
    2946:	82818793          	addi	a5,gp,-2008 # 200000e0 <receive>
    294a:	0017c783          	lbu	a5,1(a5)
    294e:	07a2                	slli	a5,a5,0x8
    2950:	01079693          	slli	a3,a5,0x10
    2954:	86c1                	srai	a3,a3,0x10
    2956:	82818793          	addi	a5,gp,-2008 # 200000e0 <receive>
    295a:	0027c783          	lbu	a5,2(a5)
    295e:	01079713          	slli	a4,a5,0x10
    2962:	8741                	srai	a4,a4,0x10
    2964:	fee45783          	lhu	a5,-18(s0)
    2968:	078a                	slli	a5,a5,0x2
    296a:	fd842603          	lw	a2,-40(s0)
    296e:	97b2                	add	a5,a5,a2
    2970:	8f55                	or	a4,a4,a3
    2972:	0742                	slli	a4,a4,0x10
    2974:	8741                	srai	a4,a4,0x10
    2976:	00e79123          	sh	a4,2(a5)
D:\Car\sure code\slave_school\obj/../Libraries/seekfree_peripheral/SEEKFREE_MT9V03X.c:155 (discriminator 2)
    for(i=0; i<CONFIG_FINISH-1; i++)
    297a:	fee45783          	lhu	a5,-18(s0)
    297e:	0785                	addi	a5,a5,1
    2980:	fef41723          	sh	a5,-18(s0)
D:\Car\sure code\slave_school\obj/../Libraries/seekfree_peripheral/SEEKFREE_MT9V03X.c:155 (discriminator 1)
    2984:	fee45703          	lhu	a4,-18(s0)
    2988:	479d                	li	a5,7
    298a:	f4e7fee3          	bgeu	a5,a4,28e6 <get_config+0x16>
D:\Car\sure code\slave_school\obj/../Libraries/seekfree_peripheral/SEEKFREE_MT9V03X.c:171
    }
}
    298e:	0001                	nop
    2990:	50b2                	lw	ra,44(sp)
    2992:	5422                	lw	s0,40(sp)
    2994:	6145                	addi	sp,sp,48
    2996:	8082                	ret

00002998 <mt9v03x_vsync_init>:
mt9v03x_vsync_init():
D:\Car\sure code\slave_school\obj/../Libraries/seekfree_peripheral/SEEKFREE_MT9V03X.c:281
//  @return     void        NULL
//  @since      v1.0
//  Sample usage:
//-------------------------------------------------------------------------------------------------------------------
void mt9v03x_vsync_init(void)
{
    2998:	1141                	addi	sp,sp,-16
    299a:	c606                	sw	ra,12(sp)
    299c:	c422                	sw	s0,8(sp)
    299e:	0800                	addi	s0,sp,16
D:\Car\sure code\slave_school\obj/../Libraries/seekfree_peripheral/SEEKFREE_MT9V03X.c:282
    gpio_interrupt_init(MT9V03X_VSYNC_PIN, FALLING, IN_PULLUP);
    29a0:	04800613          	li	a2,72
    29a4:	45b1                	li	a1,12
    29a6:	4505                	li	a0,1
    29a8:	774000ef          	jal	ra,311c <gpio_interrupt_init>
D:\Car\sure code\slave_school\obj/../Libraries/seekfree_peripheral/SEEKFREE_MT9V03X.c:283
    nvic_init(MT9V03X_VSYNC_IRQN, 1, 0, ENABLE);
    29ac:	4685                	li	a3,1
    29ae:	4601                	li	a2,0
    29b0:	4585                	li	a1,1
    29b2:	455d                	li	a0,23
    29b4:	7e8000ef          	jal	ra,319c <nvic_init>
D:\Car\sure code\slave_school\obj/../Libraries/seekfree_peripheral/SEEKFREE_MT9V03X.c:284
}
    29b8:	0001                	nop
    29ba:	40b2                	lw	ra,12(sp)
    29bc:	4422                	lw	s0,8(sp)
    29be:	0141                	addi	sp,sp,16
    29c0:	8082                	ret

000029c2 <mt9v03x_tim1_etr_init>:
mt9v03x_tim1_etr_init():
D:\Car\sure code\slave_school\obj/../Libraries/seekfree_peripheral/SEEKFREE_MT9V03X.c:294
//  @return     void        NULL
//  @since      v1.0
//  Sample usage:
//-------------------------------------------------------------------------------------------------------------------
void mt9v03x_tim1_etr_init(void)
{
    29c2:	1141                	addi	sp,sp,-16
    29c4:	c606                	sw	ra,12(sp)
    29c6:	c422                	sw	s0,8(sp)
    29c8:	0800                	addi	s0,sp,16
D:\Car\sure code\slave_school\obj/../Libraries/seekfree_peripheral/SEEKFREE_MT9V03X.c:295
    camera_tim_etr_init(TIMER_1, MT9V03X_PCLK_PIN);
    29ca:	45b1                	li	a1,12
    29cc:	4501                	li	a0,0
    29ce:	2671                	jal	2d5a <camera_tim_etr_init>
D:\Car\sure code\slave_school\obj/../Libraries/seekfree_peripheral/SEEKFREE_MT9V03X.c:296
}
    29d0:	0001                	nop
    29d2:	40b2                	lw	ra,12(sp)
    29d4:	4422                	lw	s0,8(sp)
    29d6:	0141                	addi	sp,sp,16
    29d8:	8082                	ret

000029da <mt9v03x_dma_init>:
mt9v03x_dma_init():
D:\Car\sure code\slave_school\obj/../Libraries/seekfree_peripheral/SEEKFREE_MT9V03X.c:306
//  @return     void        NULL
//  @since      v1.0
//  Sample usage:
//-------------------------------------------------------------------------------------------------------------------
void mt9v03x_dma_init(void)
{
    29da:	1101                	addi	sp,sp,-32
    29dc:	ce06                	sw	ra,28(sp)
    29de:	cc22                	sw	s0,24(sp)
    29e0:	1000                	addi	s0,sp,32
D:\Car\sure code\slave_school\obj/../Libraries/seekfree_peripheral/SEEKFREE_MT9V03X.c:311
    uint8 data_pin,num;


    //摄像头数据引脚初始化
    data_pin = (uint8)(((MT9V03X_DATA_PIN - (GPIOA_BASE+8)) >> 10) << 5) +
    29e2:	04000793          	li	a5,64
    29e6:	fef40723          	sb	a5,-18(s0)
D:\Car\sure code\slave_school\obj/../Libraries/seekfree_peripheral/SEEKFREE_MT9V03X.c:314
                (((MT9V03X_DATA_PIN - (GPIOA_BASE+8)) & 0x0F) << 3);

    for(num=7; num>0; num--)
    29ea:	479d                	li	a5,7
    29ec:	fef407a3          	sb	a5,-17(s0)
    29f0:	a005                	j	2a10 <mt9v03x_dma_init+0x36>
D:\Car\sure code\slave_school\obj/../Libraries/seekfree_peripheral/SEEKFREE_MT9V03X.c:316 (discriminator 3)
    {
        gpio_init((PIN_enum)(num + data_pin), GPI, 0, IN_FLOAT);
    29f2:	fef44703          	lbu	a4,-17(s0)
    29f6:	fee44783          	lbu	a5,-18(s0)
    29fa:	97ba                	add	a5,a5,a4
    29fc:	4691                	li	a3,4
    29fe:	4601                	li	a2,0
    2a00:	4581                	li	a1,0
    2a02:	853e                	mv	a0,a5
    2a04:	2145                	jal	2ea4 <gpio_init>
D:\Car\sure code\slave_school\obj/../Libraries/seekfree_peripheral/SEEKFREE_MT9V03X.c:314 (discriminator 3)
    for(num=7; num>0; num--)
    2a06:	fef44783          	lbu	a5,-17(s0)
    2a0a:	17fd                	addi	a5,a5,-1
    2a0c:	fef407a3          	sb	a5,-17(s0)
D:\Car\sure code\slave_school\obj/../Libraries/seekfree_peripheral/SEEKFREE_MT9V03X.c:314 (discriminator 1)
    2a10:	fef44783          	lbu	a5,-17(s0)
    2a14:	fff9                	bnez	a5,29f2 <mt9v03x_dma_init+0x18>
D:\Car\sure code\slave_school\obj/../Libraries/seekfree_peripheral/SEEKFREE_MT9V03X.c:321
    }


    //DMA摄像头初始化
    camera_dma_init(MT9V03X_DMA_CH,(uint32)MT9V03X_DATA_PIN, (uint32)camera_buffer_addr, MT9V03X_H*MT9V03X_W);
    2a16:	83c1a783          	lw	a5,-1988(gp) # 200000f4 <camera_buffer_addr>
    2a1a:	873e                	mv	a4,a5
    2a1c:	6789                	lui	a5,0x2
    2a1e:	4b878693          	addi	a3,a5,1208 # 24b8 <USART_Cmd+0x30>
    2a22:	863a                	mv	a2,a4
    2a24:	400117b7          	lui	a5,0x40011
    2a28:	00878593          	addi	a1,a5,8 # 40011008 <_eusrstack+0x2000c008>
    2a2c:	400207b7          	lui	a5,0x40020
    2a30:	04478513          	addi	a0,a5,68 # 40020044 <_eusrstack+0x2001b044>
    2a34:	22f1                	jal	2c00 <camera_dma_init>
D:\Car\sure code\slave_school\obj/../Libraries/seekfree_peripheral/SEEKFREE_MT9V03X.c:322
    nvic_init(MT9V03X_DMA_IRQN, 0, 0, ENABLE);          //中断配置
    2a36:	4685                	li	a3,1
    2a38:	4601                	li	a2,0
    2a3a:	4581                	li	a1,0
    2a3c:	4579                	li	a0,30
    2a3e:	75e000ef          	jal	ra,319c <nvic_init>
D:\Car\sure code\slave_school\obj/../Libraries/seekfree_peripheral/SEEKFREE_MT9V03X.c:323
}
    2a42:	0001                	nop
    2a44:	40f2                	lw	ra,28(sp)
    2a46:	4462                	lw	s0,24(sp)
    2a48:	6105                	addi	sp,sp,32
    2a4a:	8082                	ret

00002a4c <mt9v03x_init>:
mt9v03x_init():
D:\Car\sure code\slave_school\obj/../Libraries/seekfree_peripheral/SEEKFREE_MT9V03X.c:334
//  @return     void
//  @since      v1.0
//  Sample usage:   使用FLEXIO接口采集摄像头
//-------------------------------------------------------------------------------------------------------------------
void mt9v03x_init(void)
{
    2a4c:	1141                	addi	sp,sp,-16
    2a4e:	c606                	sw	ra,12(sp)
    2a50:	c422                	sw	s0,8(sp)
    2a52:	0800                	addi	s0,sp,16
D:\Car\sure code\slave_school\obj/../Libraries/seekfree_peripheral/SEEKFREE_MT9V03X.c:336
    
    camera_type = CAMERA_GRAYSCALE;//设置连接摄像头类型
    2a54:	4705                	li	a4,1
    2a56:	80e1a423          	sw	a4,-2040(gp) # 200000c0 <camera_type>
D:\Car\sure code\slave_school\obj/../Libraries/seekfree_peripheral/SEEKFREE_MT9V03X.c:337
    camera_buffer_addr = mt9v03x_image[0];
    2a5a:	20000737          	lui	a4,0x20000
    2a5e:	1dc70713          	addi	a4,a4,476 # 200001dc <mt9v03x_image>
    2a62:	82e1ae23          	sw	a4,-1988(gp) # 200000f4 <camera_buffer_addr>
D:\Car\sure code\slave_school\obj/../Libraries/seekfree_peripheral/SEEKFREE_MT9V03X.c:339

    uart_init (MT9V03X_COF_UART, 9600,MT9V03X_COF_UART_TX, MT9V03X_COF_UART_RX);    //初始换串口 配置摄像头
    2a66:	46c5                	li	a3,17
    2a68:	4641                	li	a2,16
    2a6a:	6789                	lui	a5,0x2
    2a6c:	58078593          	addi	a1,a5,1408 # 2580 <USART_ITConfig+0x98>
    2a70:	4505                	li	a0,1
    2a72:	6cb000ef          	jal	ra,393c <uart_init>
D:\Car\sure code\slave_school\obj/../Libraries/seekfree_peripheral/SEEKFREE_MT9V03X.c:340
    uart_rx_irq(MT9V03X_COF_UART, ENABLE);
    2a76:	4585                	li	a1,1
    2a78:	4505                	li	a0,1
    2a7a:	062010ef          	jal	ra,3adc <uart_rx_irq>
D:\Car\sure code\slave_school\obj/../Libraries/seekfree_peripheral/SEEKFREE_MT9V03X.c:341
    EnableGlobalIRQ(0);
    2a7e:	4501                	li	a0,0
    2a80:	063000ef          	jal	ra,32e2 <EnableGlobalIRQ>
D:\Car\sure code\slave_school\obj/../Libraries/seekfree_peripheral/SEEKFREE_MT9V03X.c:344


    uart_receive_flag = 0;
    2a84:	82018623          	sb	zero,-2004(gp) # 200000e4 <uart_receive_flag>
D:\Car\sure code\slave_school\obj/../Libraries/seekfree_peripheral/SEEKFREE_MT9V03X.c:347
    //等待摄像头上电初始化成功 方式有两种：延时或者通过获取配置的方式 二选一
    //systick_delay_ms(1000);//延时方式
    get_config(MT9V03X_COF_UART, GET_CFG);//获取配置的方式
    2a88:	200007b7          	lui	a5,0x20000
    2a8c:	03478593          	addi	a1,a5,52 # 20000034 <GET_CFG>
    2a90:	4505                	li	a0,1
    2a92:	3d3d                	jal	28d0 <get_config>
D:\Car\sure code\slave_school\obj/../Libraries/seekfree_peripheral/SEEKFREE_MT9V03X.c:349

    uart_receive_flag = 0;
    2a94:	82018623          	sb	zero,-2004(gp) # 200000e4 <uart_receive_flag>
D:\Car\sure code\slave_school\obj/../Libraries/seekfree_peripheral/SEEKFREE_MT9V03X.c:350
    set_config(MT9V03X_COF_UART, MT9V03X_CFG);
    2a98:	200007b7          	lui	a5,0x20000
    2a9c:	01078593          	addi	a1,a5,16 # 20000010 <MT9V03X_CFG>
    2aa0:	4505                	li	a0,1
    2aa2:	3b3d                	jal	27e0 <set_config>
D:\Car\sure code\slave_school\obj/../Libraries/seekfree_peripheral/SEEKFREE_MT9V03X.c:352

    uart_receive_flag = 0;
    2aa4:	82018623          	sb	zero,-2004(gp) # 200000e4 <uart_receive_flag>
D:\Car\sure code\slave_school\obj/../Libraries/seekfree_peripheral/SEEKFREE_MT9V03X.c:354
    //获取配置便于查看配置是否正确
    get_config(MT9V03X_COF_UART, GET_CFG);
    2aa8:	200007b7          	lui	a5,0x20000
    2aac:	03478593          	addi	a1,a5,52 # 20000034 <GET_CFG>
    2ab0:	4505                	li	a0,1
    2ab2:	3d39                	jal	28d0 <get_config>
D:\Car\sure code\slave_school\obj/../Libraries/seekfree_peripheral/SEEKFREE_MT9V03X.c:356
    
    DisableGlobalIRQ();
    2ab4:	7e6000ef          	jal	ra,329a <DisableGlobalIRQ>
D:\Car\sure code\slave_school\obj/../Libraries/seekfree_peripheral/SEEKFREE_MT9V03X.c:359

    //DMA初始化
    mt9v03x_dma_init();
    2ab8:	370d                	jal	29da <mt9v03x_dma_init>
D:\Car\sure code\slave_school\obj/../Libraries/seekfree_peripheral/SEEKFREE_MT9V03X.c:361
    //GPIO触发定时器初始化,PLCK引脚初始化
    mt9v03x_tim1_etr_init();
    2aba:	3721                	jal	29c2 <mt9v03x_tim1_etr_init>
D:\Car\sure code\slave_school\obj/../Libraries/seekfree_peripheral/SEEKFREE_MT9V03X.c:363
    //VSYNC初始化
    mt9v03x_vsync_init();
    2abc:	3df1                	jal	2998 <mt9v03x_vsync_init>
D:\Car\sure code\slave_school\obj/../Libraries/seekfree_peripheral/SEEKFREE_MT9V03X.c:364
}
    2abe:	0001                	nop
    2ac0:	40b2                	lw	ra,12(sp)
    2ac2:	4422                	lw	s0,8(sp)
    2ac4:	0141                	addi	sp,sp,16
    2ac6:	8082                	ret

00002ac8 <mt9v03x_vsync>:
mt9v03x_vsync():
D:\Car\sure code\slave_school\obj/../Libraries/seekfree_peripheral/SEEKFREE_MT9V03X.c:376
//  @return     void
//  @since      v1.0
//  Sample usage:               在isr.c里面先创建对应的中断函数，然后调用该函数(之后别忘记清除中断标志位)
//-------------------------------------------------------------------------------------------------------------------
void mt9v03x_vsync(void)
{
    2ac8:	1141                	addi	sp,sp,-16
    2aca:	c622                	sw	s0,12(sp)
    2acc:	0800                	addi	s0,sp,16
D:\Car\sure code\slave_school\obj/../Libraries/seekfree_peripheral/SEEKFREE_MT9V03X.c:377
    MT9V03X_DMA_CH->CNTR = MT9V03X_H*MT9V03X_W;             //设置当前DMA传输的剩余数量，向下递减，该寄存器只能在DMA不工作时更改。
    2ace:	400207b7          	lui	a5,0x40020
    2ad2:	04478793          	addi	a5,a5,68 # 40020044 <_eusrstack+0x2001b044>
    2ad6:	6709                	lui	a4,0x2
    2ad8:	4b870713          	addi	a4,a4,1208 # 24b8 <USART_Cmd+0x30>
    2adc:	c3d8                	sw	a4,4(a5)
D:\Car\sure code\slave_school\obj/../Libraries/seekfree_peripheral/SEEKFREE_MT9V03X.c:378
    MT9V03X_DMA_CH->CFGR |= DMA_CFGR1_EN;
    2ade:	400207b7          	lui	a5,0x40020
    2ae2:	04478793          	addi	a5,a5,68 # 40020044 <_eusrstack+0x2001b044>
    2ae6:	4398                	lw	a4,0(a5)
    2ae8:	400207b7          	lui	a5,0x40020
    2aec:	04478793          	addi	a5,a5,68 # 40020044 <_eusrstack+0x2001b044>
    2af0:	00176713          	ori	a4,a4,1
    2af4:	c398                	sw	a4,0(a5)
D:\Car\sure code\slave_school\obj/../Libraries/seekfree_peripheral/SEEKFREE_MT9V03X.c:379
}
    2af6:	0001                	nop
    2af8:	4432                	lw	s0,12(sp)
    2afa:	0141                	addi	sp,sp,16
    2afc:	8082                	ret

00002afe <mt9v03x_dma>:
mt9v03x_dma():
D:\Car\sure code\slave_school\obj/../Libraries/seekfree_peripheral/SEEKFREE_MT9V03X.c:389
//  @return     void
//  @since      v1.0
//  Sample usage:
//-------------------------------------------------------------------------------------------------------------------
void mt9v03x_dma(void)
{
    2afe:	1141                	addi	sp,sp,-16
    2b00:	c622                	sw	s0,12(sp)
    2b02:	0800                	addi	s0,sp,16
D:\Car\sure code\slave_school\obj/../Libraries/seekfree_peripheral/SEEKFREE_MT9V03X.c:390
    mt9v03x_finish_flag = 1;//一副图像从采集开始到采集结束耗时3.8MS左右(50FPS、188*120分辨率)
    2b04:	4705                	li	a4,1
    2b06:	82e186a3          	sb	a4,-2003(gp) # 200000e5 <mt9v03x_finish_flag>
D:\Car\sure code\slave_school\obj/../Libraries/seekfree_peripheral/SEEKFREE_MT9V03X.c:391
    MT9V03X_DMA_CH->CFGR &= (uint16)(~DMA_CFGR1_EN);   //关闭DMA1
    2b0a:	400207b7          	lui	a5,0x40020
    2b0e:	04478793          	addi	a5,a5,68 # 40020044 <_eusrstack+0x2001b044>
    2b12:	4394                	lw	a3,0(a5)
    2b14:	400207b7          	lui	a5,0x40020
    2b18:	04478793          	addi	a5,a5,68 # 40020044 <_eusrstack+0x2001b044>
    2b1c:	6741                	lui	a4,0x10
    2b1e:	1779                	addi	a4,a4,-2
    2b20:	8f75                	and	a4,a4,a3
    2b22:	c398                	sw	a4,0(a5)
D:\Car\sure code\slave_school\obj/../Libraries/seekfree_peripheral/SEEKFREE_MT9V03X.c:392
}
    2b24:	0001                	nop
    2b26:	4432                	lw	s0,12(sp)
    2b28:	0141                	addi	sp,sp,16
    2b2a:	8082                	ret

00002b2c <ov7725_cof_uart_interrupt>:
ov7725_cof_uart_interrupt():
D:\Car\sure code\slave_school\obj/../Libraries/seekfree_peripheral/SEEKFREE_UART_7725.c:81
//  Sample usage:
//  @note       该函数在ISR文件 串口3中断程序被调用
//-------------------------------------------------------------------------------------------------------------------

void ov7725_cof_uart_interrupt(void)
{
    2b2c:	1141                	addi	sp,sp,-16
    2b2e:	c622                	sw	s0,12(sp)
    2b30:	0800                	addi	s0,sp,16
D:\Car\sure code\slave_school\obj/../Libraries/seekfree_peripheral/SEEKFREE_UART_7725.c:83

    ov7725_uart_receive[ov7725_uart_receive_num] = ((USART_TypeDef*)UARTN[OV7725_UART_COF_UART])->DATAR & 0x01FF;
    2b32:	6795                	lui	a5,0x5
    2b34:	6c078793          	addi	a5,a5,1728 # 56c0 <UARTN>
    2b38:	43dc                	lw	a5,4(a5)
    2b3a:	0047d783          	lhu	a5,4(a5)
    2b3e:	01079713          	slli	a4,a5,0x10
    2b42:	8341                	srli	a4,a4,0x10
    2b44:	8331c783          	lbu	a5,-1997(gp) # 200000eb <ov7725_uart_receive_num>
    2b48:	86be                	mv	a3,a5
    2b4a:	0ff77713          	andi	a4,a4,255
    2b4e:	83018793          	addi	a5,gp,-2000 # 200000e8 <ov7725_uart_receive>
    2b52:	97b6                	add	a5,a5,a3
    2b54:	00e78023          	sb	a4,0(a5)
D:\Car\sure code\slave_school\obj/../Libraries/seekfree_peripheral/SEEKFREE_UART_7725.c:84
    ov7725_uart_receive_num++;
    2b58:	8331c783          	lbu	a5,-1997(gp) # 200000eb <ov7725_uart_receive_num>
    2b5c:	0785                	addi	a5,a5,1
    2b5e:	0ff7f713          	andi	a4,a5,255
    2b62:	82e189a3          	sb	a4,-1997(gp) # 200000eb <ov7725_uart_receive_num>
D:\Car\sure code\slave_school\obj/../Libraries/seekfree_peripheral/SEEKFREE_UART_7725.c:86

    if(1==ov7725_uart_receive_num && 0XA5!=ov7725_uart_receive[0])  ov7725_uart_receive_num = 0;
    2b66:	8331c703          	lbu	a4,-1997(gp) # 200000eb <ov7725_uart_receive_num>
    2b6a:	4785                	li	a5,1
    2b6c:	00f71a63          	bne	a4,a5,2b80 <ov7725_cof_uart_interrupt+0x54>
D:\Car\sure code\slave_school\obj/../Libraries/seekfree_peripheral/SEEKFREE_UART_7725.c:86 (discriminator 1)
    2b70:	8301c703          	lbu	a4,-2000(gp) # 200000e8 <ov7725_uart_receive>
    2b74:	0a500793          	li	a5,165
    2b78:	00f70463          	beq	a4,a5,2b80 <ov7725_cof_uart_interrupt+0x54>
D:\Car\sure code\slave_school\obj/../Libraries/seekfree_peripheral/SEEKFREE_UART_7725.c:86 (discriminator 2)
    2b7c:	820189a3          	sb	zero,-1997(gp) # 200000eb <ov7725_uart_receive_num>
D:\Car\sure code\slave_school\obj/../Libraries/seekfree_peripheral/SEEKFREE_UART_7725.c:87
    if(3 == ov7725_uart_receive_num)
    2b80:	8331c703          	lbu	a4,-1997(gp) # 200000eb <ov7725_uart_receive_num>
    2b84:	478d                	li	a5,3
    2b86:	00f71763          	bne	a4,a5,2b94 <ov7725_cof_uart_interrupt+0x68>
D:\Car\sure code\slave_school\obj/../Libraries/seekfree_peripheral/SEEKFREE_UART_7725.c:89
    {
        ov7725_uart_receive_num = 0;
    2b8a:	820189a3          	sb	zero,-1997(gp) # 200000eb <ov7725_uart_receive_num>
D:\Car\sure code\slave_school\obj/../Libraries/seekfree_peripheral/SEEKFREE_UART_7725.c:90
        ov7725_uart_receive_flag = 1;
    2b8e:	4705                	li	a4,1
    2b90:	82e18a23          	sb	a4,-1996(gp) # 200000ec <ov7725_uart_receive_flag>
D:\Car\sure code\slave_school\obj/../Libraries/seekfree_peripheral/SEEKFREE_UART_7725.c:92
    }
}
    2b94:	0001                	nop
    2b96:	4432                	lw	s0,12(sp)
    2b98:	0141                	addi	sp,sp,16
    2b9a:	8082                	ret

00002b9c <ov7725_uart_vsync>:
ov7725_uart_vsync():
D:\Car\sure code\slave_school\obj/../Libraries/seekfree_peripheral/SEEKFREE_UART_7725.c:103
//  @since      v1.0
//  Sample usage:                   在isr.c里面先创建对应的中断函数，然后调用该函数(之后别忘记清除中断标志位)
//-------------------------------------------------------------------------------------------------------------------

void ov7725_uart_vsync(void)
{
    2b9c:	1141                	addi	sp,sp,-16
    2b9e:	c622                	sw	s0,12(sp)
    2ba0:	0800                	addi	s0,sp,16
D:\Car\sure code\slave_school\obj/../Libraries/seekfree_peripheral/SEEKFREE_UART_7725.c:104
    OV7725_UART_DMA_CH->CNTR = OV7725_UART_SIZE;             //设置当前DMA传输的剩余数量，向下递减，该寄存器只能在DMA不工作时更改。
    2ba2:	400207b7          	lui	a5,0x40020
    2ba6:	04478793          	addi	a5,a5,68 # 40020044 <_eusrstack+0x2001b044>
    2baa:	6705                	lui	a4,0x1
    2bac:	96070713          	addi	a4,a4,-1696 # 960 <__stack_size+0x160>
    2bb0:	c3d8                	sw	a4,4(a5)
D:\Car\sure code\slave_school\obj/../Libraries/seekfree_peripheral/SEEKFREE_UART_7725.c:105
    OV7725_UART_DMA_CH->CFGR |= DMA_CFGR1_EN;                //开启DMA1
    2bb2:	400207b7          	lui	a5,0x40020
    2bb6:	04478793          	addi	a5,a5,68 # 40020044 <_eusrstack+0x2001b044>
    2bba:	4398                	lw	a4,0(a5)
    2bbc:	400207b7          	lui	a5,0x40020
    2bc0:	04478793          	addi	a5,a5,68 # 40020044 <_eusrstack+0x2001b044>
    2bc4:	00176713          	ori	a4,a4,1
    2bc8:	c398                	sw	a4,0(a5)
D:\Car\sure code\slave_school\obj/../Libraries/seekfree_peripheral/SEEKFREE_UART_7725.c:106
}
    2bca:	0001                	nop
    2bcc:	4432                	lw	s0,12(sp)
    2bce:	0141                	addi	sp,sp,16
    2bd0:	8082                	ret

00002bd2 <ov7725_uart_dma>:
ov7725_uart_dma():
D:\Car\sure code\slave_school\obj/../Libraries/seekfree_peripheral/SEEKFREE_UART_7725.c:117
//  @return     void
//  @since      v1.0
//  Sample usage:                   在isr.c里面先创建对应的中断函数，然后调用该函数(之后别忘记清除中断标志位)
//-------------------------------------------------------------------------------------------------------------------
void ov7725_uart_dma(void)
{
    2bd2:	1141                	addi	sp,sp,-16
    2bd4:	c622                	sw	s0,12(sp)
    2bd6:	0800                	addi	s0,sp,16
D:\Car\sure code\slave_school\obj/../Libraries/seekfree_peripheral/SEEKFREE_UART_7725.c:118
    ov7725_uart_finish_flag = 1;                             //摄像头数据采集置1
    2bd8:	4705                	li	a4,1
    2bda:	82e18aa3          	sb	a4,-1995(gp) # 200000ed <ov7725_uart_finish_flag>
D:\Car\sure code\slave_school\obj/../Libraries/seekfree_peripheral/SEEKFREE_UART_7725.c:119
    OV7725_UART_DMA_CH->CFGR &= (uint16)(~DMA_CFGR1_EN);     //关闭DMA1
    2bde:	400207b7          	lui	a5,0x40020
    2be2:	04478793          	addi	a5,a5,68 # 40020044 <_eusrstack+0x2001b044>
    2be6:	4394                	lw	a3,0(a5)
    2be8:	400207b7          	lui	a5,0x40020
    2bec:	04478793          	addi	a5,a5,68 # 40020044 <_eusrstack+0x2001b044>
    2bf0:	6741                	lui	a4,0x10
    2bf2:	1779                	addi	a4,a4,-2
    2bf4:	8f75                	and	a4,a4,a3
    2bf6:	c398                	sw	a4,0(a5)
D:\Car\sure code\slave_school\obj/../Libraries/seekfree_peripheral/SEEKFREE_UART_7725.c:120
}
    2bf8:	0001                	nop
    2bfa:	4432                	lw	s0,12(sp)
    2bfc:	0141                	addi	sp,sp,16
    2bfe:	8082                	ret

00002c00 <camera_dma_init>:
camera_dma_init():
D:\Car\sure code\slave_school\obj/../Libraries/seekfree_libraries/zf_camera.c:38
//  @param      size                数据长度
//  @return     void
//  Sample usage:                   camera_dma_init(DMA1_Channel4, GPIOA->ODR, GPIOC->ODR, 8);
//-------------------------------------------------------------------------------------------------------------------
void camera_dma_init(DMA_Channel_TypeDef* dma_ch,uint32 src_addr, uint32 des_addr, uint32 size)
{
    2c00:	715d                	addi	sp,sp,-80
    2c02:	c686                	sw	ra,76(sp)
    2c04:	c4a2                	sw	s0,72(sp)
    2c06:	0880                	addi	s0,sp,80
    2c08:	faa42e23          	sw	a0,-68(s0)
    2c0c:	fab42c23          	sw	a1,-72(s0)
    2c10:	fac42a23          	sw	a2,-76(s0)
    2c14:	fad42823          	sw	a3,-80(s0)
D:\Car\sure code\slave_school\obj/../Libraries/seekfree_libraries/zf_camera.c:41
    DMA_InitTypeDef DMA_InitStructure;

    if(DMA1_Channel1 == dma_ch || DMA1_Channel2 == dma_ch || DMA1_Channel3 == dma_ch || DMA1_Channel4 == dma_ch ||
    2c18:	fbc42703          	lw	a4,-68(s0)
    2c1c:	400207b7          	lui	a5,0x40020
    2c20:	07a1                	addi	a5,a5,8
    2c22:	06f70163          	beq	a4,a5,2c84 <camera_dma_init+0x84>
D:\Car\sure code\slave_school\obj/../Libraries/seekfree_libraries/zf_camera.c:41 (discriminator 1)
    2c26:	fbc42703          	lw	a4,-68(s0)
    2c2a:	400207b7          	lui	a5,0x40020
    2c2e:	07f1                	addi	a5,a5,28
    2c30:	04f70a63          	beq	a4,a5,2c84 <camera_dma_init+0x84>
D:\Car\sure code\slave_school\obj/../Libraries/seekfree_libraries/zf_camera.c:41 (discriminator 2)
    2c34:	fbc42703          	lw	a4,-68(s0)
    2c38:	400207b7          	lui	a5,0x40020
    2c3c:	03078793          	addi	a5,a5,48 # 40020030 <_eusrstack+0x2001b030>
    2c40:	04f70263          	beq	a4,a5,2c84 <camera_dma_init+0x84>
D:\Car\sure code\slave_school\obj/../Libraries/seekfree_libraries/zf_camera.c:41 (discriminator 3)
    2c44:	fbc42703          	lw	a4,-68(s0)
    2c48:	400207b7          	lui	a5,0x40020
    2c4c:	04478793          	addi	a5,a5,68 # 40020044 <_eusrstack+0x2001b044>
    2c50:	02f70a63          	beq	a4,a5,2c84 <camera_dma_init+0x84>
D:\Car\sure code\slave_school\obj/../Libraries/seekfree_libraries/zf_camera.c:41 (discriminator 4)
    2c54:	fbc42703          	lw	a4,-68(s0)
    2c58:	400207b7          	lui	a5,0x40020
    2c5c:	05878793          	addi	a5,a5,88 # 40020058 <_eusrstack+0x2001b058>
    2c60:	02f70263          	beq	a4,a5,2c84 <camera_dma_init+0x84>
D:\Car\sure code\slave_school\obj/../Libraries/seekfree_libraries/zf_camera.c:42
       DMA1_Channel5 == dma_ch || DMA1_Channel6 == dma_ch || DMA1_Channel7 == dma_ch)
    2c64:	fbc42703          	lw	a4,-68(s0)
    2c68:	400207b7          	lui	a5,0x40020
    2c6c:	06c78793          	addi	a5,a5,108 # 4002006c <_eusrstack+0x2001b06c>
    2c70:	00f70a63          	beq	a4,a5,2c84 <camera_dma_init+0x84>
D:\Car\sure code\slave_school\obj/../Libraries/seekfree_libraries/zf_camera.c:42 (discriminator 1)
    2c74:	fbc42703          	lw	a4,-68(s0)
    2c78:	400207b7          	lui	a5,0x40020
    2c7c:	08078793          	addi	a5,a5,128 # 40020080 <_eusrstack+0x2001b080>
    2c80:	00f71763          	bne	a4,a5,2c8e <camera_dma_init+0x8e>
D:\Car\sure code\slave_school\obj/../Libraries/seekfree_libraries/zf_camera.c:44
    {
        RCC_AHBPeriphClockCmd(RCC_AHBPeriph_DMA1, ENABLE);//DMA1总线初始化
    2c84:	4585                	li	a1,1
    2c86:	4505                	li	a0,1
    2c88:	f15fe0ef          	jal	ra,1b9c <RCC_AHBPeriphClockCmd>
    2c8c:	a8a9                	j	2ce6 <camera_dma_init+0xe6>
D:\Car\sure code\slave_school\obj/../Libraries/seekfree_libraries/zf_camera.c:46
    }
    else if(DMA2_Channel1 == dma_ch || DMA2_Channel2 == dma_ch || DMA2_Channel3 == dma_ch ||  DMA2_Channel4 == dma_ch ||
    2c8e:	fbc42703          	lw	a4,-68(s0)
    2c92:	400207b7          	lui	a5,0x40020
    2c96:	40878793          	addi	a5,a5,1032 # 40020408 <_eusrstack+0x2001b408>
    2c9a:	04f70263          	beq	a4,a5,2cde <camera_dma_init+0xde>
D:\Car\sure code\slave_school\obj/../Libraries/seekfree_libraries/zf_camera.c:46 (discriminator 1)
    2c9e:	fbc42703          	lw	a4,-68(s0)
    2ca2:	400207b7          	lui	a5,0x40020
    2ca6:	41c78793          	addi	a5,a5,1052 # 4002041c <_eusrstack+0x2001b41c>
    2caa:	02f70a63          	beq	a4,a5,2cde <camera_dma_init+0xde>
D:\Car\sure code\slave_school\obj/../Libraries/seekfree_libraries/zf_camera.c:46 (discriminator 2)
    2cae:	fbc42703          	lw	a4,-68(s0)
    2cb2:	400207b7          	lui	a5,0x40020
    2cb6:	43078793          	addi	a5,a5,1072 # 40020430 <_eusrstack+0x2001b430>
    2cba:	02f70263          	beq	a4,a5,2cde <camera_dma_init+0xde>
D:\Car\sure code\slave_school\obj/../Libraries/seekfree_libraries/zf_camera.c:46 (discriminator 3)
    2cbe:	fbc42703          	lw	a4,-68(s0)
    2cc2:	400207b7          	lui	a5,0x40020
    2cc6:	44478793          	addi	a5,a5,1092 # 40020444 <_eusrstack+0x2001b444>
    2cca:	00f70a63          	beq	a4,a5,2cde <camera_dma_init+0xde>
D:\Car\sure code\slave_school\obj/../Libraries/seekfree_libraries/zf_camera.c:46 (discriminator 4)
    2cce:	fbc42703          	lw	a4,-68(s0)
    2cd2:	400207b7          	lui	a5,0x40020
    2cd6:	45878793          	addi	a5,a5,1112 # 40020458 <_eusrstack+0x2001b458>
    2cda:	00f71663          	bne	a4,a5,2ce6 <camera_dma_init+0xe6>
D:\Car\sure code\slave_school\obj/../Libraries/seekfree_libraries/zf_camera.c:49
            DMA2_Channel5 == dma_ch)
    {
        RCC_AHBPeriphClockCmd(RCC_AHBPeriph_DMA2, ENABLE);//DMA2总线初始化
    2cde:	4585                	li	a1,1
    2ce0:	4509                	li	a0,2
    2ce2:	ebbfe0ef          	jal	ra,1b9c <RCC_AHBPeriphClockCmd>
D:\Car\sure code\slave_school\obj/../Libraries/seekfree_libraries/zf_camera.c:52
    }

    DMA_DeInit(dma_ch);
    2ce6:	fbc42503          	lw	a0,-68(s0)
    2cea:	94cfe0ef          	jal	ra,e36 <DMA_DeInit>
D:\Car\sure code\slave_school\obj/../Libraries/seekfree_libraries/zf_camera.c:55

    //MDA配置初始化
    DMA_InitStructure.DMA_PeripheralBaseAddr = src_addr;                    //源地址
    2cee:	fb842783          	lw	a5,-72(s0)
    2cf2:	fcf42223          	sw	a5,-60(s0)
D:\Car\sure code\slave_school\obj/../Libraries/seekfree_libraries/zf_camera.c:56
    DMA_InitStructure.DMA_MemoryBaseAddr = des_addr;                        //目标地址
    2cf6:	fb442783          	lw	a5,-76(s0)
    2cfa:	fcf42423          	sw	a5,-56(s0)
D:\Car\sure code\slave_school\obj/../Libraries/seekfree_libraries/zf_camera.c:57
    DMA_InitStructure.DMA_DIR = DMA_DIR_PeripheralSRC;                      //外设作为源
    2cfe:	fc042623          	sw	zero,-52(s0)
D:\Car\sure code\slave_school\obj/../Libraries/seekfree_libraries/zf_camera.c:58
    DMA_InitStructure.DMA_BufferSize = size;                                //传输多少个数据
    2d02:	fb042783          	lw	a5,-80(s0)
    2d06:	fcf42823          	sw	a5,-48(s0)
D:\Car\sure code\slave_school\obj/../Libraries/seekfree_libraries/zf_camera.c:59
    DMA_InitStructure.DMA_PeripheralInc = DMA_PeripheralInc_Disable;        //外设地址不增加
    2d0a:	fc042a23          	sw	zero,-44(s0)
D:\Car\sure code\slave_school\obj/../Libraries/seekfree_libraries/zf_camera.c:60
    DMA_InitStructure.DMA_MemoryInc = DMA_MemoryInc_Enable;                 //内存地址依次+1
    2d0e:	08000793          	li	a5,128
    2d12:	fcf42c23          	sw	a5,-40(s0)
D:\Car\sure code\slave_school\obj/../Libraries/seekfree_libraries/zf_camera.c:61
    DMA_InitStructure.DMA_PeripheralDataSize = DMA_PeripheralDataSize_Byte; //外设每次传输一个字节
    2d16:	fc042e23          	sw	zero,-36(s0)
D:\Car\sure code\slave_school\obj/../Libraries/seekfree_libraries/zf_camera.c:62
    DMA_InitStructure.DMA_MemoryDataSize = DMA_MemoryDataSize_Byte;         //内存每次传输一个字节
    2d1a:	fe042023          	sw	zero,-32(s0)
D:\Car\sure code\slave_school\obj/../Libraries/seekfree_libraries/zf_camera.c:63
    DMA_InitStructure.DMA_Mode = DMA_Mode_Normal;                           //非循环模式
    2d1e:	fe042223          	sw	zero,-28(s0)
D:\Car\sure code\slave_school\obj/../Libraries/seekfree_libraries/zf_camera.c:64
    DMA_InitStructure.DMA_Priority = DMA_Priority_VeryHigh;                 //优先级最高
    2d22:	678d                	lui	a5,0x3
    2d24:	fef42423          	sw	a5,-24(s0)
D:\Car\sure code\slave_school\obj/../Libraries/seekfree_libraries/zf_camera.c:65
    DMA_InitStructure.DMA_M2M = DMA_M2M_Disable;                            //非内存到内存模式
    2d28:	fe042623          	sw	zero,-20(s0)
D:\Car\sure code\slave_school\obj/../Libraries/seekfree_libraries/zf_camera.c:66
    DMA_Init(dma_ch, &DMA_InitStructure);
    2d2c:	fc440793          	addi	a5,s0,-60
    2d30:	85be                	mv	a1,a5
    2d32:	fbc42503          	lw	a0,-68(s0)
    2d36:	b0efe0ef          	jal	ra,1044 <DMA_Init>
D:\Car\sure code\slave_school\obj/../Libraries/seekfree_libraries/zf_camera.c:68

    DMA_ITConfig(dma_ch, DMA_IT_TC, ENABLE);                                //配置DMA传输完成中断
    2d3a:	4605                	li	a2,1
    2d3c:	4589                	li	a1,2
    2d3e:	fbc42503          	lw	a0,-68(s0)
    2d42:	beafe0ef          	jal	ra,112c <DMA_ITConfig>
D:\Car\sure code\slave_school\obj/../Libraries/seekfree_libraries/zf_camera.c:69
    DMA_Cmd(dma_ch, ENABLE);                                                //开启DMA1
    2d46:	4585                	li	a1,1
    2d48:	fbc42503          	lw	a0,-68(s0)
    2d4c:	ba0fe0ef          	jal	ra,10ec <DMA_Cmd>
D:\Car\sure code\slave_school\obj/../Libraries/seekfree_libraries/zf_camera.c:71

}
    2d50:	0001                	nop
    2d52:	40b6                	lw	ra,76(sp)
    2d54:	4426                	lw	s0,72(sp)
    2d56:	6161                	addi	sp,sp,80
    2d58:	8082                	ret

00002d5a <camera_tim_etr_init>:
camera_tim_etr_init():
D:\Car\sure code\slave_school\obj/../Libraries/seekfree_libraries/zf_camera.c:82
//  @param      pin                 引脚号
//  @return     void
//  Sample usage:                   camera_tim_etr_init(TIMER_1, A12);  //定时器ERT触发是固定的引脚禁止随意修改
//-------------------------------------------------------------------------------------------------------------------
void camera_tim_etr_init(TIMERN_enum timern, PIN_enum pin)
{
    2d5a:	7179                	addi	sp,sp,-48
    2d5c:	d606                	sw	ra,44(sp)
    2d5e:	d422                	sw	s0,40(sp)
    2d60:	1800                	addi	s0,sp,48
    2d62:	fca42e23          	sw	a0,-36(s0)
    2d66:	fcb42c23          	sw	a1,-40(s0)
D:\Car\sure code\slave_school\obj/../Libraries/seekfree_libraries/zf_camera.c:85
    TIM_TimeBaseInitTypeDef  TIM_TimeBaseStructure;

    RCC_APB2PeriphClockCmd(RCC_APB2Periph_AFIO, ENABLE);
    2d6a:	4585                	li	a1,1
    2d6c:	4505                	li	a0,1
    2d6e:	e75fe0ef          	jal	ra,1be2 <RCC_APB2PeriphClockCmd>
D:\Car\sure code\slave_school\obj/../Libraries/seekfree_libraries/zf_camera.c:86
    if(TIMER_1 == timern)
    2d72:	fdc42783          	lw	a5,-36(s0)
    2d76:	eb81                	bnez	a5,2d86 <camera_tim_etr_init+0x2c>
D:\Car\sure code\slave_school\obj/../Libraries/seekfree_libraries/zf_camera.c:87
        RCC_APB2PeriphClockCmd(RCC_APB2Periph_TIM1, ENABLE);
    2d78:	4585                	li	a1,1
    2d7a:	6785                	lui	a5,0x1
    2d7c:	80078513          	addi	a0,a5,-2048 # 800 <__stack_size>
    2d80:	e63fe0ef          	jal	ra,1be2 <RCC_APB2PeriphClockCmd>
    2d84:	a835                	j	2dc0 <camera_tim_etr_init+0x66>
D:\Car\sure code\slave_school\obj/../Libraries/seekfree_libraries/zf_camera.c:88
    else if(TIMER_2 == timern)
    2d86:	fdc42703          	lw	a4,-36(s0)
    2d8a:	4785                	li	a5,1
    2d8c:	00f71763          	bne	a4,a5,2d9a <camera_tim_etr_init+0x40>
D:\Car\sure code\slave_school\obj/../Libraries/seekfree_libraries/zf_camera.c:89
        RCC_APB1PeriphClockCmd(RCC_APB1Periph_TIM2, ENABLE);
    2d90:	4585                	li	a1,1
    2d92:	4505                	li	a0,1
    2d94:	e95fe0ef          	jal	ra,1c28 <RCC_APB1PeriphClockCmd>
    2d98:	a025                	j	2dc0 <camera_tim_etr_init+0x66>
D:\Car\sure code\slave_school\obj/../Libraries/seekfree_libraries/zf_camera.c:90
    else if(TIMER_3 == timern)
    2d9a:	fdc42703          	lw	a4,-36(s0)
    2d9e:	4789                	li	a5,2
    2da0:	00f71763          	bne	a4,a5,2dae <camera_tim_etr_init+0x54>
D:\Car\sure code\slave_school\obj/../Libraries/seekfree_libraries/zf_camera.c:91
        RCC_APB1PeriphClockCmd(RCC_APB1Periph_TIM3, ENABLE);
    2da4:	4585                	li	a1,1
    2da6:	4509                	li	a0,2
    2da8:	e81fe0ef          	jal	ra,1c28 <RCC_APB1PeriphClockCmd>
    2dac:	a811                	j	2dc0 <camera_tim_etr_init+0x66>
D:\Car\sure code\slave_school\obj/../Libraries/seekfree_libraries/zf_camera.c:92
    else if(TIMER_4 == timern)
    2dae:	fdc42703          	lw	a4,-36(s0)
    2db2:	478d                	li	a5,3
    2db4:	00f71663          	bne	a4,a5,2dc0 <camera_tim_etr_init+0x66>
D:\Car\sure code\slave_school\obj/../Libraries/seekfree_libraries/zf_camera.c:93
        RCC_APB1PeriphClockCmd(RCC_APB1Periph_TIM4, ENABLE);
    2db8:	4585                	li	a1,1
    2dba:	4511                	li	a0,4
    2dbc:	e6dfe0ef          	jal	ra,1c28 <RCC_APB1PeriphClockCmd>
D:\Car\sure code\slave_school\obj/../Libraries/seekfree_libraries/zf_camera.c:95

    gpio_init(pin, GPI, 0, IN_FLOAT);
    2dc0:	4691                	li	a3,4
    2dc2:	4601                	li	a2,0
    2dc4:	4581                	li	a1,0
    2dc6:	fd842503          	lw	a0,-40(s0)
    2dca:	28e9                	jal	2ea4 <gpio_init>
D:\Car\sure code\slave_school\obj/../Libraries/seekfree_libraries/zf_camera.c:97

    TIM_TimeBaseStructure.TIM_Period = 0xFFFF;
    2dcc:	57fd                	li	a5,-1
    2dce:	fef41423          	sh	a5,-24(s0)
D:\Car\sure code\slave_school\obj/../Libraries/seekfree_libraries/zf_camera.c:98
    TIM_TimeBaseStructure.TIM_Prescaler = 0;
    2dd2:	fe041223          	sh	zero,-28(s0)
D:\Car\sure code\slave_school\obj/../Libraries/seekfree_libraries/zf_camera.c:99
    TIM_TimeBaseStructure.TIM_ClockDivision = TIM_CKD_DIV1;
    2dd6:	fe041523          	sh	zero,-22(s0)
D:\Car\sure code\slave_school\obj/../Libraries/seekfree_libraries/zf_camera.c:100
    TIM_TimeBaseStructure.TIM_CounterMode = TIM_CounterMode_Up;
    2dda:	fe041323          	sh	zero,-26(s0)
D:\Car\sure code\slave_school\obj/../Libraries/seekfree_libraries/zf_camera.c:101
    TIM_TimeBaseStructure.TIM_RepetitionCounter = 0;
    2dde:	fe040623          	sb	zero,-20(s0)
D:\Car\sure code\slave_school\obj/../Libraries/seekfree_libraries/zf_camera.c:102
    TIM_TimeBaseInit((TIM_TypeDef*)(TIMERN[timern]), &TIM_TimeBaseStructure);
    2de2:	6795                	lui	a5,0x5
    2de4:	fdc42703          	lw	a4,-36(s0)
    2de8:	070a                	slli	a4,a4,0x2
    2dea:	6b078793          	addi	a5,a5,1712 # 56b0 <TIMERN>
    2dee:	97ba                	add	a5,a5,a4
    2df0:	439c                	lw	a5,0(a5)
    2df2:	873e                	mv	a4,a5
    2df4:	fe440793          	addi	a5,s0,-28
    2df8:	85be                	mv	a1,a5
    2dfa:	853a                	mv	a0,a4
    2dfc:	e73fe0ef          	jal	ra,1c6e <TIM_TimeBaseInit>
D:\Car\sure code\slave_school\obj/../Libraries/seekfree_libraries/zf_camera.c:104

    TIM_ETRClockMode1Config((TIM_TypeDef*)(TIMERN[timern]), TIM_ExtTRGPSC_OFF, TIM_ExtTRGPolarity_Inverted, 0x00);
    2e00:	6795                	lui	a5,0x5
    2e02:	fdc42703          	lw	a4,-36(s0)
    2e06:	070a                	slli	a4,a4,0x2
    2e08:	6b078793          	addi	a5,a5,1712 # 56b0 <TIMERN>
    2e0c:	97ba                	add	a5,a5,a4
    2e0e:	439c                	lw	a5,0(a5)
    2e10:	4681                	li	a3,0
    2e12:	6621                	lui	a2,0x8
    2e14:	4581                	li	a1,0
    2e16:	853e                	mv	a0,a5
    2e18:	8c4ff0ef          	jal	ra,1edc <TIM_ETRClockMode1Config>
D:\Car\sure code\slave_school\obj/../Libraries/seekfree_libraries/zf_camera.c:105
    TIM_SelectInputTrigger((TIM_TypeDef*)(TIMERN[timern]), TIM_TS_ETRF);
    2e1c:	6795                	lui	a5,0x5
    2e1e:	fdc42703          	lw	a4,-36(s0)
    2e22:	070a                	slli	a4,a4,0x2
    2e24:	6b078793          	addi	a5,a5,1712 # 56b0 <TIMERN>
    2e28:	97ba                	add	a5,a5,a4
    2e2a:	439c                	lw	a5,0(a5)
    2e2c:	07000593          	li	a1,112
    2e30:	853e                	mv	a0,a5
    2e32:	9b0ff0ef          	jal	ra,1fe2 <TIM_SelectInputTrigger>
D:\Car\sure code\slave_school\obj/../Libraries/seekfree_libraries/zf_camera.c:106
    TIM_SelectSlaveMode((TIM_TypeDef*)(TIMERN[timern]), TIM_SlaveMode_Reset);                   //TIM从模式：触发信号的上升沿重新初始化计数器和触发寄存器的更新事件
    2e36:	6795                	lui	a5,0x5
    2e38:	fdc42703          	lw	a4,-36(s0)
    2e3c:	070a                	slli	a4,a4,0x2
    2e3e:	6b078793          	addi	a5,a5,1712 # 56b0 <TIMERN>
    2e42:	97ba                	add	a5,a5,a4
    2e44:	439c                	lw	a5,0(a5)
    2e46:	4591                	li	a1,4
    2e48:	853e                	mv	a0,a5
    2e4a:	abeff0ef          	jal	ra,2108 <TIM_SelectSlaveMode>
D:\Car\sure code\slave_school\obj/../Libraries/seekfree_libraries/zf_camera.c:107
    TIM_SelectMasterSlaveMode((TIM_TypeDef*)(TIMERN[timern]), TIM_MasterSlaveMode_Enable);      //启动定时器的被动触发
    2e4e:	6795                	lui	a5,0x5
    2e50:	fdc42703          	lw	a4,-36(s0)
    2e54:	070a                	slli	a4,a4,0x2
    2e56:	6b078793          	addi	a5,a5,1712 # 56b0 <TIMERN>
    2e5a:	97ba                	add	a5,a5,a4
    2e5c:	439c                	lw	a5,0(a5)
    2e5e:	08000593          	li	a1,128
    2e62:	853e                	mv	a0,a5
    2e64:	afaff0ef          	jal	ra,215e <TIM_SelectMasterSlaveMode>
D:\Car\sure code\slave_school\obj/../Libraries/seekfree_libraries/zf_camera.c:109

    TIM_Cmd((TIM_TypeDef*)(TIMERN[timern]), ENABLE);
    2e68:	6795                	lui	a5,0x5
    2e6a:	fdc42703          	lw	a4,-36(s0)
    2e6e:	070a                	slli	a4,a4,0x2
    2e70:	6b078793          	addi	a5,a5,1712 # 56b0 <TIMERN>
    2e74:	97ba                	add	a5,a5,a4
    2e76:	439c                	lw	a5,0(a5)
    2e78:	4585                	li	a1,1
    2e7a:	853e                	mv	a0,a5
    2e7c:	f29fe0ef          	jal	ra,1da4 <TIM_Cmd>
D:\Car\sure code\slave_school\obj/../Libraries/seekfree_libraries/zf_camera.c:110
    TIM_DMACmd((TIM_TypeDef*)(TIMERN[timern]), TIM_DMA_Trigger, ENABLE);                        //使能TIM_DMA
    2e80:	6795                	lui	a5,0x5
    2e82:	fdc42703          	lw	a4,-36(s0)
    2e86:	070a                	slli	a4,a4,0x2
    2e88:	6b078793          	addi	a5,a5,1712 # 56b0 <TIMERN>
    2e8c:	97ba                	add	a5,a5,a4
    2e8e:	439c                	lw	a5,0(a5)
    2e90:	4605                	li	a2,1
    2e92:	6591                	lui	a1,0x4
    2e94:	853e                	mv	a0,a5
    2e96:	fd7fe0ef          	jal	ra,1e6c <TIM_DMACmd>
D:\Car\sure code\slave_school\obj/../Libraries/seekfree_libraries/zf_camera.c:111
}
    2e9a:	0001                	nop
    2e9c:	50b2                	lw	ra,44(sp)
    2e9e:	5422                	lw	s0,40(sp)
    2ea0:	6145                	addi	sp,sp,48
    2ea2:	8082                	ret

00002ea4 <gpio_init>:
gpio_init():
D:\Car\sure code\slave_school\obj/../Libraries/seekfree_libraries/zf_gpio.c:40
//  @param      pinconf     引脚配置（可设置参数由zf_gpio.h文件内GPIOSPEED_enum与GPIOMODE_enum枚举值确定，多个条件使用 | 相或）
//  @return     void
//  Sample usage:           gpio_init(D0, GPO, 1, GPIO_PIN_CONFIG);//D0初始化为GPIO功能、输出模式、输出高电平、速度100MHZ 推挽输出
//-------------------------------------------------------------------------------------------------------------------
void gpio_init(PIN_enum pin, GPIODIR_enum dir, uint8 dat, uint32 pinconf)
{
    2ea4:	7179                	addi	sp,sp,-48
    2ea6:	d606                	sw	ra,44(sp)
    2ea8:	d422                	sw	s0,40(sp)
    2eaa:	1800                	addi	s0,sp,48
    2eac:	fca42e23          	sw	a0,-36(s0)
    2eb0:	fcb42c23          	sw	a1,-40(s0)
    2eb4:	87b2                	mv	a5,a2
    2eb6:	fcd42823          	sw	a3,-48(s0)
    2eba:	fcf40ba3          	sb	a5,-41(s0)
D:\Car\sure code\slave_school\obj/../Libraries/seekfree_libraries/zf_gpio.c:42
    GPIO_InitTypeDef GPIO_InitStructure;
    uint8 io_group = (pin & 0xE0) >> 5;
    2ebe:	fdc42783          	lw	a5,-36(s0)
    2ec2:	8395                	srli	a5,a5,0x5
    2ec4:	0ff7f793          	andi	a5,a5,255
    2ec8:	8b9d                	andi	a5,a5,7
    2eca:	fef407a3          	sb	a5,-17(s0)
D:\Car\sure code\slave_school\obj/../Libraries/seekfree_libraries/zf_gpio.c:43
    uint8 io_pin = pin & 0x1F;
    2ece:	fdc42783          	lw	a5,-36(s0)
    2ed2:	0ff7f793          	andi	a5,a5,255
    2ed6:	8bfd                	andi	a5,a5,31
    2ed8:	fef40723          	sb	a5,-18(s0)
D:\Car\sure code\slave_school\obj/../Libraries/seekfree_libraries/zf_gpio.c:46


    if(PIN_NULL == pin) return;
    2edc:	fdc42703          	lw	a4,-36(s0)
    2ee0:	08000793          	li	a5,128
    2ee4:	14f70d63          	beq	a4,a5,303e <gpio_init+0x19a>
D:\Car\sure code\slave_school\obj/../Libraries/seekfree_libraries/zf_gpio.c:48
    //GPIO总线使能
    if(0 == (pin >> 5))      RCC_APB2PeriphClockCmd(RCC_APB2Periph_GPIOA, ENABLE);
    2ee8:	fdc42783          	lw	a5,-36(s0)
    2eec:	8395                	srli	a5,a5,0x5
    2eee:	e791                	bnez	a5,2efa <gpio_init+0x56>
D:\Car\sure code\slave_school\obj/../Libraries/seekfree_libraries/zf_gpio.c:48 (discriminator 1)
    2ef0:	4585                	li	a1,1
    2ef2:	4511                	li	a0,4
    2ef4:	ceffe0ef          	jal	ra,1be2 <RCC_APB2PeriphClockCmd>
    2ef8:	a861                	j	2f90 <gpio_init+0xec>
D:\Car\sure code\slave_school\obj/../Libraries/seekfree_libraries/zf_gpio.c:49
    else if(1 == (pin >> 5)) RCC_APB2PeriphClockCmd(RCC_APB2Periph_GPIOB, ENABLE);
    2efa:	fdc42783          	lw	a5,-36(s0)
    2efe:	0057d713          	srli	a4,a5,0x5
    2f02:	4785                	li	a5,1
    2f04:	00f71763          	bne	a4,a5,2f12 <gpio_init+0x6e>
D:\Car\sure code\slave_school\obj/../Libraries/seekfree_libraries/zf_gpio.c:49 (discriminator 1)
    2f08:	4585                	li	a1,1
    2f0a:	4521                	li	a0,8
    2f0c:	cd7fe0ef          	jal	ra,1be2 <RCC_APB2PeriphClockCmd>
    2f10:	a041                	j	2f90 <gpio_init+0xec>
D:\Car\sure code\slave_school\obj/../Libraries/seekfree_libraries/zf_gpio.c:50
    else if(2 == (pin >> 5)) RCC_APB2PeriphClockCmd(RCC_APB2Periph_GPIOC, ENABLE);
    2f12:	fdc42783          	lw	a5,-36(s0)
    2f16:	0057d713          	srli	a4,a5,0x5
    2f1a:	4789                	li	a5,2
    2f1c:	00f71763          	bne	a4,a5,2f2a <gpio_init+0x86>
D:\Car\sure code\slave_school\obj/../Libraries/seekfree_libraries/zf_gpio.c:50 (discriminator 1)
    2f20:	4585                	li	a1,1
    2f22:	4541                	li	a0,16
    2f24:	cbffe0ef          	jal	ra,1be2 <RCC_APB2PeriphClockCmd>
    2f28:	a0a5                	j	2f90 <gpio_init+0xec>
D:\Car\sure code\slave_school\obj/../Libraries/seekfree_libraries/zf_gpio.c:51
    else if(3 == (pin >> 5)) RCC_APB2PeriphClockCmd(RCC_APB2Periph_GPIOD, ENABLE);
    2f2a:	fdc42783          	lw	a5,-36(s0)
    2f2e:	0057d713          	srli	a4,a5,0x5
    2f32:	478d                	li	a5,3
    2f34:	00f71863          	bne	a4,a5,2f44 <gpio_init+0xa0>
D:\Car\sure code\slave_school\obj/../Libraries/seekfree_libraries/zf_gpio.c:51 (discriminator 1)
    2f38:	4585                	li	a1,1
    2f3a:	02000513          	li	a0,32
    2f3e:	ca5fe0ef          	jal	ra,1be2 <RCC_APB2PeriphClockCmd>
    2f42:	a0b9                	j	2f90 <gpio_init+0xec>
D:\Car\sure code\slave_school\obj/../Libraries/seekfree_libraries/zf_gpio.c:52
    else if(4 == (pin >> 5)) RCC_APB2PeriphClockCmd(RCC_APB2Periph_GPIOE, ENABLE);
    2f44:	fdc42783          	lw	a5,-36(s0)
    2f48:	0057d713          	srli	a4,a5,0x5
    2f4c:	4791                	li	a5,4
    2f4e:	00f71863          	bne	a4,a5,2f5e <gpio_init+0xba>
D:\Car\sure code\slave_school\obj/../Libraries/seekfree_libraries/zf_gpio.c:52 (discriminator 1)
    2f52:	4585                	li	a1,1
    2f54:	04000513          	li	a0,64
    2f58:	c8bfe0ef          	jal	ra,1be2 <RCC_APB2PeriphClockCmd>
    2f5c:	a815                	j	2f90 <gpio_init+0xec>
D:\Car\sure code\slave_school\obj/../Libraries/seekfree_libraries/zf_gpio.c:53
    else if(5 == (pin >> 5)) RCC_APB2PeriphClockCmd(RCC_APB2Periph_GPIOF, ENABLE);
    2f5e:	fdc42783          	lw	a5,-36(s0)
    2f62:	0057d713          	srli	a4,a5,0x5
    2f66:	4795                	li	a5,5
    2f68:	00f71863          	bne	a4,a5,2f78 <gpio_init+0xd4>
D:\Car\sure code\slave_school\obj/../Libraries/seekfree_libraries/zf_gpio.c:53 (discriminator 1)
    2f6c:	4585                	li	a1,1
    2f6e:	08000513          	li	a0,128
    2f72:	c71fe0ef          	jal	ra,1be2 <RCC_APB2PeriphClockCmd>
    2f76:	a829                	j	2f90 <gpio_init+0xec>
D:\Car\sure code\slave_school\obj/../Libraries/seekfree_libraries/zf_gpio.c:54
    else if(6 == (pin >> 5)) RCC_APB2PeriphClockCmd(RCC_APB2Periph_GPIOG, ENABLE);
    2f78:	fdc42783          	lw	a5,-36(s0)
    2f7c:	0057d713          	srli	a4,a5,0x5
    2f80:	4799                	li	a5,6
    2f82:	00f71763          	bne	a4,a5,2f90 <gpio_init+0xec>
D:\Car\sure code\slave_school\obj/../Libraries/seekfree_libraries/zf_gpio.c:54 (discriminator 1)
    2f86:	4585                	li	a1,1
    2f88:	10000513          	li	a0,256
    2f8c:	c57fe0ef          	jal	ra,1be2 <RCC_APB2PeriphClockCmd>
D:\Car\sure code\slave_school\obj/../Libraries/seekfree_libraries/zf_gpio.c:58


    //设置引脚号
    GPIO_InitStructure.GPIO_Pin = (uint16)(1 << io_pin);
    2f90:	fee44783          	lbu	a5,-18(s0)
    2f94:	4705                	li	a4,1
    2f96:	00f717b3          	sll	a5,a4,a5
    2f9a:	07c2                	slli	a5,a5,0x10
    2f9c:	83c1                	srli	a5,a5,0x10
    2f9e:	fef41023          	sh	a5,-32(s0)
D:\Car\sure code\slave_school\obj/../Libraries/seekfree_libraries/zf_gpio.c:60

    if(GPO == dir)
    2fa2:	fd842703          	lw	a4,-40(s0)
    2fa6:	4785                	li	a5,1
    2fa8:	02f71763          	bne	a4,a5,2fd6 <gpio_init+0x132>
D:\Car\sure code\slave_school\obj/../Libraries/seekfree_libraries/zf_gpio.c:63
    {
        //只有输出需要设置速度
        if((uint16)pinconf >> 8 == 0) GPIO_InitStructure.GPIO_Speed = (GPIOSpeed_TypeDef)(GPIO_Speed_50MHz);  //防止没有填写这个参数,默认设置50Mhz
    2fac:	fd042783          	lw	a5,-48(s0)
    2fb0:	07c2                	slli	a5,a5,0x10
    2fb2:	83c1                	srli	a5,a5,0x10
    2fb4:	83a1                	srli	a5,a5,0x8
    2fb6:	07c2                	slli	a5,a5,0x10
    2fb8:	83c1                	srli	a5,a5,0x10
    2fba:	e789                	bnez	a5,2fc4 <gpio_init+0x120>
D:\Car\sure code\slave_school\obj/../Libraries/seekfree_libraries/zf_gpio.c:63 (discriminator 1)
    2fbc:	478d                	li	a5,3
    2fbe:	fef42223          	sw	a5,-28(s0)
    2fc2:	a811                	j	2fd6 <gpio_init+0x132>
D:\Car\sure code\slave_school\obj/../Libraries/seekfree_libraries/zf_gpio.c:64
        else GPIO_InitStructure.GPIO_Speed = (GPIOSpeed_TypeDef)((uint16)pinconf >> 8);                       //已经填写了该参数。根据值来设置
    2fc4:	fd042783          	lw	a5,-48(s0)
    2fc8:	07c2                	slli	a5,a5,0x10
    2fca:	83c1                	srli	a5,a5,0x10
    2fcc:	83a1                	srli	a5,a5,0x8
    2fce:	07c2                	slli	a5,a5,0x10
    2fd0:	83c1                	srli	a5,a5,0x10
    2fd2:	fef42223          	sw	a5,-28(s0)
D:\Car\sure code\slave_school\obj/../Libraries/seekfree_libraries/zf_gpio.c:68
    }

    //设置模式
    GPIO_InitStructure.GPIO_Mode = (GPIOMode_TypeDef)((uint16)pinconf & 0xff);
    2fd6:	fd042783          	lw	a5,-48(s0)
    2fda:	07c2                	slli	a5,a5,0x10
    2fdc:	83c1                	srli	a5,a5,0x10
    2fde:	0ff7f793          	andi	a5,a5,255
    2fe2:	fef42423          	sw	a5,-24(s0)
D:\Car\sure code\slave_school\obj/../Libraries/seekfree_libraries/zf_gpio.c:69
    GPIO_Init((GPIO_TypeDef *)(GPION[io_group]), &GPIO_InitStructure);
    2fe6:	fef44703          	lbu	a4,-17(s0)
    2fea:	6795                	lui	a5,0x5
    2fec:	070a                	slli	a4,a4,0x2
    2fee:	68878793          	addi	a5,a5,1672 # 5688 <GPION>
    2ff2:	97ba                	add	a5,a5,a4
    2ff4:	439c                	lw	a5,0(a5)
    2ff6:	873e                	mv	a4,a5
    2ff8:	fe040793          	addi	a5,s0,-32
    2ffc:	85be                	mv	a1,a5
    2ffe:	853a                	mv	a0,a4
    3000:	bf0fe0ef          	jal	ra,13f0 <GPIO_Init>
D:\Car\sure code\slave_school\obj/../Libraries/seekfree_libraries/zf_gpio.c:71

    if(GPO == dir)
    3004:	fd842703          	lw	a4,-40(s0)
    3008:	4785                	li	a5,1
    300a:	02f71b63          	bne	a4,a5,3040 <gpio_init+0x19c>
D:\Car\sure code\slave_school\obj/../Libraries/seekfree_libraries/zf_gpio.c:74
    {
        //只有输出需要设置引脚状态
        GPIO_WriteBit((GPIO_TypeDef *)(GPION[io_group]), (uint16)(1 << io_pin), dat);
    300e:	fef44703          	lbu	a4,-17(s0)
    3012:	6795                	lui	a5,0x5
    3014:	070a                	slli	a4,a4,0x2
    3016:	68878793          	addi	a5,a5,1672 # 5688 <GPION>
    301a:	97ba                	add	a5,a5,a4
    301c:	439c                	lw	a5,0(a5)
    301e:	86be                	mv	a3,a5
    3020:	fee44783          	lbu	a5,-18(s0)
    3024:	4705                	li	a4,1
    3026:	00f717b3          	sll	a5,a4,a5
    302a:	07c2                	slli	a5,a5,0x10
    302c:	83c1                	srli	a5,a5,0x10
    302e:	fd744703          	lbu	a4,-41(s0)
    3032:	863a                	mv	a2,a4
    3034:	85be                	mv	a1,a5
    3036:	8536                	mv	a0,a3
    3038:	de2fe0ef          	jal	ra,161a <GPIO_WriteBit>
    303c:	a011                	j	3040 <gpio_init+0x19c>
D:\Car\sure code\slave_school\obj/../Libraries/seekfree_libraries/zf_gpio.c:46
    if(PIN_NULL == pin) return;
    303e:	0001                	nop
D:\Car\sure code\slave_school\obj/../Libraries/seekfree_libraries/zf_gpio.c:76
    }
}
    3040:	50b2                	lw	ra,44(sp)
    3042:	5422                	lw	s0,40(sp)
    3044:	6145                	addi	sp,sp,48
    3046:	8082                	ret

00003048 <gpio_set>:
gpio_set():
D:\Car\sure code\slave_school\obj/../Libraries/seekfree_libraries/zf_gpio.c:86
//  @param      dat         引脚的电平状态，输出时有效 0：低电平 1：高电平
//  @return     void
//  Sample usage:           gpio_set(D0, 0);//D0输出低电平
//-------------------------------------------------------------------------------------------------------------------
void gpio_set(PIN_enum pin, uint8 dat)
{
    3048:	7179                	addi	sp,sp,-48
    304a:	d622                	sw	s0,44(sp)
    304c:	1800                	addi	s0,sp,48
    304e:	fca42e23          	sw	a0,-36(s0)
    3052:	87ae                	mv	a5,a1
    3054:	fcf40da3          	sb	a5,-37(s0)
D:\Car\sure code\slave_school\obj/../Libraries/seekfree_libraries/zf_gpio.c:87
    uint8 io_group = (pin & 0xE0) >> 5;
    3058:	fdc42783          	lw	a5,-36(s0)
    305c:	8395                	srli	a5,a5,0x5
    305e:	0ff7f793          	andi	a5,a5,255
    3062:	8b9d                	andi	a5,a5,7
    3064:	fef407a3          	sb	a5,-17(s0)
D:\Car\sure code\slave_school\obj/../Libraries/seekfree_libraries/zf_gpio.c:88
    uint8 io_pin = pin & 0x1F;
    3068:	fdc42783          	lw	a5,-36(s0)
    306c:	0ff7f793          	andi	a5,a5,255
    3070:	8bfd                	andi	a5,a5,31
    3072:	fef40723          	sb	a5,-18(s0)
D:\Car\sure code\slave_school\obj/../Libraries/seekfree_libraries/zf_gpio.c:90

    if (dat == 1)
    3076:	fdb44703          	lbu	a4,-37(s0)
    307a:	4785                	li	a5,1
    307c:	02f71263          	bne	a4,a5,30a0 <gpio_set+0x58>
D:\Car\sure code\slave_school\obj/../Libraries/seekfree_libraries/zf_gpio.c:91
         ((GPIO_TypeDef *)(GPION[io_group]))->BSHR = 1 << io_pin;
    3080:	fee44783          	lbu	a5,-18(s0)
    3084:	4705                	li	a4,1
    3086:	00f716b3          	sll	a3,a4,a5
    308a:	fef44703          	lbu	a4,-17(s0)
    308e:	6795                	lui	a5,0x5
    3090:	070a                	slli	a4,a4,0x2
    3092:	68878793          	addi	a5,a5,1672 # 5688 <GPION>
    3096:	97ba                	add	a5,a5,a4
    3098:	439c                	lw	a5,0(a5)
    309a:	8736                	mv	a4,a3
    309c:	cb98                	sw	a4,16(a5)
D:\Car\sure code\slave_school\obj/../Libraries/seekfree_libraries/zf_gpio.c:94
    else
         ((GPIO_TypeDef *)(GPION[io_group]))->BCR = 1 << io_pin;
}
    309e:	a005                	j	30be <gpio_set+0x76>
D:\Car\sure code\slave_school\obj/../Libraries/seekfree_libraries/zf_gpio.c:93
         ((GPIO_TypeDef *)(GPION[io_group]))->BCR = 1 << io_pin;
    30a0:	fee44783          	lbu	a5,-18(s0)
    30a4:	4705                	li	a4,1
    30a6:	00f716b3          	sll	a3,a4,a5
    30aa:	fef44703          	lbu	a4,-17(s0)
    30ae:	6795                	lui	a5,0x5
    30b0:	070a                	slli	a4,a4,0x2
    30b2:	68878793          	addi	a5,a5,1672 # 5688 <GPION>
    30b6:	97ba                	add	a5,a5,a4
    30b8:	439c                	lw	a5,0(a5)
    30ba:	8736                	mv	a4,a3
    30bc:	cbd8                	sw	a4,20(a5)
D:\Car\sure code\slave_school\obj/../Libraries/seekfree_libraries/zf_gpio.c:94
}
    30be:	0001                	nop
    30c0:	5432                	lw	s0,44(sp)
    30c2:	6145                	addi	sp,sp,48
    30c4:	8082                	ret

000030c6 <gpio_get>:
gpio_get():
D:\Car\sure code\slave_school\obj/../Libraries/seekfree_libraries/zf_gpio.c:103
//  @param      pin         选择的引脚 (可选择范围由 common.h 内PIN_enum枚举值确定)
//  @return     uint8       0：低电平 1：高电平
//  Sample usage:           uint8 status = gpio_get(D0);//获取D0引脚电平
//-------------------------------------------------------------------------------------------------------------------
uint8 gpio_get(PIN_enum pin)
{
    30c6:	7179                	addi	sp,sp,-48
    30c8:	d622                	sw	s0,44(sp)
    30ca:	1800                	addi	s0,sp,48
    30cc:	fca42e23          	sw	a0,-36(s0)
D:\Car\sure code\slave_school\obj/../Libraries/seekfree_libraries/zf_gpio.c:104
    uint8 io_group = (pin & 0xE0) >> 5;
    30d0:	fdc42783          	lw	a5,-36(s0)
    30d4:	8395                	srli	a5,a5,0x5
    30d6:	0ff7f793          	andi	a5,a5,255
    30da:	8b9d                	andi	a5,a5,7
    30dc:	fef407a3          	sb	a5,-17(s0)
D:\Car\sure code\slave_school\obj/../Libraries/seekfree_libraries/zf_gpio.c:105
    uint8 io_pin = pin & 0x1F;
    30e0:	fdc42783          	lw	a5,-36(s0)
    30e4:	0ff7f793          	andi	a5,a5,255
    30e8:	8bfd                	andi	a5,a5,31
    30ea:	fef40723          	sb	a5,-18(s0)
D:\Car\sure code\slave_school\obj/../Libraries/seekfree_libraries/zf_gpio.c:107

    if((((GPIO_TypeDef *)(GPION[io_group]))->INDR & (1 << io_pin)) != 0)
    30ee:	fef44703          	lbu	a4,-17(s0)
    30f2:	6795                	lui	a5,0x5
    30f4:	070a                	slli	a4,a4,0x2
    30f6:	68878793          	addi	a5,a5,1672 # 5688 <GPION>
    30fa:	97ba                	add	a5,a5,a4
    30fc:	439c                	lw	a5,0(a5)
    30fe:	479c                	lw	a5,8(a5)
    3100:	fee44703          	lbu	a4,-18(s0)
    3104:	4685                	li	a3,1
    3106:	00e69733          	sll	a4,a3,a4
    310a:	8ff9                	and	a5,a5,a4
    310c:	c399                	beqz	a5,3112 <gpio_get+0x4c>
D:\Car\sure code\slave_school\obj/../Libraries/seekfree_libraries/zf_gpio.c:109
    {
        return 1;
    310e:	4785                	li	a5,1
    3110:	a011                	j	3114 <gpio_get+0x4e>
D:\Car\sure code\slave_school\obj/../Libraries/seekfree_libraries/zf_gpio.c:111
    }
    return 0;
    3112:	4781                	li	a5,0
D:\Car\sure code\slave_school\obj/../Libraries/seekfree_libraries/zf_gpio.c:114


}
    3114:	853e                	mv	a0,a5
    3116:	5432                	lw	s0,44(sp)
    3118:	6145                	addi	sp,sp,48
    311a:	8082                	ret

0000311c <gpio_interrupt_init>:
gpio_interrupt_init():
D:\Car\sure code\slave_school\obj/../Libraries/seekfree_libraries/zf_gpio.c:141
//  @param      trigger     中断触发方式 选择范围参见h文件TRIGGER_enum枚举
//  @return     void
//  Sample usage:           gpio_interrupt_init(D0, RISING, GPIO_INT_CONFIG);//D0上升沿中断
//-------------------------------------------------------------------------------------------------------------------
void gpio_interrupt_init(PIN_enum pin,TRIGGER_enum trigger, uint32 pinconf)
{
    311c:	7179                	addi	sp,sp,-48
    311e:	d606                	sw	ra,44(sp)
    3120:	d422                	sw	s0,40(sp)
    3122:	1800                	addi	s0,sp,48
    3124:	fca42e23          	sw	a0,-36(s0)
    3128:	fcb42c23          	sw	a1,-40(s0)
    312c:	fcc42a23          	sw	a2,-44(s0)
D:\Car\sure code\slave_school\obj/../Libraries/seekfree_libraries/zf_gpio.c:143
    EXTI_InitTypeDef EXTI_InitStructure;
    RCC_APB2PeriphClockCmd(RCC_APB2Periph_AFIO,ENABLE);
    3130:	4585                	li	a1,1
    3132:	4505                	li	a0,1
    3134:	aaffe0ef          	jal	ra,1be2 <RCC_APB2PeriphClockCmd>
D:\Car\sure code\slave_school\obj/../Libraries/seekfree_libraries/zf_gpio.c:144
    gpio_init(pin, GPI, 0, pinconf);
    3138:	fd442683          	lw	a3,-44(s0)
    313c:	4601                	li	a2,0
    313e:	4581                	li	a1,0
    3140:	fdc42503          	lw	a0,-36(s0)
    3144:	3385                	jal	2ea4 <gpio_init>
D:\Car\sure code\slave_school\obj/../Libraries/seekfree_libraries/zf_gpio.c:145
    GPIO_EXTILineConfig(pin >> 5, pin & 0x1F);              //引脚中断号配置
    3146:	fdc42783          	lw	a5,-36(s0)
    314a:	8395                	srli	a5,a5,0x5
    314c:	0ff7f713          	andi	a4,a5,255
    3150:	fdc42783          	lw	a5,-36(s0)
    3154:	0ff7f793          	andi	a5,a5,255
    3158:	8bfd                	andi	a5,a5,31
    315a:	0ff7f793          	andi	a5,a5,255
    315e:	85be                	mv	a1,a5
    3160:	853a                	mv	a0,a4
    3162:	e2cfe0ef          	jal	ra,178e <GPIO_EXTILineConfig>
D:\Car\sure code\slave_school\obj/../Libraries/seekfree_libraries/zf_gpio.c:146
    EXTI_InitStructure.EXTI_Line = 1 << (pin & 0x1F);       //引脚号配置
    3166:	fdc42783          	lw	a5,-36(s0)
    316a:	8bfd                	andi	a5,a5,31
    316c:	4705                	li	a4,1
    316e:	00f717b3          	sll	a5,a4,a5
    3172:	fef42023          	sw	a5,-32(s0)
D:\Car\sure code\slave_school\obj/../Libraries/seekfree_libraries/zf_gpio.c:147
    EXTI_InitStructure.EXTI_Mode = EXTI_Mode_Interrupt;     //触发模式
    3176:	fe042223          	sw	zero,-28(s0)
D:\Car\sure code\slave_school\obj/../Libraries/seekfree_libraries/zf_gpio.c:148
    EXTI_InitStructure.EXTI_Trigger = trigger;              //触发方式
    317a:	fd842783          	lw	a5,-40(s0)
    317e:	fef42423          	sw	a5,-24(s0)
D:\Car\sure code\slave_school\obj/../Libraries/seekfree_libraries/zf_gpio.c:149
    EXTI_InitStructure.EXTI_LineCmd = ENABLE;               //使能或者失能
    3182:	4785                	li	a5,1
    3184:	fef42623          	sw	a5,-20(s0)
D:\Car\sure code\slave_school\obj/../Libraries/seekfree_libraries/zf_gpio.c:150
    EXTI_Init(&EXTI_InitStructure);
    3188:	fe040793          	addi	a5,s0,-32
    318c:	853e                	mv	a0,a5
    318e:	87cfe0ef          	jal	ra,120a <EXTI_Init>
D:\Car\sure code\slave_school\obj/../Libraries/seekfree_libraries/zf_gpio.c:151
}
    3192:	0001                	nop
    3194:	50b2                	lw	ra,44(sp)
    3196:	5422                	lw	s0,40(sp)
    3198:	6145                	addi	sp,sp,48
    319a:	8082                	ret

0000319c <nvic_init>:
nvic_init():
D:\Car\sure code\slave_school\obj/../Libraries/seekfree_libraries/zf_nvic.c:38
//  @param      status                      使能或者失能
//  @return     void
//  Sample usage:                           nvic_init(EXTI0_IRQn,0, 0, ENABLE); //外部中断0使能,抢占优先级最高，次优先级最高。
//-------------------------------------------------------------------------------------------------------------------
void nvic_init(IRQn_Type irqn,uint8 preemption_priority, uint8 sub_priority,uint8 status)
{
    319c:	7179                	addi	sp,sp,-48
    319e:	d606                	sw	ra,44(sp)
    31a0:	d422                	sw	s0,40(sp)
    31a2:	1800                	addi	s0,sp,48
    31a4:	fca42e23          	sw	a0,-36(s0)
    31a8:	87ae                	mv	a5,a1
    31aa:	8736                	mv	a4,a3
    31ac:	fcf40da3          	sb	a5,-37(s0)
    31b0:	87b2                	mv	a5,a2
    31b2:	fcf40d23          	sb	a5,-38(s0)
    31b6:	87ba                	mv	a5,a4
    31b8:	fcf40ca3          	sb	a5,-39(s0)
D:\Car\sure code\slave_school\obj/../Libraries/seekfree_libraries/zf_nvic.c:41
    NVIC_InitTypeDef NVIC_InitStructure;

    NVIC_InitStructure.NVIC_IRQChannel = irqn;                                  //中断号设置
    31bc:	fdc42783          	lw	a5,-36(s0)
    31c0:	0ff7f793          	andi	a5,a5,255
    31c4:	fef40423          	sb	a5,-24(s0)
D:\Car\sure code\slave_school\obj/../Libraries/seekfree_libraries/zf_nvic.c:42
    NVIC_InitStructure.NVIC_IRQChannelPreemptionPriority=preemption_priority;   //抢占优先级值越小，优先级越高
    31c8:	fdb44783          	lbu	a5,-37(s0)
    31cc:	fef404a3          	sb	a5,-23(s0)
D:\Car\sure code\slave_school\obj/../Libraries/seekfree_libraries/zf_nvic.c:43
    NVIC_InitStructure.NVIC_IRQChannelSubPriority = sub_priority;               //次优先级值越小，优先级越高
    31d0:	fda44783          	lbu	a5,-38(s0)
    31d4:	fef40523          	sb	a5,-22(s0)
D:\Car\sure code\slave_school\obj/../Libraries/seekfree_libraries/zf_nvic.c:44
    NVIC_InitStructure.NVIC_IRQChannelCmd = status;                             //使能
    31d8:	fd944783          	lbu	a5,-39(s0)
    31dc:	fef42623          	sw	a5,-20(s0)
D:\Car\sure code\slave_school\obj/../Libraries/seekfree_libraries/zf_nvic.c:45
    NVIC_Init(&NVIC_InitStructure);
    31e0:	fe840793          	addi	a5,s0,-24
    31e4:	853e                	mv	a0,a5
    31e6:	ed8fe0ef          	jal	ra,18be <NVIC_Init>
D:\Car\sure code\slave_school\obj/../Libraries/seekfree_libraries/zf_nvic.c:48

    //保存状态值
    irq_status.ienr0 |= (PFIC->ISR[0] & 0xFFFFF000);    //[31:12]
    31ea:	e000e7b7          	lui	a5,0xe000e
    31ee:	4398                	lw	a4,0(a5)
    31f0:	77fd                	lui	a5,0xfffff
    31f2:	8f7d                	and	a4,a4,a5
    31f4:	200027b7          	lui	a5,0x20002
    31f8:	6947a783          	lw	a5,1684(a5) # 20002694 <irq_status>
    31fc:	8f5d                	or	a4,a4,a5
    31fe:	200027b7          	lui	a5,0x20002
    3202:	68e7aa23          	sw	a4,1684(a5) # 20002694 <irq_status>
D:\Car\sure code\slave_school\obj/../Libraries/seekfree_libraries/zf_nvic.c:49
    irq_status.ienr1 |= (PFIC->ISR[1] & 0x0FFFFFFF);    //[27:0]
    3206:	e000e7b7          	lui	a5,0xe000e
    320a:	43d8                	lw	a4,4(a5)
    320c:	100007b7          	lui	a5,0x10000
    3210:	17fd                	addi	a5,a5,-1
    3212:	8f7d                	and	a4,a4,a5
    3214:	200027b7          	lui	a5,0x20002
    3218:	69478793          	addi	a5,a5,1684 # 20002694 <irq_status>
    321c:	43dc                	lw	a5,4(a5)
    321e:	8f5d                	or	a4,a4,a5
    3220:	200027b7          	lui	a5,0x20002
    3224:	69478793          	addi	a5,a5,1684 # 20002694 <irq_status>
    3228:	c3d8                	sw	a4,4(a5)
D:\Car\sure code\slave_school\obj/../Libraries/seekfree_libraries/zf_nvic.c:50
    if(irq_status.flag == 1)
    322a:	200027b7          	lui	a5,0x20002
    322e:	69478793          	addi	a5,a5,1684 # 20002694 <irq_status>
    3232:	0087c703          	lbu	a4,8(a5)
    3236:	4785                	li	a5,1
    3238:	00f71363          	bne	a4,a5,323e <nvic_init+0xa2>
D:\Car\sure code\slave_school\obj/../Libraries/seekfree_libraries/zf_nvic.c:52
    {
        close_all_irq();
    323c:	2031                	jal	3248 <close_all_irq>
D:\Car\sure code\slave_school\obj/../Libraries/seekfree_libraries/zf_nvic.c:54
    }
}
    323e:	0001                	nop
    3240:	50b2                	lw	ra,44(sp)
    3242:	5422                	lw	s0,40(sp)
    3244:	6145                	addi	sp,sp,48
    3246:	8082                	ret

00003248 <close_all_irq>:
close_all_irq():
D:\Car\sure code\slave_school\obj/../Libraries/seekfree_libraries/zf_nvic.c:63
//  @return     void
//  @since      v1.0
//  Sample usage:
//-------------------------------------------------------------------------------------------------------------------
void close_all_irq(void)
{
    3248:	1141                	addi	sp,sp,-16
    324a:	c622                	sw	s0,12(sp)
    324c:	0800                	addi	s0,sp,16
D:\Car\sure code\slave_school\obj/../Libraries/seekfree_libraries/zf_nvic.c:65
    //写1，清空状态
    PFIC->IRER[0] = 0xffffffff;
    324e:	e000e7b7          	lui	a5,0xe000e
    3252:	577d                	li	a4,-1
    3254:	18e7a023          	sw	a4,384(a5) # e000e180 <_eusrstack+0xc0009180>
D:\Car\sure code\slave_school\obj/../Libraries/seekfree_libraries/zf_nvic.c:66
    PFIC->IRER[1] = 0xffffffff;
    3258:	e000e7b7          	lui	a5,0xe000e
    325c:	577d                	li	a4,-1
    325e:	18e7a223          	sw	a4,388(a5) # e000e184 <_eusrstack+0xc0009184>
D:\Car\sure code\slave_school\obj/../Libraries/seekfree_libraries/zf_nvic.c:67
}
    3262:	0001                	nop
    3264:	4432                	lw	s0,12(sp)
    3266:	0141                	addi	sp,sp,16
    3268:	8082                	ret

0000326a <sys_recover_irq>:
sys_recover_irq():
D:\Car\sure code\slave_school\obj/../Libraries/seekfree_libraries/zf_nvic.c:77
//  @return     void
//  @since      v1.0
//  Sample usage:
//-------------------------------------------------------------------------------------------------------------------
void sys_recover_irq(void)
{
    326a:	1141                	addi	sp,sp,-16
    326c:	c622                	sw	s0,12(sp)
    326e:	0800                	addi	s0,sp,16
D:\Car\sure code\slave_school\obj/../Libraries/seekfree_libraries/zf_nvic.c:78
    PFIC->IENR[0] = irq_status.ienr0;
    3270:	e000e7b7          	lui	a5,0xe000e
    3274:	20002737          	lui	a4,0x20002
    3278:	69472703          	lw	a4,1684(a4) # 20002694 <irq_status>
    327c:	10e7a023          	sw	a4,256(a5) # e000e100 <_eusrstack+0xc0009100>
D:\Car\sure code\slave_school\obj/../Libraries/seekfree_libraries/zf_nvic.c:79
    PFIC->IENR[1] = irq_status.ienr1;
    3280:	e000e7b7          	lui	a5,0xe000e
    3284:	20002737          	lui	a4,0x20002
    3288:	69470713          	addi	a4,a4,1684 # 20002694 <irq_status>
    328c:	4358                	lw	a4,4(a4)
    328e:	10e7a223          	sw	a4,260(a5) # e000e104 <_eusrstack+0xc0009104>
D:\Car\sure code\slave_school\obj/../Libraries/seekfree_libraries/zf_nvic.c:80
}
    3292:	0001                	nop
    3294:	4432                	lw	s0,12(sp)
    3296:	0141                	addi	sp,sp,16
    3298:	8082                	ret

0000329a <DisableGlobalIRQ>:
DisableGlobalIRQ():
D:\Car\sure code\slave_school\obj/../Libraries/seekfree_libraries/zf_nvic.c:90
//  @return     void
//  @since      v1.0
//  Sample usage:
//-------------------------------------------------------------------------------------------------------------------
uint8 DisableGlobalIRQ(void)
{
    329a:	1101                	addi	sp,sp,-32
    329c:	ce06                	sw	ra,28(sp)
    329e:	cc22                	sw	s0,24(sp)
    32a0:	1000                	addi	s0,sp,32
D:\Car\sure code\slave_school\obj/../Libraries/seekfree_libraries/zf_nvic.c:92
    uint8 state;
    irq_status.flag = 1;
    32a2:	200027b7          	lui	a5,0x20002
    32a6:	69478793          	addi	a5,a5,1684 # 20002694 <irq_status>
    32aa:	4705                	li	a4,1
    32ac:	00e78423          	sb	a4,8(a5)
D:\Car\sure code\slave_school\obj/../Libraries/seekfree_libraries/zf_nvic.c:93
    if((irq_status.ienr0 == 0) && (irq_status.ienr1 == 0))   state = 0;  //没有就返回0
    32b0:	200027b7          	lui	a5,0x20002
    32b4:	6947a783          	lw	a5,1684(a5) # 20002694 <irq_status>
    32b8:	eb91                	bnez	a5,32cc <DisableGlobalIRQ+0x32>
D:\Car\sure code\slave_school\obj/../Libraries/seekfree_libraries/zf_nvic.c:93 (discriminator 1)
    32ba:	200027b7          	lui	a5,0x20002
    32be:	69478793          	addi	a5,a5,1684 # 20002694 <irq_status>
    32c2:	43dc                	lw	a5,4(a5)
    32c4:	e781                	bnez	a5,32cc <DisableGlobalIRQ+0x32>
D:\Car\sure code\slave_school\obj/../Libraries/seekfree_libraries/zf_nvic.c:93 (discriminator 2)
    32c6:	fe0407a3          	sb	zero,-17(s0)
    32ca:	a021                	j	32d2 <DisableGlobalIRQ+0x38>
D:\Car\sure code\slave_school\obj/../Libraries/seekfree_libraries/zf_nvic.c:94
    else state = 1;  //有中断就返回1
    32cc:	4785                	li	a5,1
    32ce:	fef407a3          	sb	a5,-17(s0)
D:\Car\sure code\slave_school\obj/../Libraries/seekfree_libraries/zf_nvic.c:95
    close_all_irq();
    32d2:	3f9d                	jal	3248 <close_all_irq>
D:\Car\sure code\slave_school\obj/../Libraries/seekfree_libraries/zf_nvic.c:96
    return state;
    32d4:	fef44783          	lbu	a5,-17(s0)
D:\Car\sure code\slave_school\obj/../Libraries/seekfree_libraries/zf_nvic.c:97
}
    32d8:	853e                	mv	a0,a5
    32da:	40f2                	lw	ra,28(sp)
    32dc:	4462                	lw	s0,24(sp)
    32de:	6105                	addi	sp,sp,32
    32e0:	8082                	ret

000032e2 <EnableGlobalIRQ>:
EnableGlobalIRQ():
D:\Car\sure code\slave_school\obj/../Libraries/seekfree_libraries/zf_nvic.c:107
//  @return     void
//  @since      v1.0
//  Sample usage:
//-------------------------------------------------------------------------------------------------------------------
void EnableGlobalIRQ(uint8 state)
{
    32e2:	1101                	addi	sp,sp,-32
    32e4:	ce06                	sw	ra,28(sp)
    32e6:	cc22                	sw	s0,24(sp)
    32e8:	1000                	addi	s0,sp,32
    32ea:	87aa                	mv	a5,a0
    32ec:	fef407a3          	sb	a5,-17(s0)
D:\Car\sure code\slave_school\obj/../Libraries/seekfree_libraries/zf_nvic.c:108
    if(state == 0)
    32f0:	fef44783          	lbu	a5,-17(s0)
    32f4:	eb81                	bnez	a5,3304 <EnableGlobalIRQ+0x22>
D:\Car\sure code\slave_school\obj/../Libraries/seekfree_libraries/zf_nvic.c:110
    {
        irq_status.flag = 0;
    32f6:	200027b7          	lui	a5,0x20002
    32fa:	69478793          	addi	a5,a5,1684 # 20002694 <irq_status>
    32fe:	00078423          	sb	zero,8(a5)
D:\Car\sure code\slave_school\obj/../Libraries/seekfree_libraries/zf_nvic.c:111
        sys_recover_irq();
    3302:	37a5                	jal	326a <sys_recover_irq>
D:\Car\sure code\slave_school\obj/../Libraries/seekfree_libraries/zf_nvic.c:113
    }
}
    3304:	0001                	nop
    3306:	40f2                	lw	ra,28(sp)
    3308:	4462                	lw	s0,24(sp)
    330a:	6105                	addi	sp,sp,32
    330c:	8082                	ret

0000330e <timer_pit_interrupt_ms>:
timer_pit_interrupt_ms():
D:\Car\sure code\slave_school\obj/../Libraries/seekfree_libraries/zf_pit.c:36
//  @param      ms          定时周期(1-32767)
//  @return     void
//  Sample usage:           timer_pit_interrupt(TIMER_1, 5); 使用定时器1作为5ms一次的周期中断
//-------------------------------------------------------------------------------------------------------------------
void timer_pit_interrupt_ms(TIMERN_enum timern, uint16 ms)
{
    330e:	7179                	addi	sp,sp,-48
    3310:	d606                	sw	ra,44(sp)
    3312:	d422                	sw	s0,40(sp)
    3314:	1800                	addi	s0,sp,48
    3316:	fca42e23          	sw	a0,-36(s0)
    331a:	87ae                	mv	a5,a1
    331c:	fcf41d23          	sh	a5,-38(s0)
D:\Car\sure code\slave_school\obj/../Libraries/seekfree_libraries/zf_pit.c:39
    TIM_TimeBaseInitTypeDef  TIM_TimeBaseStructure;

    if(TIMER_1 == timern)
    3320:	fdc42783          	lw	a5,-36(s0)
    3324:	eb81                	bnez	a5,3334 <timer_pit_interrupt_ms+0x26>
D:\Car\sure code\slave_school\obj/../Libraries/seekfree_libraries/zf_pit.c:40
        RCC_APB2PeriphClockCmd(RCC_APB2Periph_TIM1, ENABLE);                //时钟使能
    3326:	4585                	li	a1,1
    3328:	6785                	lui	a5,0x1
    332a:	80078513          	addi	a0,a5,-2048 # 800 <__stack_size>
    332e:	8b5fe0ef          	jal	ra,1be2 <RCC_APB2PeriphClockCmd>
    3332:	a835                	j	336e <timer_pit_interrupt_ms+0x60>
D:\Car\sure code\slave_school\obj/../Libraries/seekfree_libraries/zf_pit.c:41
    else if(TIMER_2 == timern)
    3334:	fdc42703          	lw	a4,-36(s0)
    3338:	4785                	li	a5,1
    333a:	00f71763          	bne	a4,a5,3348 <timer_pit_interrupt_ms+0x3a>
D:\Car\sure code\slave_school\obj/../Libraries/seekfree_libraries/zf_pit.c:42
        RCC_APB1PeriphClockCmd(RCC_APB1Periph_TIM2, ENABLE);                //时钟使能
    333e:	4585                	li	a1,1
    3340:	4505                	li	a0,1
    3342:	8e7fe0ef          	jal	ra,1c28 <RCC_APB1PeriphClockCmd>
    3346:	a025                	j	336e <timer_pit_interrupt_ms+0x60>
D:\Car\sure code\slave_school\obj/../Libraries/seekfree_libraries/zf_pit.c:43
    else if(TIMER_3 == timern)
    3348:	fdc42703          	lw	a4,-36(s0)
    334c:	4789                	li	a5,2
    334e:	00f71763          	bne	a4,a5,335c <timer_pit_interrupt_ms+0x4e>
D:\Car\sure code\slave_school\obj/../Libraries/seekfree_libraries/zf_pit.c:44
        RCC_APB1PeriphClockCmd(RCC_APB1Periph_TIM3, ENABLE);                //时钟使能
    3352:	4585                	li	a1,1
    3354:	4509                	li	a0,2
    3356:	8d3fe0ef          	jal	ra,1c28 <RCC_APB1PeriphClockCmd>
    335a:	a811                	j	336e <timer_pit_interrupt_ms+0x60>
D:\Car\sure code\slave_school\obj/../Libraries/seekfree_libraries/zf_pit.c:45
    else if(TIMER_4 == timern)
    335c:	fdc42703          	lw	a4,-36(s0)
    3360:	478d                	li	a5,3
    3362:	00f71663          	bne	a4,a5,336e <timer_pit_interrupt_ms+0x60>
D:\Car\sure code\slave_school\obj/../Libraries/seekfree_libraries/zf_pit.c:46
        RCC_APB1PeriphClockCmd(RCC_APB1Periph_TIM4, ENABLE);                //时钟使能
    3366:	4585                	li	a1,1
    3368:	4511                	li	a0,4
    336a:	8bffe0ef          	jal	ra,1c28 <RCC_APB1PeriphClockCmd>
D:\Car\sure code\slave_school\obj/../Libraries/seekfree_libraries/zf_pit.c:50

    //定时器TIM3初始化,计数器
    //ATRLR寄存器设置为1 ，则计数0和1，一共2次
    assert(ms);
    336e:	fda45783          	lhu	a5,-38(s0)
    3372:	ef91                	bnez	a5,338e <timer_pit_interrupt_ms+0x80>
D:\Car\sure code\slave_school\obj/../Libraries/seekfree_libraries/zf_pit.c:50 (discriminator 1)
    3374:	6795                	lui	a5,0x5
    3376:	65478693          	addi	a3,a5,1620 # 5654 <_exit+0x4>
    337a:	6795                	lui	a5,0x5
    337c:	69878613          	addi	a2,a5,1688 # 5698 <__func__.3548>
    3380:	03200593          	li	a1,50
    3384:	6795                	lui	a5,0x5
    3386:	65878513          	addi	a0,a5,1624 # 5658 <_exit+0x8>
    338a:	02c010ef          	jal	ra,43b6 <__assert_func>
D:\Car\sure code\slave_school\obj/../Libraries/seekfree_libraries/zf_pit.c:53


    TIM_TimeBaseStructure.TIM_Period = sys_clk/2000 - 1;                    //计数44000
    338e:	8381a703          	lw	a4,-1992(gp) # 200000f0 <sys_clk>
    3392:	7d000793          	li	a5,2000
    3396:	02f757b3          	divu	a5,a4,a5
    339a:	07c2                	slli	a5,a5,0x10
    339c:	83c1                	srli	a5,a5,0x10
    339e:	17fd                	addi	a5,a5,-1
    33a0:	07c2                	slli	a5,a5,0x10
    33a2:	83c1                	srli	a5,a5,0x10
    33a4:	fef41423          	sh	a5,-24(s0)
D:\Car\sure code\slave_school\obj/../Libraries/seekfree_libraries/zf_pit.c:54
    TIM_TimeBaseStructure.TIM_Prescaler = 2*ms - 1;                      //设置为1MHZ计数一次,也就是1us计数一次
    33a8:	fda45783          	lhu	a5,-38(s0)
    33ac:	0786                	slli	a5,a5,0x1
    33ae:	07c2                	slli	a5,a5,0x10
    33b0:	83c1                	srli	a5,a5,0x10
    33b2:	17fd                	addi	a5,a5,-1
    33b4:	07c2                	slli	a5,a5,0x10
    33b6:	83c1                	srli	a5,a5,0x10
    33b8:	fef41223          	sh	a5,-28(s0)
D:\Car\sure code\slave_school\obj/../Libraries/seekfree_libraries/zf_pit.c:56

    TIM_TimeBaseStructure.TIM_ClockDivision = TIM_CKD_DIV1;                 //设置时钟分割:TDTS = Tck_tim
    33bc:	fe041523          	sh	zero,-22(s0)
D:\Car\sure code\slave_school\obj/../Libraries/seekfree_libraries/zf_pit.c:57
    TIM_TimeBaseStructure.TIM_CounterMode = TIM_CounterMode_Up;             //TIM向上计数模式
    33c0:	fe041323          	sh	zero,-26(s0)
D:\Car\sure code\slave_school\obj/../Libraries/seekfree_libraries/zf_pit.c:58
    TIM_TimeBaseStructure.TIM_RepetitionCounter = 0;                        //重复计数器设置为0
    33c4:	fe040623          	sb	zero,-20(s0)
D:\Car\sure code\slave_school\obj/../Libraries/seekfree_libraries/zf_pit.c:59
    TIM_TimeBaseInit((TIM_TypeDef *)TIMERN[timern], &TIM_TimeBaseStructure);//根据指定的参数初始化TIMx的时间基数单位
    33c8:	6795                	lui	a5,0x5
    33ca:	fdc42703          	lw	a4,-36(s0)
    33ce:	070a                	slli	a4,a4,0x2
    33d0:	6b078793          	addi	a5,a5,1712 # 56b0 <TIMERN>
    33d4:	97ba                	add	a5,a5,a4
    33d6:	439c                	lw	a5,0(a5)
    33d8:	873e                	mv	a4,a5
    33da:	fe440793          	addi	a5,s0,-28
    33de:	85be                	mv	a1,a5
    33e0:	853a                	mv	a0,a4
    33e2:	88dfe0ef          	jal	ra,1c6e <TIM_TimeBaseInit>
D:\Car\sure code\slave_school\obj/../Libraries/seekfree_libraries/zf_pit.c:61

    TIM_ITConfig((TIM_TypeDef *)TIMERN[timern],TIM_IT_Update,ENABLE );      //使能指定的TIM中断,允许更新中断
    33e6:	6795                	lui	a5,0x5
    33e8:	fdc42703          	lw	a4,-36(s0)
    33ec:	070a                	slli	a4,a4,0x2
    33ee:	6b078793          	addi	a5,a5,1712 # 56b0 <TIMERN>
    33f2:	97ba                	add	a5,a5,a4
    33f4:	439c                	lw	a5,0(a5)
    33f6:	4605                	li	a2,1
    33f8:	4585                	li	a1,1
    33fa:	853e                	mv	a0,a5
    33fc:	a01fe0ef          	jal	ra,1dfc <TIM_ITConfig>
D:\Car\sure code\slave_school\obj/../Libraries/seekfree_libraries/zf_pit.c:62
    TIM_ClearITPendingBit((TIM_TypeDef *)TIMERN[timern], TIM_IT_Update);
    3400:	6795                	lui	a5,0x5
    3402:	fdc42703          	lw	a4,-36(s0)
    3406:	070a                	slli	a4,a4,0x2
    3408:	6b078793          	addi	a5,a5,1712 # 56b0 <TIMERN>
    340c:	97ba                	add	a5,a5,a4
    340e:	439c                	lw	a5,0(a5)
    3410:	4585                	li	a1,1
    3412:	853e                	mv	a0,a5
    3414:	e13fe0ef          	jal	ra,2226 <TIM_ClearITPendingBit>
D:\Car\sure code\slave_school\obj/../Libraries/seekfree_libraries/zf_pit.c:65

    //中断优先级NVIC设置
    if(TIMER_1 == timern)
    3418:	fdc42783          	lw	a5,-36(s0)
    341c:	eb81                	bnez	a5,342c <timer_pit_interrupt_ms+0x11e>
D:\Car\sure code\slave_school\obj/../Libraries/seekfree_libraries/zf_pit.c:66
        nvic_init(TIM1_UP_IRQn, 1, 2, ENABLE);
    341e:	4685                	li	a3,1
    3420:	4609                	li	a2,2
    3422:	4585                	li	a1,1
    3424:	02900513          	li	a0,41
    3428:	3b95                	jal	319c <nvic_init>
    342a:	a0b1                	j	3476 <timer_pit_interrupt_ms+0x168>
D:\Car\sure code\slave_school\obj/../Libraries/seekfree_libraries/zf_pit.c:67
    else if(TIMER_2 == timern)
    342c:	fdc42703          	lw	a4,-36(s0)
    3430:	4785                	li	a5,1
    3432:	00f71963          	bne	a4,a5,3444 <timer_pit_interrupt_ms+0x136>
D:\Car\sure code\slave_school\obj/../Libraries/seekfree_libraries/zf_pit.c:68
        nvic_init(TIM2_IRQn, 1, 2, ENABLE);
    3436:	4685                	li	a3,1
    3438:	4609                	li	a2,2
    343a:	4585                	li	a1,1
    343c:	02c00513          	li	a0,44
    3440:	3bb1                	jal	319c <nvic_init>
    3442:	a815                	j	3476 <timer_pit_interrupt_ms+0x168>
D:\Car\sure code\slave_school\obj/../Libraries/seekfree_libraries/zf_pit.c:69
    else if(TIMER_3 == timern)
    3444:	fdc42703          	lw	a4,-36(s0)
    3448:	4789                	li	a5,2
    344a:	00f71a63          	bne	a4,a5,345e <timer_pit_interrupt_ms+0x150>
D:\Car\sure code\slave_school\obj/../Libraries/seekfree_libraries/zf_pit.c:70
        nvic_init(TIM3_IRQn, 1, 2, ENABLE);
    344e:	4685                	li	a3,1
    3450:	4609                	li	a2,2
    3452:	4585                	li	a1,1
    3454:	02d00513          	li	a0,45
    3458:	d45ff0ef          	jal	ra,319c <nvic_init>
    345c:	a829                	j	3476 <timer_pit_interrupt_ms+0x168>
D:\Car\sure code\slave_school\obj/../Libraries/seekfree_libraries/zf_pit.c:71
    else if(TIMER_4 == timern)
    345e:	fdc42703          	lw	a4,-36(s0)
    3462:	478d                	li	a5,3
    3464:	00f71963          	bne	a4,a5,3476 <timer_pit_interrupt_ms+0x168>
D:\Car\sure code\slave_school\obj/../Libraries/seekfree_libraries/zf_pit.c:72
        nvic_init(TIM4_IRQn, 1, 2, ENABLE);
    3468:	4685                	li	a3,1
    346a:	4609                	li	a2,2
    346c:	4585                	li	a1,1
    346e:	02e00513          	li	a0,46
    3472:	d2bff0ef          	jal	ra,319c <nvic_init>
D:\Car\sure code\slave_school\obj/../Libraries/seekfree_libraries/zf_pit.c:74

    TIM_Cmd((TIM_TypeDef *)TIMERN[timern], ENABLE);  //使能TIMx
    3476:	6795                	lui	a5,0x5
    3478:	fdc42703          	lw	a4,-36(s0)
    347c:	070a                	slli	a4,a4,0x2
    347e:	6b078793          	addi	a5,a5,1712 # 56b0 <TIMERN>
    3482:	97ba                	add	a5,a5,a4
    3484:	439c                	lw	a5,0(a5)
    3486:	4585                	li	a1,1
    3488:	853e                	mv	a0,a5
    348a:	91bfe0ef          	jal	ra,1da4 <TIM_Cmd>
D:\Car\sure code\slave_school\obj/../Libraries/seekfree_libraries/zf_pit.c:76

}
    348e:	0001                	nop
    3490:	50b2                	lw	ra,44(sp)
    3492:	5422                	lw	s0,40(sp)
    3494:	6145                	addi	sp,sp,48
    3496:	8082                	ret

00003498 <timer_gpio_quad_init>:
timer_gpio_quad_init():
D:\Car\sure code\slave_school\obj/../Libraries/seekfree_libraries/zf_qtimer.c:40
//  @param      phaseB      通道B以及引脚
//  @return     void
//  Sample usage:           内部使用，用户无需关心
//-------------------------------------------------------------------------------------------------------------------
void timer_gpio_quad_init(TIMER_PIN_enum phaseA, TIMER_PIN_enum phaseB)
{
    3498:	1101                	addi	sp,sp,-32
    349a:	ce06                	sw	ra,28(sp)
    349c:	cc22                	sw	s0,24(sp)
    349e:	1000                	addi	s0,sp,32
    34a0:	fea42623          	sw	a0,-20(s0)
    34a4:	feb42423          	sw	a1,-24(s0)
D:\Car\sure code\slave_school\obj/../Libraries/seekfree_libraries/zf_qtimer.c:41
    if(TIMER1_CHA_A8 == phaseA)       gpio_init(A8, GPI, 0, IN_FLOAT);
    34a8:	fec42783          	lw	a5,-20(s0)
    34ac:	eb81                	bnez	a5,34bc <timer_gpio_quad_init+0x24>
D:\Car\sure code\slave_school\obj/../Libraries/seekfree_libraries/zf_qtimer.c:41 (discriminator 1)
    34ae:	4691                	li	a3,4
    34b0:	4601                	li	a2,0
    34b2:	4581                	li	a1,0
    34b4:	4521                	li	a0,8
    34b6:	9efff0ef          	jal	ra,2ea4 <gpio_init>
    34ba:	a859                	j	3550 <timer_gpio_quad_init+0xb8>
D:\Car\sure code\slave_school\obj/../Libraries/seekfree_libraries/zf_qtimer.c:42
    else if(TIMER2_CHA_A0 == phaseA)  gpio_init(A0, GPI, 0, IN_FLOAT);
    34bc:	fec42703          	lw	a4,-20(s0)
    34c0:	4789                	li	a5,2
    34c2:	00f71963          	bne	a4,a5,34d4 <timer_gpio_quad_init+0x3c>
D:\Car\sure code\slave_school\obj/../Libraries/seekfree_libraries/zf_qtimer.c:42 (discriminator 1)
    34c6:	4691                	li	a3,4
    34c8:	4601                	li	a2,0
    34ca:	4581                	li	a1,0
    34cc:	4501                	li	a0,0
    34ce:	9d7ff0ef          	jal	ra,2ea4 <gpio_init>
    34d2:	a8bd                	j	3550 <timer_gpio_quad_init+0xb8>
D:\Car\sure code\slave_school\obj/../Libraries/seekfree_libraries/zf_qtimer.c:43
    else if(TIMER2_CHA_A15 == phaseA) gpio_init(A15, GPI, 0, IN_FLOAT);
    34d4:	fec42703          	lw	a4,-20(s0)
    34d8:	4791                	li	a5,4
    34da:	00f71963          	bne	a4,a5,34ec <timer_gpio_quad_init+0x54>
D:\Car\sure code\slave_school\obj/../Libraries/seekfree_libraries/zf_qtimer.c:43 (discriminator 1)
    34de:	4691                	li	a3,4
    34e0:	4601                	li	a2,0
    34e2:	4581                	li	a1,0
    34e4:	453d                	li	a0,15
    34e6:	9bfff0ef          	jal	ra,2ea4 <gpio_init>
    34ea:	a09d                	j	3550 <timer_gpio_quad_init+0xb8>
D:\Car\sure code\slave_school\obj/../Libraries/seekfree_libraries/zf_qtimer.c:44
    else if(TIMER3_CHA_A6 == phaseA)  gpio_init(A6, GPI, 0, IN_FLOAT);
    34ec:	fec42703          	lw	a4,-20(s0)
    34f0:	4799                	li	a5,6
    34f2:	00f71963          	bne	a4,a5,3504 <timer_gpio_quad_init+0x6c>
D:\Car\sure code\slave_school\obj/../Libraries/seekfree_libraries/zf_qtimer.c:44 (discriminator 1)
    34f6:	4691                	li	a3,4
    34f8:	4601                	li	a2,0
    34fa:	4581                	li	a1,0
    34fc:	4519                	li	a0,6
    34fe:	9a7ff0ef          	jal	ra,2ea4 <gpio_init>
    3502:	a0b9                	j	3550 <timer_gpio_quad_init+0xb8>
D:\Car\sure code\slave_school\obj/../Libraries/seekfree_libraries/zf_qtimer.c:45
    else if(TIMER3_CHA_C6 == phaseA)  gpio_init(C6, GPI, 0, IN_FLOAT);
    3504:	fec42703          	lw	a4,-20(s0)
    3508:	47a1                	li	a5,8
    350a:	00f71a63          	bne	a4,a5,351e <timer_gpio_quad_init+0x86>
D:\Car\sure code\slave_school\obj/../Libraries/seekfree_libraries/zf_qtimer.c:45 (discriminator 1)
    350e:	4691                	li	a3,4
    3510:	4601                	li	a2,0
    3512:	4581                	li	a1,0
    3514:	04600513          	li	a0,70
    3518:	98dff0ef          	jal	ra,2ea4 <gpio_init>
    351c:	a815                	j	3550 <timer_gpio_quad_init+0xb8>
D:\Car\sure code\slave_school\obj/../Libraries/seekfree_libraries/zf_qtimer.c:46
    else if(TIMER3_CHA_B4 == phaseA)  gpio_init(B4, GPI, 0, IN_FLOAT);
    351e:	fec42703          	lw	a4,-20(s0)
    3522:	47a9                	li	a5,10
    3524:	00f71a63          	bne	a4,a5,3538 <timer_gpio_quad_init+0xa0>
D:\Car\sure code\slave_school\obj/../Libraries/seekfree_libraries/zf_qtimer.c:46 (discriminator 1)
    3528:	4691                	li	a3,4
    352a:	4601                	li	a2,0
    352c:	4581                	li	a1,0
    352e:	02400513          	li	a0,36
    3532:	973ff0ef          	jal	ra,2ea4 <gpio_init>
    3536:	a829                	j	3550 <timer_gpio_quad_init+0xb8>
D:\Car\sure code\slave_school\obj/../Libraries/seekfree_libraries/zf_qtimer.c:47
    else if(TIMER4_CHA_B6 == phaseA)  gpio_init(B6, GPI, 0, IN_FLOAT);
    3538:	fec42703          	lw	a4,-20(s0)
    353c:	47b1                	li	a5,12
    353e:	00f71963          	bne	a4,a5,3550 <timer_gpio_quad_init+0xb8>
D:\Car\sure code\slave_school\obj/../Libraries/seekfree_libraries/zf_qtimer.c:47 (discriminator 1)
    3542:	4691                	li	a3,4
    3544:	4601                	li	a2,0
    3546:	4581                	li	a1,0
    3548:	02600513          	li	a0,38
    354c:	959ff0ef          	jal	ra,2ea4 <gpio_init>
D:\Car\sure code\slave_school\obj/../Libraries/seekfree_libraries/zf_qtimer.c:49

    if(TIMER1_CHB_A9 == phaseB)       gpio_init(A9, GPI, 0, IN_FLOAT);
    3550:	fe842703          	lw	a4,-24(s0)
    3554:	4785                	li	a5,1
    3556:	00f71963          	bne	a4,a5,3568 <timer_gpio_quad_init+0xd0>
D:\Car\sure code\slave_school\obj/../Libraries/seekfree_libraries/zf_qtimer.c:49 (discriminator 1)
    355a:	4691                	li	a3,4
    355c:	4601                	li	a2,0
    355e:	4581                	li	a1,0
    3560:	4525                	li	a0,9
    3562:	943ff0ef          	jal	ra,2ea4 <gpio_init>
D:\Car\sure code\slave_school\obj/../Libraries/seekfree_libraries/zf_qtimer.c:57 (discriminator 1)
    else if(TIMER3_CHB_A7 == phaseB)  gpio_init(A7, GPI, 0, IN_FLOAT);
    else if(TIMER3_CHB_C7 == phaseB)  gpio_init(C7, GPI, 0, IN_FLOAT);
    else if(TIMER3_CHB_B5 == phaseB)  gpio_init(B5, GPI, 0, IN_FLOAT);
    else if(TIMER4_CHB_B7 == phaseB)  gpio_init(B7, GPI, 0, IN_FLOAT);

}
    3566:	a861                	j	35fe <timer_gpio_quad_init+0x166>
D:\Car\sure code\slave_school\obj/../Libraries/seekfree_libraries/zf_qtimer.c:50
    else if(TIMER2_CHB_A1 == phaseB)  gpio_init(A1, GPI, 0, IN_FLOAT);
    3568:	fe842703          	lw	a4,-24(s0)
    356c:	478d                	li	a5,3
    356e:	00f71963          	bne	a4,a5,3580 <timer_gpio_quad_init+0xe8>
D:\Car\sure code\slave_school\obj/../Libraries/seekfree_libraries/zf_qtimer.c:50 (discriminator 1)
    3572:	4691                	li	a3,4
    3574:	4601                	li	a2,0
    3576:	4581                	li	a1,0
    3578:	4505                	li	a0,1
    357a:	92bff0ef          	jal	ra,2ea4 <gpio_init>
D:\Car\sure code\slave_school\obj/../Libraries/seekfree_libraries/zf_qtimer.c:57 (discriminator 1)
}
    357e:	a041                	j	35fe <timer_gpio_quad_init+0x166>
D:\Car\sure code\slave_school\obj/../Libraries/seekfree_libraries/zf_qtimer.c:51
    else if(TIMER2_CHB_B3 == phaseB)  gpio_init(B3, GPI, 0, IN_FLOAT);
    3580:	fe842703          	lw	a4,-24(s0)
    3584:	4795                	li	a5,5
    3586:	00f71a63          	bne	a4,a5,359a <timer_gpio_quad_init+0x102>
D:\Car\sure code\slave_school\obj/../Libraries/seekfree_libraries/zf_qtimer.c:51 (discriminator 1)
    358a:	4691                	li	a3,4
    358c:	4601                	li	a2,0
    358e:	4581                	li	a1,0
    3590:	02300513          	li	a0,35
    3594:	911ff0ef          	jal	ra,2ea4 <gpio_init>
D:\Car\sure code\slave_school\obj/../Libraries/seekfree_libraries/zf_qtimer.c:57 (discriminator 1)
}
    3598:	a09d                	j	35fe <timer_gpio_quad_init+0x166>
D:\Car\sure code\slave_school\obj/../Libraries/seekfree_libraries/zf_qtimer.c:52
    else if(TIMER3_CHB_A7 == phaseB)  gpio_init(A7, GPI, 0, IN_FLOAT);
    359a:	fe842703          	lw	a4,-24(s0)
    359e:	479d                	li	a5,7
    35a0:	00f71963          	bne	a4,a5,35b2 <timer_gpio_quad_init+0x11a>
D:\Car\sure code\slave_school\obj/../Libraries/seekfree_libraries/zf_qtimer.c:52 (discriminator 1)
    35a4:	4691                	li	a3,4
    35a6:	4601                	li	a2,0
    35a8:	4581                	li	a1,0
    35aa:	451d                	li	a0,7
    35ac:	8f9ff0ef          	jal	ra,2ea4 <gpio_init>
D:\Car\sure code\slave_school\obj/../Libraries/seekfree_libraries/zf_qtimer.c:57 (discriminator 1)
}
    35b0:	a0b9                	j	35fe <timer_gpio_quad_init+0x166>
D:\Car\sure code\slave_school\obj/../Libraries/seekfree_libraries/zf_qtimer.c:53
    else if(TIMER3_CHB_C7 == phaseB)  gpio_init(C7, GPI, 0, IN_FLOAT);
    35b2:	fe842703          	lw	a4,-24(s0)
    35b6:	47a5                	li	a5,9
    35b8:	00f71a63          	bne	a4,a5,35cc <timer_gpio_quad_init+0x134>
D:\Car\sure code\slave_school\obj/../Libraries/seekfree_libraries/zf_qtimer.c:53 (discriminator 1)
    35bc:	4691                	li	a3,4
    35be:	4601                	li	a2,0
    35c0:	4581                	li	a1,0
    35c2:	04700513          	li	a0,71
    35c6:	8dfff0ef          	jal	ra,2ea4 <gpio_init>
D:\Car\sure code\slave_school\obj/../Libraries/seekfree_libraries/zf_qtimer.c:57 (discriminator 1)
}
    35ca:	a815                	j	35fe <timer_gpio_quad_init+0x166>
D:\Car\sure code\slave_school\obj/../Libraries/seekfree_libraries/zf_qtimer.c:54
    else if(TIMER3_CHB_B5 == phaseB)  gpio_init(B5, GPI, 0, IN_FLOAT);
    35cc:	fe842703          	lw	a4,-24(s0)
    35d0:	47ad                	li	a5,11
    35d2:	00f71a63          	bne	a4,a5,35e6 <timer_gpio_quad_init+0x14e>
D:\Car\sure code\slave_school\obj/../Libraries/seekfree_libraries/zf_qtimer.c:54 (discriminator 1)
    35d6:	4691                	li	a3,4
    35d8:	4601                	li	a2,0
    35da:	4581                	li	a1,0
    35dc:	02500513          	li	a0,37
    35e0:	8c5ff0ef          	jal	ra,2ea4 <gpio_init>
D:\Car\sure code\slave_school\obj/../Libraries/seekfree_libraries/zf_qtimer.c:57 (discriminator 1)
}
    35e4:	a829                	j	35fe <timer_gpio_quad_init+0x166>
D:\Car\sure code\slave_school\obj/../Libraries/seekfree_libraries/zf_qtimer.c:55
    else if(TIMER4_CHB_B7 == phaseB)  gpio_init(B7, GPI, 0, IN_FLOAT);
    35e6:	fe842703          	lw	a4,-24(s0)
    35ea:	47b5                	li	a5,13
    35ec:	00f71963          	bne	a4,a5,35fe <timer_gpio_quad_init+0x166>
D:\Car\sure code\slave_school\obj/../Libraries/seekfree_libraries/zf_qtimer.c:55 (discriminator 1)
    35f0:	4691                	li	a3,4
    35f2:	4601                	li	a2,0
    35f4:	4581                	li	a1,0
    35f6:	02700513          	li	a0,39
    35fa:	8abff0ef          	jal	ra,2ea4 <gpio_init>
D:\Car\sure code\slave_school\obj/../Libraries/seekfree_libraries/zf_qtimer.c:57
}
    35fe:	0001                	nop
    3600:	40f2                	lw	ra,28(sp)
    3602:	4462                	lw	s0,24(sp)
    3604:	6105                	addi	sp,sp,32
    3606:	8082                	ret

00003608 <timer_quad_init>:
timer_quad_init():
D:\Car\sure code\slave_school\obj/../Libraries/seekfree_libraries/zf_qtimer.c:69
//  @param      phaseB      通道B以及引脚
//  @return     void
//  Sample usage:           推荐使用正交解码编码器。
//-------------------------------------------------------------------------------------------------------------------
void timer_quad_init(TIMERN_enum timern, TIMER_PIN_enum phaseA, TIMER_PIN_enum phaseB)
{
    3608:	7179                	addi	sp,sp,-48
    360a:	d606                	sw	ra,44(sp)
    360c:	d422                	sw	s0,40(sp)
    360e:	1800                	addi	s0,sp,48
    3610:	fca42e23          	sw	a0,-36(s0)
    3614:	fcb42c23          	sw	a1,-40(s0)
    3618:	fcc42a23          	sw	a2,-44(s0)
D:\Car\sure code\slave_school\obj/../Libraries/seekfree_libraries/zf_qtimer.c:72
    TIM_TimeBaseInitTypeDef TIM_TimeBaseStructure;

    if(TIMER_1 == timern)       RCC_APB2PeriphClockCmd(RCC_APB2Periph_TIM1, ENABLE);//使能定时器1的时钟
    361c:	fdc42783          	lw	a5,-36(s0)
    3620:	eb81                	bnez	a5,3630 <timer_quad_init+0x28>
D:\Car\sure code\slave_school\obj/../Libraries/seekfree_libraries/zf_qtimer.c:72 (discriminator 1)
    3622:	4585                	li	a1,1
    3624:	6785                	lui	a5,0x1
    3626:	80078513          	addi	a0,a5,-2048 # 800 <__stack_size>
    362a:	db8fe0ef          	jal	ra,1be2 <RCC_APB2PeriphClockCmd>
    362e:	a835                	j	366a <timer_quad_init+0x62>
D:\Car\sure code\slave_school\obj/../Libraries/seekfree_libraries/zf_qtimer.c:73
    else  if(TIMER_2 == timern) RCC_APB1PeriphClockCmd(RCC_APB1Periph_TIM2, ENABLE);//使能定时器2的时钟
    3630:	fdc42703          	lw	a4,-36(s0)
    3634:	4785                	li	a5,1
    3636:	00f71763          	bne	a4,a5,3644 <timer_quad_init+0x3c>
D:\Car\sure code\slave_school\obj/../Libraries/seekfree_libraries/zf_qtimer.c:73 (discriminator 1)
    363a:	4585                	li	a1,1
    363c:	4505                	li	a0,1
    363e:	deafe0ef          	jal	ra,1c28 <RCC_APB1PeriphClockCmd>
    3642:	a025                	j	366a <timer_quad_init+0x62>
D:\Car\sure code\slave_school\obj/../Libraries/seekfree_libraries/zf_qtimer.c:74
    else  if(TIMER_3 == timern) RCC_APB1PeriphClockCmd(RCC_APB1Periph_TIM3, ENABLE);//使能定时器3的时钟
    3644:	fdc42703          	lw	a4,-36(s0)
    3648:	4789                	li	a5,2
    364a:	00f71763          	bne	a4,a5,3658 <timer_quad_init+0x50>
D:\Car\sure code\slave_school\obj/../Libraries/seekfree_libraries/zf_qtimer.c:74 (discriminator 1)
    364e:	4585                	li	a1,1
    3650:	4509                	li	a0,2
    3652:	dd6fe0ef          	jal	ra,1c28 <RCC_APB1PeriphClockCmd>
    3656:	a811                	j	366a <timer_quad_init+0x62>
D:\Car\sure code\slave_school\obj/../Libraries/seekfree_libraries/zf_qtimer.c:75
    else  if(TIMER_4 == timern) RCC_APB1PeriphClockCmd(RCC_APB1Periph_TIM4, ENABLE);//使能定时器4的时钟
    3658:	fdc42703          	lw	a4,-36(s0)
    365c:	478d                	li	a5,3
    365e:	00f71663          	bne	a4,a5,366a <timer_quad_init+0x62>
D:\Car\sure code\slave_school\obj/../Libraries/seekfree_libraries/zf_qtimer.c:75 (discriminator 1)
    3662:	4585                	li	a1,1
    3664:	4511                	li	a0,4
    3666:	dc2fe0ef          	jal	ra,1c28 <RCC_APB1PeriphClockCmd>
D:\Car\sure code\slave_school\obj/../Libraries/seekfree_libraries/zf_qtimer.c:77

    timer_gpio_quad_init(phaseA, phaseB);                                           //初始化引脚
    366a:	fd442583          	lw	a1,-44(s0)
    366e:	fd842503          	lw	a0,-40(s0)
    3672:	351d                	jal	3498 <timer_gpio_quad_init>
D:\Car\sure code\slave_school\obj/../Libraries/seekfree_libraries/zf_qtimer.c:79

    RCC_APB2PeriphClockCmd(RCC_APB2Periph_AFIO, ENABLE);                            //使能AFIO复用功能模块时钟
    3674:	4585                	li	a1,1
    3676:	4505                	li	a0,1
    3678:	d6afe0ef          	jal	ra,1be2 <RCC_APB2PeriphClockCmd>
D:\Car\sure code\slave_school\obj/../Libraries/seekfree_libraries/zf_qtimer.c:81

    if(TIMER2_CHA_A15 == phaseA && TIMER2_CHB_B3 == phaseB)                         //引脚重映射
    367c:	fd842703          	lw	a4,-40(s0)
    3680:	4791                	li	a5,4
    3682:	00f71f63          	bne	a4,a5,36a0 <timer_quad_init+0x98>
D:\Car\sure code\slave_school\obj/../Libraries/seekfree_libraries/zf_qtimer.c:81 (discriminator 1)
    3686:	fd442703          	lw	a4,-44(s0)
    368a:	4795                	li	a5,5
    368c:	00f71a63          	bne	a4,a5,36a0 <timer_quad_init+0x98>
D:\Car\sure code\slave_school\obj/../Libraries/seekfree_libraries/zf_qtimer.c:82
        GPIO_PinRemapConfig(GPIO_FullRemap_TIM2, ENABLE);
    3690:	4585                	li	a1,1
    3692:	001807b7          	lui	a5,0x180
    3696:	30078513          	addi	a0,a5,768 # 180300 <_data_lma+0x17ab3c>
    369a:	fb9fd0ef          	jal	ra,1652 <GPIO_PinRemapConfig>
    369e:	a0a1                	j	36e6 <timer_quad_init+0xde>
D:\Car\sure code\slave_school\obj/../Libraries/seekfree_libraries/zf_qtimer.c:83
    else    if(TIMER3_CHA_C6 == phaseA && TIMER3_CHB_C7 == phaseB)
    36a0:	fd842703          	lw	a4,-40(s0)
    36a4:	47a1                	li	a5,8
    36a6:	00f71f63          	bne	a4,a5,36c4 <timer_quad_init+0xbc>
D:\Car\sure code\slave_school\obj/../Libraries/seekfree_libraries/zf_qtimer.c:83 (discriminator 1)
    36aa:	fd442703          	lw	a4,-44(s0)
    36ae:	47a5                	li	a5,9
    36b0:	00f71a63          	bne	a4,a5,36c4 <timer_quad_init+0xbc>
D:\Car\sure code\slave_school\obj/../Libraries/seekfree_libraries/zf_qtimer.c:84
        GPIO_PinRemapConfig(GPIO_FullRemap_TIM3, ENABLE);
    36b4:	4585                	li	a1,1
    36b6:	001a17b7          	lui	a5,0x1a1
    36ba:	c0078513          	addi	a0,a5,-1024 # 1a0c00 <_data_lma+0x19b43c>
    36be:	f95fd0ef          	jal	ra,1652 <GPIO_PinRemapConfig>
    36c2:	a015                	j	36e6 <timer_quad_init+0xde>
D:\Car\sure code\slave_school\obj/../Libraries/seekfree_libraries/zf_qtimer.c:85
    else    if(TIMER3_CHA_B4 == phaseA && TIMER3_CHB_B5 == phaseB)
    36c4:	fd842703          	lw	a4,-40(s0)
    36c8:	47a9                	li	a5,10
    36ca:	00f71e63          	bne	a4,a5,36e6 <timer_quad_init+0xde>
D:\Car\sure code\slave_school\obj/../Libraries/seekfree_libraries/zf_qtimer.c:85 (discriminator 1)
    36ce:	fd442703          	lw	a4,-44(s0)
    36d2:	47ad                	li	a5,11
    36d4:	00f71963          	bne	a4,a5,36e6 <timer_quad_init+0xde>
D:\Car\sure code\slave_school\obj/../Libraries/seekfree_libraries/zf_qtimer.c:86
        GPIO_PinRemapConfig(GPIO_PartialRemap_TIM3, ENABLE);
    36d8:	4585                	li	a1,1
    36da:	001a17b7          	lui	a5,0x1a1
    36de:	80078513          	addi	a0,a5,-2048 # 1a0800 <_data_lma+0x19b03c>
    36e2:	f71fd0ef          	jal	ra,1652 <GPIO_PinRemapConfig>
D:\Car\sure code\slave_school\obj/../Libraries/seekfree_libraries/zf_qtimer.c:88

    TIM_TimeBaseStructInit(&TIM_TimeBaseStructure);
    36e6:	fe440793          	addi	a5,s0,-28
    36ea:	853e                	mv	a0,a5
    36ec:	e7cfe0ef          	jal	ra,1d68 <TIM_TimeBaseStructInit>
D:\Car\sure code\slave_school\obj/../Libraries/seekfree_libraries/zf_qtimer.c:89
    TIM_TimeBaseStructure.TIM_Prescaler = 1;                                        //预分频器
    36f0:	4785                	li	a5,1
    36f2:	fef41223          	sh	a5,-28(s0)
D:\Car\sure code\slave_school\obj/../Libraries/seekfree_libraries/zf_qtimer.c:90
    TIM_TimeBaseStructure.TIM_Period = 0xFFFF;                                      //设定计数器自动重装值
    36f6:	57fd                	li	a5,-1
    36f8:	fef41423          	sh	a5,-24(s0)
D:\Car\sure code\slave_school\obj/../Libraries/seekfree_libraries/zf_qtimer.c:91
    TIM_TimeBaseStructure.TIM_ClockDivision = TIM_CKD_DIV1;                         //选择时钟分频：不分频
    36fc:	fe041523          	sh	zero,-22(s0)
D:\Car\sure code\slave_school\obj/../Libraries/seekfree_libraries/zf_qtimer.c:92
    TIM_TimeBaseStructure.TIM_CounterMode = TIM_CounterMode_Up;                     //TIM向上计数
    3700:	fe041323          	sh	zero,-26(s0)
D:\Car\sure code\slave_school\obj/../Libraries/seekfree_libraries/zf_qtimer.c:93
    TIM_TimeBaseStructure.TIM_RepetitionCounter = 0;                                //重复计数器
    3704:	fe040623          	sb	zero,-20(s0)
D:\Car\sure code\slave_school\obj/../Libraries/seekfree_libraries/zf_qtimer.c:94
    TIM_TimeBaseInit((TIM_TypeDef*)(TIMERN[timern]), &TIM_TimeBaseStructure);       //初始化结构体
    3708:	6795                	lui	a5,0x5
    370a:	fdc42703          	lw	a4,-36(s0)
    370e:	070a                	slli	a4,a4,0x2
    3710:	6b078793          	addi	a5,a5,1712 # 56b0 <TIMERN>
    3714:	97ba                	add	a5,a5,a4
    3716:	439c                	lw	a5,0(a5)
    3718:	873e                	mv	a4,a5
    371a:	fe440793          	addi	a5,s0,-28
    371e:	85be                	mv	a1,a5
    3720:	853a                	mv	a0,a4
    3722:	d4cfe0ef          	jal	ra,1c6e <TIM_TimeBaseInit>
D:\Car\sure code\slave_school\obj/../Libraries/seekfree_libraries/zf_qtimer.c:95
    TIM_EncoderInterfaceConfig((TIM_TypeDef*)(TIMERN[timern]), TIM_EncoderMode_TI2 , TIM_ICPolarity_Rising, TIM_ICPolarity_Rising);//使用编码器模式
    3726:	6795                	lui	a5,0x5
    3728:	fdc42703          	lw	a4,-36(s0)
    372c:	070a                	slli	a4,a4,0x2
    372e:	6b078793          	addi	a5,a5,1712 # 56b0 <TIMERN>
    3732:	97ba                	add	a5,a5,a4
    3734:	439c                	lw	a5,0(a5)
    3736:	4681                	li	a3,0
    3738:	4601                	li	a2,0
    373a:	4589                	li	a1,2
    373c:	853e                	mv	a0,a5
    373e:	8f3fe0ef          	jal	ra,2030 <TIM_EncoderInterfaceConfig>
D:\Car\sure code\slave_school\obj/../Libraries/seekfree_libraries/zf_qtimer.c:97

    TIM_Cmd((TIM_TypeDef*)(TIMERN[timern]), ENABLE);                                //定时器使能
    3742:	6795                	lui	a5,0x5
    3744:	fdc42703          	lw	a4,-36(s0)
    3748:	070a                	slli	a4,a4,0x2
    374a:	6b078793          	addi	a5,a5,1712 # 56b0 <TIMERN>
    374e:	97ba                	add	a5,a5,a4
    3750:	439c                	lw	a5,0(a5)
    3752:	4585                	li	a1,1
    3754:	853e                	mv	a0,a5
    3756:	e4efe0ef          	jal	ra,1da4 <TIM_Cmd>
D:\Car\sure code\slave_school\obj/../Libraries/seekfree_libraries/zf_qtimer.c:98
}
    375a:	0001                	nop
    375c:	50b2                	lw	ra,44(sp)
    375e:	5422                	lw	s0,40(sp)
    3760:	6145                	addi	sp,sp,48
    3762:	8082                	ret

00003764 <timer_quad_get>:
timer_quad_get():
D:\Car\sure code\slave_school\obj/../Libraries/seekfree_libraries/zf_qtimer.c:107
//  @param      timern      定时器枚举体
//  @return     void
//  Sample usage:
//-------------------------------------------------------------------------------------------------------------------
int16 timer_quad_get(TIMERN_enum timern)
{
    3764:	7179                	addi	sp,sp,-48
    3766:	d622                	sw	s0,44(sp)
    3768:	1800                	addi	s0,sp,48
    376a:	fca42e23          	sw	a0,-36(s0)
D:\Car\sure code\slave_school\obj/../Libraries/seekfree_libraries/zf_qtimer.c:108
    int16 count = ((TIM_TypeDef*)(TIMERN[timern]))->CNT;
    376e:	6795                	lui	a5,0x5
    3770:	fdc42703          	lw	a4,-36(s0)
    3774:	070a                	slli	a4,a4,0x2
    3776:	6b078793          	addi	a5,a5,1712 # 56b0 <TIMERN>
    377a:	97ba                	add	a5,a5,a4
    377c:	439c                	lw	a5,0(a5)
    377e:	0247d783          	lhu	a5,36(a5)
    3782:	07c2                	slli	a5,a5,0x10
    3784:	83c1                	srli	a5,a5,0x10
    3786:	fef41723          	sh	a5,-18(s0)
D:\Car\sure code\slave_school\obj/../Libraries/seekfree_libraries/zf_qtimer.c:109
    return count;
    378a:	fee41783          	lh	a5,-18(s0)
D:\Car\sure code\slave_school\obj/../Libraries/seekfree_libraries/zf_qtimer.c:110
}
    378e:	853e                	mv	a0,a5
    3790:	5432                	lw	s0,44(sp)
    3792:	6145                	addi	sp,sp,48
    3794:	8082                	ret

00003796 <timer_quad_clear>:
timer_quad_clear():
D:\Car\sure code\slave_school\obj/../Libraries/seekfree_libraries/zf_qtimer.c:119
//  @param      timern      定时器枚举体
//  @return     void
//  Sample usage:
//-------------------------------------------------------------------------------------------------------------------
void timer_quad_clear(TIMERN_enum timern)
{
    3796:	1101                	addi	sp,sp,-32
    3798:	ce22                	sw	s0,28(sp)
    379a:	1000                	addi	s0,sp,32
    379c:	fea42623          	sw	a0,-20(s0)
D:\Car\sure code\slave_school\obj/../Libraries/seekfree_libraries/zf_qtimer.c:120
    ((TIM_TypeDef*)(TIMERN[timern]))->CNT = 0;
    37a0:	6795                	lui	a5,0x5
    37a2:	fec42703          	lw	a4,-20(s0)
    37a6:	070a                	slli	a4,a4,0x2
    37a8:	6b078793          	addi	a5,a5,1712 # 56b0 <TIMERN>
    37ac:	97ba                	add	a5,a5,a4
    37ae:	439c                	lw	a5,0(a5)
    37b0:	02079223          	sh	zero,36(a5)
D:\Car\sure code\slave_school\obj/../Libraries/seekfree_libraries/zf_qtimer.c:121
}
    37b4:	0001                	nop
    37b6:	4472                	lw	s0,28(sp)
    37b8:	6105                	addi	sp,sp,32
    37ba:	8082                	ret

000037bc <systick_delay>:
systick_delay():
D:\Car\sure code\slave_school\obj/../Libraries/seekfree_libraries/zf_systick.c:29
//  @param      time                us
//  @return     void
//  Sample usage:                   内部使用，用户无需关心
//-------------------------------------------------------------------------------------------------------------------
void systick_delay(uint64 time)
{
    37bc:	1101                	addi	sp,sp,-32
    37be:	ce22                	sw	s0,28(sp)
    37c0:	1000                	addi	s0,sp,32
    37c2:	fea42423          	sw	a0,-24(s0)
    37c6:	feb42623          	sw	a1,-20(s0)
D:\Car\sure code\slave_school\obj/../Libraries/seekfree_libraries/zf_systick.c:30
    SysTick->CTLR = 0;
    37ca:	e000f737          	lui	a4,0xe000f
    37ce:	00072023          	sw	zero,0(a4) # e000f000 <_eusrstack+0xc000a000>
D:\Car\sure code\slave_school\obj/../Libraries/seekfree_libraries/zf_systick.c:31
    SysTick->CNTL0 = 0;
    37d2:	e000f737          	lui	a4,0xe000f
    37d6:	00070223          	sb	zero,4(a4) # e000f004 <_eusrstack+0xc000a004>
D:\Car\sure code\slave_school\obj/../Libraries/seekfree_libraries/zf_systick.c:32
    SysTick->CNTL1 = 0;
    37da:	e000f737          	lui	a4,0xe000f
    37de:	000702a3          	sb	zero,5(a4) # e000f005 <_eusrstack+0xc000a005>
D:\Car\sure code\slave_school\obj/../Libraries/seekfree_libraries/zf_systick.c:33
    SysTick->CNTL2 = 0;
    37e2:	e000f737          	lui	a4,0xe000f
    37e6:	00070323          	sb	zero,6(a4) # e000f006 <_eusrstack+0xc000a006>
D:\Car\sure code\slave_school\obj/../Libraries/seekfree_libraries/zf_systick.c:34
    SysTick->CNTL3 = 0;
    37ea:	e000f737          	lui	a4,0xe000f
    37ee:	000703a3          	sb	zero,7(a4) # e000f007 <_eusrstack+0xc000a007>
D:\Car\sure code\slave_school\obj/../Libraries/seekfree_libraries/zf_systick.c:35
    SysTick->CNTH0 = 0;
    37f2:	e000f737          	lui	a4,0xe000f
    37f6:	00070423          	sb	zero,8(a4) # e000f008 <_eusrstack+0xc000a008>
D:\Car\sure code\slave_school\obj/../Libraries/seekfree_libraries/zf_systick.c:36
    SysTick->CNTH1 = 0;
    37fa:	e000f737          	lui	a4,0xe000f
    37fe:	000704a3          	sb	zero,9(a4) # e000f009 <_eusrstack+0xc000a009>
D:\Car\sure code\slave_school\obj/../Libraries/seekfree_libraries/zf_systick.c:37
    SysTick->CNTH2 = 0;
    3802:	e000f737          	lui	a4,0xe000f
    3806:	00070523          	sb	zero,10(a4) # e000f00a <_eusrstack+0xc000a00a>
D:\Car\sure code\slave_school\obj/../Libraries/seekfree_libraries/zf_systick.c:38
    SysTick->CNTH3 = 0;
    380a:	e000f737          	lui	a4,0xe000f
    380e:	000705a3          	sb	zero,11(a4) # e000f00b <_eusrstack+0xc000a00b>
D:\Car\sure code\slave_school\obj/../Libraries/seekfree_libraries/zf_systick.c:39
    SysTick->CTLR = 1;          //启动系统计数器 systick（HCLK/8 时基） us
    3812:	e000f737          	lui	a4,0xe000f
    3816:	4685                	li	a3,1
    3818:	c314                	sw	a3,0(a4)
D:\Car\sure code\slave_school\obj/../Libraries/seekfree_libraries/zf_systick.c:41

    while((*(volatile uint32*)0xE000F004) <= time);
    381a:	0001                	nop
D:\Car\sure code\slave_school\obj/../Libraries/seekfree_libraries/zf_systick.c:41 (discriminator 1)
    381c:	e000f737          	lui	a4,0xe000f
    3820:	0711                	addi	a4,a4,4
    3822:	4318                	lw	a4,0(a4)
    3824:	87ba                	mv	a5,a4
    3826:	4801                	li	a6,0
    3828:	fec42703          	lw	a4,-20(s0)
    382c:	86c2                	mv	a3,a6
    382e:	00d76d63          	bltu	a4,a3,3848 <systick_delay+0x8c>
    3832:	fec42703          	lw	a4,-20(s0)
    3836:	86c2                	mv	a3,a6
    3838:	fed712e3          	bne	a4,a3,381c <systick_delay+0x60>
    383c:	fe842703          	lw	a4,-24(s0)
    3840:	86be                	mv	a3,a5
    3842:	00d76363          	bltu	a4,a3,3848 <systick_delay+0x8c>
    3846:	bfd9                	j	381c <systick_delay+0x60>
D:\Car\sure code\slave_school\obj/../Libraries/seekfree_libraries/zf_systick.c:42
}
    3848:	0001                	nop
    384a:	4472                	lw	s0,28(sp)
    384c:	6105                	addi	sp,sp,32
    384e:	8082                	ret

00003850 <uart_gpio_init>:
uart_gpio_init():
D:\Car\sure code\slave_school\obj/../Libraries/seekfree_libraries/zf_uart.c:38
//  @param      rx_pin      串口接收引脚号
//  @return     void
//  Sample usage:           内部使用，用户无需关心
//-------------------------------------------------------------------------------------------------------------------
void uart_gpio_init(UARTPIN_enum tx_pin, UARTPIN_enum rx_pin)
{
    3850:	1101                	addi	sp,sp,-32
    3852:	ce06                	sw	ra,28(sp)
    3854:	cc22                	sw	s0,24(sp)
    3856:	1000                	addi	s0,sp,32
    3858:	fea42623          	sw	a0,-20(s0)
    385c:	feb42423          	sw	a1,-24(s0)
D:\Car\sure code\slave_school\obj/../Libraries/seekfree_libraries/zf_uart.c:39
    if(tx_pin == UART1_TX_A9 && rx_pin == UART1_RX_A10)
    3860:	fec42783          	lw	a5,-20(s0)
    3864:	e785                	bnez	a5,388c <uart_gpio_init+0x3c>
D:\Car\sure code\slave_school\obj/../Libraries/seekfree_libraries/zf_uart.c:39 (discriminator 1)
    3866:	fe842703          	lw	a4,-24(s0)
    386a:	4785                	li	a5,1
    386c:	02f71063          	bne	a4,a5,388c <uart_gpio_init+0x3c>
D:\Car\sure code\slave_school\obj/../Libraries/seekfree_libraries/zf_uart.c:41
    {
        gpio_init(A9, GPO, 0, SPEED_50MHZ|OUT_AF_PP);
    3870:	31800693          	li	a3,792
    3874:	4601                	li	a2,0
    3876:	4585                	li	a1,1
    3878:	4525                	li	a0,9
    387a:	e2aff0ef          	jal	ra,2ea4 <gpio_init>
D:\Car\sure code\slave_school\obj/../Libraries/seekfree_libraries/zf_uart.c:42
        gpio_init(A10, GPI, 0, IN_FLOAT);
    387e:	4691                	li	a3,4
    3880:	4601                	li	a2,0
    3882:	4581                	li	a1,0
    3884:	4529                	li	a0,10
    3886:	e1eff0ef          	jal	ra,2ea4 <gpio_init>
D:\Car\sure code\slave_school\obj/../Libraries/seekfree_libraries/zf_uart.c:67
    else if(tx_pin == UART3_TX_C10)
    {
        gpio_init(C10, GPO, 0, SPEED_50MHZ|OUT_AF_PP);
        gpio_init(C11, GPI, 0, IN_FLOAT);
    }
}
    388a:	a065                	j	3932 <uart_gpio_init+0xe2>
D:\Car\sure code\slave_school\obj/../Libraries/seekfree_libraries/zf_uart.c:44
    else if(tx_pin == UART1_TX_B6)
    388c:	fec42703          	lw	a4,-20(s0)
    3890:	4789                	li	a5,2
    3892:	02f71263          	bne	a4,a5,38b6 <uart_gpio_init+0x66>
D:\Car\sure code\slave_school\obj/../Libraries/seekfree_libraries/zf_uart.c:46
        gpio_init(B6, GPO, 0, SPEED_50MHZ|OUT_AF_PP);
    3896:	31800693          	li	a3,792
    389a:	4601                	li	a2,0
    389c:	4585                	li	a1,1
    389e:	02600513          	li	a0,38
    38a2:	e02ff0ef          	jal	ra,2ea4 <gpio_init>
D:\Car\sure code\slave_school\obj/../Libraries/seekfree_libraries/zf_uart.c:47
        gpio_init(B7, GPI, 0, IN_FLOAT);
    38a6:	4691                	li	a3,4
    38a8:	4601                	li	a2,0
    38aa:	4581                	li	a1,0
    38ac:	02700513          	li	a0,39
    38b0:	df4ff0ef          	jal	ra,2ea4 <gpio_init>
D:\Car\sure code\slave_school\obj/../Libraries/seekfree_libraries/zf_uart.c:67
}
    38b4:	a8bd                	j	3932 <uart_gpio_init+0xe2>
D:\Car\sure code\slave_school\obj/../Libraries/seekfree_libraries/zf_uart.c:50
    else if(tx_pin == UART2_TX_A2)
    38b6:	fec42703          	lw	a4,-20(s0)
    38ba:	47c1                	li	a5,16
    38bc:	02f71063          	bne	a4,a5,38dc <uart_gpio_init+0x8c>
D:\Car\sure code\slave_school\obj/../Libraries/seekfree_libraries/zf_uart.c:52
        gpio_init(A2, GPO, 0, SPEED_50MHZ|OUT_AF_PP);
    38c0:	31800693          	li	a3,792
    38c4:	4601                	li	a2,0
    38c6:	4585                	li	a1,1
    38c8:	4509                	li	a0,2
    38ca:	ddaff0ef          	jal	ra,2ea4 <gpio_init>
D:\Car\sure code\slave_school\obj/../Libraries/seekfree_libraries/zf_uart.c:53
        gpio_init(A3, GPI, 0, IN_FLOAT);
    38ce:	4691                	li	a3,4
    38d0:	4601                	li	a2,0
    38d2:	4581                	li	a1,0
    38d4:	450d                	li	a0,3
    38d6:	dceff0ef          	jal	ra,2ea4 <gpio_init>
D:\Car\sure code\slave_school\obj/../Libraries/seekfree_libraries/zf_uart.c:67
}
    38da:	a8a1                	j	3932 <uart_gpio_init+0xe2>
D:\Car\sure code\slave_school\obj/../Libraries/seekfree_libraries/zf_uart.c:56
    else if(tx_pin == UART3_TX_B10)
    38dc:	fec42703          	lw	a4,-20(s0)
    38e0:	02000793          	li	a5,32
    38e4:	02f71263          	bne	a4,a5,3908 <uart_gpio_init+0xb8>
D:\Car\sure code\slave_school\obj/../Libraries/seekfree_libraries/zf_uart.c:58
        gpio_init(B10, GPO, 0, SPEED_50MHZ|OUT_AF_PP);
    38e8:	31800693          	li	a3,792
    38ec:	4601                	li	a2,0
    38ee:	4585                	li	a1,1
    38f0:	02a00513          	li	a0,42
    38f4:	db0ff0ef          	jal	ra,2ea4 <gpio_init>
D:\Car\sure code\slave_school\obj/../Libraries/seekfree_libraries/zf_uart.c:59
        gpio_init(B11, GPI, 0, IN_FLOAT);
    38f8:	4691                	li	a3,4
    38fa:	4601                	li	a2,0
    38fc:	4581                	li	a1,0
    38fe:	02b00513          	li	a0,43
    3902:	da2ff0ef          	jal	ra,2ea4 <gpio_init>
D:\Car\sure code\slave_school\obj/../Libraries/seekfree_libraries/zf_uart.c:67
}
    3906:	a035                	j	3932 <uart_gpio_init+0xe2>
D:\Car\sure code\slave_school\obj/../Libraries/seekfree_libraries/zf_uart.c:62
    else if(tx_pin == UART3_TX_C10)
    3908:	fec42703          	lw	a4,-20(s0)
    390c:	02200793          	li	a5,34
    3910:	02f71163          	bne	a4,a5,3932 <uart_gpio_init+0xe2>
D:\Car\sure code\slave_school\obj/../Libraries/seekfree_libraries/zf_uart.c:64
        gpio_init(C10, GPO, 0, SPEED_50MHZ|OUT_AF_PP);
    3914:	31800693          	li	a3,792
    3918:	4601                	li	a2,0
    391a:	4585                	li	a1,1
    391c:	04a00513          	li	a0,74
    3920:	d84ff0ef          	jal	ra,2ea4 <gpio_init>
D:\Car\sure code\slave_school\obj/../Libraries/seekfree_libraries/zf_uart.c:65
        gpio_init(C11, GPI, 0, IN_FLOAT);
    3924:	4691                	li	a3,4
    3926:	4601                	li	a2,0
    3928:	4581                	li	a1,0
    392a:	04b00513          	li	a0,75
    392e:	d76ff0ef          	jal	ra,2ea4 <gpio_init>
D:\Car\sure code\slave_school\obj/../Libraries/seekfree_libraries/zf_uart.c:67
}
    3932:	0001                	nop
    3934:	40f2                	lw	ra,28(sp)
    3936:	4462                	lw	s0,24(sp)
    3938:	6105                	addi	sp,sp,32
    393a:	8082                	ret

0000393c <uart_init>:
uart_init():
D:\Car\sure code\slave_school\obj/../Libraries/seekfree_libraries/zf_uart.c:79
//  @param      rx_pin      串口接收引脚号
//  @return     void
//  Sample usage:           uart_init(UART_1, 115200, UART1_TX_A9, UART1_RX_A10); //串口1初始化引脚号,TX为A9,RX为A10
//-------------------------------------------------------------------------------------------------------------------
void uart_init(UARTN_enum uartn, uint32 baud, UARTPIN_enum tx_pin, UARTPIN_enum rx_pin)
{
    393c:	7179                	addi	sp,sp,-48
    393e:	d606                	sw	ra,44(sp)
    3940:	d422                	sw	s0,40(sp)
    3942:	1800                	addi	s0,sp,48
    3944:	fca42e23          	sw	a0,-36(s0)
    3948:	fcb42c23          	sw	a1,-40(s0)
    394c:	fcc42a23          	sw	a2,-44(s0)
    3950:	fcd42823          	sw	a3,-48(s0)
D:\Car\sure code\slave_school\obj/../Libraries/seekfree_libraries/zf_uart.c:83
    USART_InitTypeDef USART_InitStructure;


    RCC_APB2PeriphClockCmd(RCC_APB2Periph_AFIO, ENABLE);
    3954:	4585                	li	a1,1
    3956:	4505                	li	a0,1
    3958:	a8afe0ef          	jal	ra,1be2 <RCC_APB2PeriphClockCmd>
D:\Car\sure code\slave_school\obj/../Libraries/seekfree_libraries/zf_uart.c:86

    //引脚初始化
    uart_gpio_init(tx_pin, rx_pin);
    395c:	fd042583          	lw	a1,-48(s0)
    3960:	fd442503          	lw	a0,-44(s0)
    3964:	35f5                	jal	3850 <uart_gpio_init>
D:\Car\sure code\slave_school\obj/../Libraries/seekfree_libraries/zf_uart.c:88

    if(UART1_TX_B6 == tx_pin && UART1_RX_B7 == rx_pin)                         //引脚重映射
    3966:	fd442703          	lw	a4,-44(s0)
    396a:	4789                	li	a5,2
    396c:	00f71b63          	bne	a4,a5,3982 <uart_init+0x46>
D:\Car\sure code\slave_school\obj/../Libraries/seekfree_libraries/zf_uart.c:88 (discriminator 1)
    3970:	fd042703          	lw	a4,-48(s0)
    3974:	478d                	li	a5,3
    3976:	00f71663          	bne	a4,a5,3982 <uart_init+0x46>
D:\Car\sure code\slave_school\obj/../Libraries/seekfree_libraries/zf_uart.c:89
        GPIO_PinRemapConfig(GPIO_Remap_USART1, ENABLE);
    397a:	4585                	li	a1,1
    397c:	4511                	li	a0,4
    397e:	cd5fd0ef          	jal	ra,1652 <GPIO_PinRemapConfig>
D:\Car\sure code\slave_school\obj/../Libraries/seekfree_libraries/zf_uart.c:90
    if(UART3_TX_C10 == tx_pin && UART3_RX_C11 == rx_pin)
    3982:	fd442703          	lw	a4,-44(s0)
    3986:	02200793          	li	a5,34
    398a:	00f71f63          	bne	a4,a5,39a8 <uart_init+0x6c>
D:\Car\sure code\slave_school\obj/../Libraries/seekfree_libraries/zf_uart.c:90 (discriminator 1)
    398e:	fd042703          	lw	a4,-48(s0)
    3992:	02300793          	li	a5,35
    3996:	00f71963          	bne	a4,a5,39a8 <uart_init+0x6c>
D:\Car\sure code\slave_school\obj/../Libraries/seekfree_libraries/zf_uart.c:91
        GPIO_PinRemapConfig(GPIO_PartialRemap_USART3, ENABLE);
    399a:	4585                	li	a1,1
    399c:	001407b7          	lui	a5,0x140
    39a0:	01078513          	addi	a0,a5,16 # 140010 <_data_lma+0x13a84c>
    39a4:	caffd0ef          	jal	ra,1652 <GPIO_PinRemapConfig>
D:\Car\sure code\slave_school\obj/../Libraries/seekfree_libraries/zf_uart.c:94

    //串口总线使能
    if(UART_1 == uartn) RCC_APB2PeriphClockCmd(RCC_APB2Periph_USART1, ENABLE);
    39a8:	fdc42783          	lw	a5,-36(s0)
    39ac:	e791                	bnez	a5,39b8 <uart_init+0x7c>
D:\Car\sure code\slave_school\obj/../Libraries/seekfree_libraries/zf_uart.c:94 (discriminator 1)
    39ae:	4585                	li	a1,1
    39b0:	6511                	lui	a0,0x4
    39b2:	a30fe0ef          	jal	ra,1be2 <RCC_APB2PeriphClockCmd>
    39b6:	a035                	j	39e2 <uart_init+0xa6>
D:\Car\sure code\slave_school\obj/../Libraries/seekfree_libraries/zf_uart.c:95
    else if(UART_2 == uartn) RCC_APB1PeriphClockCmd(RCC_APB1Periph_USART2, ENABLE);
    39b8:	fdc42703          	lw	a4,-36(s0)
    39bc:	4785                	li	a5,1
    39be:	00f71863          	bne	a4,a5,39ce <uart_init+0x92>
D:\Car\sure code\slave_school\obj/../Libraries/seekfree_libraries/zf_uart.c:95 (discriminator 1)
    39c2:	4585                	li	a1,1
    39c4:	00020537          	lui	a0,0x20
    39c8:	a60fe0ef          	jal	ra,1c28 <RCC_APB1PeriphClockCmd>
    39cc:	a819                	j	39e2 <uart_init+0xa6>
D:\Car\sure code\slave_school\obj/../Libraries/seekfree_libraries/zf_uart.c:96
    else if(UART_3 == uartn) RCC_APB1PeriphClockCmd(RCC_APB1Periph_USART3, ENABLE);
    39ce:	fdc42703          	lw	a4,-36(s0)
    39d2:	4789                	li	a5,2
    39d4:	00f71763          	bne	a4,a5,39e2 <uart_init+0xa6>
D:\Car\sure code\slave_school\obj/../Libraries/seekfree_libraries/zf_uart.c:96 (discriminator 1)
    39d8:	4585                	li	a1,1
    39da:	00040537          	lui	a0,0x40
    39de:	a4afe0ef          	jal	ra,1c28 <RCC_APB1PeriphClockCmd>
D:\Car\sure code\slave_school\obj/../Libraries/seekfree_libraries/zf_uart.c:99

    //串口参数配置
    USART_InitStructure.USART_BaudRate = baud;
    39e2:	fd842783          	lw	a5,-40(s0)
    39e6:	fef42023          	sw	a5,-32(s0)
D:\Car\sure code\slave_school\obj/../Libraries/seekfree_libraries/zf_uart.c:100
    USART_InitStructure.USART_WordLength = USART_WordLength_8b;
    39ea:	fe041223          	sh	zero,-28(s0)
D:\Car\sure code\slave_school\obj/../Libraries/seekfree_libraries/zf_uart.c:101
    USART_InitStructure.USART_StopBits = USART_StopBits_1;
    39ee:	fe041323          	sh	zero,-26(s0)
D:\Car\sure code\slave_school\obj/../Libraries/seekfree_libraries/zf_uart.c:102
    USART_InitStructure.USART_Parity = USART_Parity_No;
    39f2:	fe041423          	sh	zero,-24(s0)
D:\Car\sure code\slave_school\obj/../Libraries/seekfree_libraries/zf_uart.c:103
    USART_InitStructure.USART_HardwareFlowControl = USART_HardwareFlowControl_None;
    39f6:	fe041623          	sh	zero,-20(s0)
D:\Car\sure code\slave_school\obj/../Libraries/seekfree_libraries/zf_uart.c:104
    USART_InitStructure.USART_Mode = USART_Mode_Tx | USART_Mode_Rx;
    39fa:	47b1                	li	a5,12
    39fc:	fef41523          	sh	a5,-22(s0)
D:\Car\sure code\slave_school\obj/../Libraries/seekfree_libraries/zf_uart.c:107

    //使能串口
    USART_Init((USART_TypeDef*)UARTN[uartn], &USART_InitStructure);
    3a00:	6795                	lui	a5,0x5
    3a02:	fdc42703          	lw	a4,-36(s0)
    3a06:	070a                	slli	a4,a4,0x2
    3a08:	6c078793          	addi	a5,a5,1728 # 56c0 <UARTN>
    3a0c:	97ba                	add	a5,a5,a4
    3a0e:	439c                	lw	a5,0(a5)
    3a10:	873e                	mv	a4,a5
    3a12:	fe040793          	addi	a5,s0,-32
    3a16:	85be                	mv	a1,a5
    3a18:	853a                	mv	a0,a4
    3a1a:	83bfe0ef          	jal	ra,2254 <USART_Init>
D:\Car\sure code\slave_school\obj/../Libraries/seekfree_libraries/zf_uart.c:108
    USART_Cmd((USART_TypeDef*)UARTN[uartn], ENABLE);
    3a1e:	6795                	lui	a5,0x5
    3a20:	fdc42703          	lw	a4,-36(s0)
    3a24:	070a                	slli	a4,a4,0x2
    3a26:	6c078793          	addi	a5,a5,1728 # 56c0 <UARTN>
    3a2a:	97ba                	add	a5,a5,a4
    3a2c:	439c                	lw	a5,0(a5)
    3a2e:	4585                	li	a1,1
    3a30:	853e                	mv	a0,a5
    3a32:	a57fe0ef          	jal	ra,2488 <USART_Cmd>
D:\Car\sure code\slave_school\obj/../Libraries/seekfree_libraries/zf_uart.c:111


}
    3a36:	0001                	nop
    3a38:	50b2                	lw	ra,44(sp)
    3a3a:	5422                	lw	s0,40(sp)
    3a3c:	6145                	addi	sp,sp,48
    3a3e:	8082                	ret

00003a40 <uart_putchar>:
uart_putchar():
D:\Car\sure code\slave_school\obj/../Libraries/seekfree_libraries/zf_uart.c:122
//  @param      dat         串口数据
//  @return     void
//  Sample usage:           uart_putchar(UART_1, 0x43);        //串口1发送0x43。
//-------------------------------------------------------------------------------------------------------------------
void uart_putchar(UARTN_enum uartn, uint8 dat)
{
    3a40:	1101                	addi	sp,sp,-32
    3a42:	ce22                	sw	s0,28(sp)
    3a44:	1000                	addi	s0,sp,32
    3a46:	fea42623          	sw	a0,-20(s0)
    3a4a:	87ae                	mv	a5,a1
    3a4c:	fef405a3          	sb	a5,-21(s0)
D:\Car\sure code\slave_school\obj/../Libraries/seekfree_libraries/zf_uart.c:123
    while((((USART_TypeDef*)UARTN[uartn])->STATR & USART_FLAG_TXE)==0);
    3a50:	0001                	nop
D:\Car\sure code\slave_school\obj/../Libraries/seekfree_libraries/zf_uart.c:123 (discriminator 1)
    3a52:	6795                	lui	a5,0x5
    3a54:	fec42703          	lw	a4,-20(s0)
    3a58:	070a                	slli	a4,a4,0x2
    3a5a:	6c078793          	addi	a5,a5,1728 # 56c0 <UARTN>
    3a5e:	97ba                	add	a5,a5,a4
    3a60:	439c                	lw	a5,0(a5)
    3a62:	0007d783          	lhu	a5,0(a5)
    3a66:	07c2                	slli	a5,a5,0x10
    3a68:	83c1                	srli	a5,a5,0x10
    3a6a:	0807f793          	andi	a5,a5,128
    3a6e:	d3f5                	beqz	a5,3a52 <uart_putchar+0x12>
D:\Car\sure code\slave_school\obj/../Libraries/seekfree_libraries/zf_uart.c:124
    ((USART_TypeDef*)UARTN[uartn])->DATAR = dat;
    3a70:	6795                	lui	a5,0x5
    3a72:	fec42703          	lw	a4,-20(s0)
    3a76:	070a                	slli	a4,a4,0x2
    3a78:	6c078793          	addi	a5,a5,1728 # 56c0 <UARTN>
    3a7c:	97ba                	add	a5,a5,a4
    3a7e:	439c                	lw	a5,0(a5)
    3a80:	873e                	mv	a4,a5
    3a82:	feb44783          	lbu	a5,-21(s0)
    3a86:	07c2                	slli	a5,a5,0x10
    3a88:	83c1                	srli	a5,a5,0x10
    3a8a:	00f71223          	sh	a5,4(a4) # e000f004 <_eusrstack+0xc000a004>
D:\Car\sure code\slave_school\obj/../Libraries/seekfree_libraries/zf_uart.c:125
}
    3a8e:	0001                	nop
    3a90:	4472                	lw	s0,28(sp)
    3a92:	6105                	addi	sp,sp,32
    3a94:	8082                	ret

00003a96 <uart_putbuff>:
uart_putbuff():
D:\Car\sure code\slave_school\obj/../Libraries/seekfree_libraries/zf_uart.c:136
//  @param      len         数据长度
//  @return     void
//  Sample usage:           uart_putbuff(UART_1, buff, 10);     //串口1发送10个buff数组。
//-------------------------------------------------------------------------------------------------------------------
void uart_putbuff(UARTN_enum uartn, uint8 *buff, uint32 len)
{
    3a96:	1101                	addi	sp,sp,-32
    3a98:	ce06                	sw	ra,28(sp)
    3a9a:	cc22                	sw	s0,24(sp)
    3a9c:	1000                	addi	s0,sp,32
    3a9e:	fea42623          	sw	a0,-20(s0)
    3aa2:	feb42423          	sw	a1,-24(s0)
    3aa6:	fec42223          	sw	a2,-28(s0)
D:\Car\sure code\slave_school\obj/../Libraries/seekfree_libraries/zf_uart.c:137
    while(len--)
    3aaa:	a829                	j	3ac4 <uart_putbuff+0x2e>
D:\Car\sure code\slave_school\obj/../Libraries/seekfree_libraries/zf_uart.c:138
        uart_putchar(uartn, *buff++);
    3aac:	fe842783          	lw	a5,-24(s0)
    3ab0:	00178713          	addi	a4,a5,1
    3ab4:	fee42423          	sw	a4,-24(s0)
    3ab8:	0007c783          	lbu	a5,0(a5)
    3abc:	85be                	mv	a1,a5
    3abe:	fec42503          	lw	a0,-20(s0)
    3ac2:	3fbd                	jal	3a40 <uart_putchar>
D:\Car\sure code\slave_school\obj/../Libraries/seekfree_libraries/zf_uart.c:137
    while(len--)
    3ac4:	fe442783          	lw	a5,-28(s0)
    3ac8:	fff78713          	addi	a4,a5,-1
    3acc:	fee42223          	sw	a4,-28(s0)
    3ad0:	fff1                	bnez	a5,3aac <uart_putbuff+0x16>
D:\Car\sure code\slave_school\obj/../Libraries/seekfree_libraries/zf_uart.c:139
}
    3ad2:	0001                	nop
    3ad4:	40f2                	lw	ra,28(sp)
    3ad6:	4462                	lw	s0,24(sp)
    3ad8:	6105                	addi	sp,sp,32
    3ada:	8082                	ret

00003adc <uart_rx_irq>:
uart_rx_irq():
D:\Car\sure code\slave_school\obj/../Libraries/seekfree_libraries/zf_uart.c:165
//  @param      status      使能或者失能
//  @return     void
//  Sample usage:           uart_rx_irq(UART_1, ENABLE);        //打开串口1接收中断
//-------------------------------------------------------------------------------------------------------------------
void uart_rx_irq(UARTN_enum uartn,uint8 status)
{
    3adc:	1101                	addi	sp,sp,-32
    3ade:	ce06                	sw	ra,28(sp)
    3ae0:	cc22                	sw	s0,24(sp)
    3ae2:	1000                	addi	s0,sp,32
    3ae4:	fea42623          	sw	a0,-20(s0)
    3ae8:	87ae                	mv	a5,a1
    3aea:	fef405a3          	sb	a5,-21(s0)
D:\Car\sure code\slave_school\obj/../Libraries/seekfree_libraries/zf_uart.c:166
    USART_ITConfig(((USART_TypeDef*)UARTN[uartn]), USART_IT_RXNE, ENABLE);
    3aee:	6795                	lui	a5,0x5
    3af0:	fec42703          	lw	a4,-20(s0)
    3af4:	070a                	slli	a4,a4,0x2
    3af6:	6c078793          	addi	a5,a5,1728 # 56c0 <UARTN>
    3afa:	97ba                	add	a5,a5,a4
    3afc:	439c                	lw	a5,0(a5)
    3afe:	4605                	li	a2,1
    3b00:	52500593          	li	a1,1317
    3b04:	853e                	mv	a0,a5
    3b06:	9e3fe0ef          	jal	ra,24e8 <USART_ITConfig>
D:\Car\sure code\slave_school\obj/../Libraries/seekfree_libraries/zf_uart.c:167
    nvic_init(USART1_IRQn + uartn, 1, 0, status);
    3b0a:	fec42783          	lw	a5,-20(s0)
    3b0e:	03578793          	addi	a5,a5,53
    3b12:	feb44703          	lbu	a4,-21(s0)
    3b16:	86ba                	mv	a3,a4
    3b18:	4601                	li	a2,0
    3b1a:	4585                	li	a1,1
    3b1c:	853e                	mv	a0,a5
    3b1e:	e7eff0ef          	jal	ra,319c <nvic_init>
D:\Car\sure code\slave_school\obj/../Libraries/seekfree_libraries/zf_uart.c:168
}
    3b22:	0001                	nop
    3b24:	40f2                	lw	ra,28(sp)
    3b26:	4462                	lw	s0,24(sp)
    3b28:	6105                	addi	sp,sp,32
    3b2a:	8082                	ret

00003b2c <board_init>:
board_init():
D:\Car\sure code\slave_school\obj/../Libraries/board/board.c:9




void board_init(void)
{
    3b2c:	1141                	addi	sp,sp,-16
    3b2e:	c606                	sw	ra,12(sp)
    3b30:	c422                	sw	s0,8(sp)
    3b32:	0800                	addi	s0,sp,16
D:\Car\sure code\slave_school\obj/../Libraries/board/board.c:11
    //获取系统主频
    sys_clk = 8000000 * (((RCC->CFGR0 >> 18)&0x0F) + 2);
    3b34:	400217b7          	lui	a5,0x40021
    3b38:	43dc                	lw	a5,4(a5)
    3b3a:	83c9                	srli	a5,a5,0x12
    3b3c:	00f7f713          	andi	a4,a5,15
    3b40:	007a17b7          	lui	a5,0x7a1
    3b44:	20078793          	addi	a5,a5,512 # 7a1200 <_data_lma+0x79ba3c>
    3b48:	02f70733          	mul	a4,a4,a5
    3b4c:	00f427b7          	lui	a5,0xf42
    3b50:	40078793          	addi	a5,a5,1024 # f42400 <_data_lma+0xf3cc3c>
    3b54:	973e                	add	a4,a4,a5
    3b56:	82e1ac23          	sw	a4,-1992(gp) # 200000f0 <sys_clk>
D:\Car\sure code\slave_school\obj/../Libraries/board/board.c:13
    //初始化DEBUG串口
    uart_init(DEBUG_UART, DEBUG_UART_BAUD, DEBUG_UART_TX_PIN, DEBUG_UART_RX_PIN);
    3b5a:	02300693          	li	a3,35
    3b5e:	02200613          	li	a2,34
    3b62:	67f1                	lui	a5,0x1c
    3b64:	20078593          	addi	a1,a5,512 # 1c200 <_data_lma+0x16a3c>
    3b68:	4509                	li	a0,2
    3b6a:	dd3ff0ef          	jal	ra,393c <uart_init>
D:\Car\sure code\slave_school\obj/../Libraries/board/board.c:14
}
    3b6e:	0001                	nop
    3b70:	40b2                	lw	ra,12(sp)
    3b72:	4422                	lw	s0,8(sp)
    3b74:	0141                	addi	sp,sp,16
    3b76:	8082                	ret

00003b78 <_write>:
_write():
D:\Car\sure code\slave_school\obj/../Libraries/board/board.c:25
//  @since      v1.0
//  Sample usage:              重定向printf到DEBUG串口上
//-------------------------------------------------------------------------------------------------------------------
#if (1 == PRINTF_ENABLE)
int _write(int fd, char *buf, int size)
{
    3b78:	7179                	addi	sp,sp,-48
    3b7a:	d606                	sw	ra,44(sp)
    3b7c:	d422                	sw	s0,40(sp)
    3b7e:	1800                	addi	s0,sp,48
    3b80:	fca42e23          	sw	a0,-36(s0)
    3b84:	fcb42c23          	sw	a1,-40(s0)
    3b88:	fcc42a23          	sw	a2,-44(s0)
D:\Car\sure code\slave_school\obj/../Libraries/board/board.c:27
    int i;
    for(i=0; i<size; i++)
    3b8c:	fe042623          	sw	zero,-20(s0)
    3b90:	a0a9                	j	3bda <_write+0x62>
D:\Car\sure code\slave_school\obj/../Libraries/board/board.c:29
    {
        while (USART_GetFlagStatus((USART_TypeDef*)UARTN[DEBUG_UART], USART_FLAG_TC) == RESET);
    3b92:	0001                	nop
D:\Car\sure code\slave_school\obj/../Libraries/board/board.c:29 (discriminator 1)
    3b94:	6795                	lui	a5,0x5
    3b96:	6c078793          	addi	a5,a5,1728 # 56c0 <UARTN>
    3b9a:	479c                	lw	a5,8(a5)
    3b9c:	04000593          	li	a1,64
    3ba0:	853e                	mv	a0,a5
    3ba2:	a39fe0ef          	jal	ra,25da <USART_GetFlagStatus>
    3ba6:	87aa                	mv	a5,a0
    3ba8:	d7f5                	beqz	a5,3b94 <_write+0x1c>
D:\Car\sure code\slave_school\obj/../Libraries/board/board.c:30 (discriminator 2)
        USART_SendData((USART_TypeDef*)UARTN[DEBUG_UART], *buf++);
    3baa:	6795                	lui	a5,0x5
    3bac:	6c078793          	addi	a5,a5,1728 # 56c0 <UARTN>
    3bb0:	479c                	lw	a5,8(a5)
    3bb2:	86be                	mv	a3,a5
    3bb4:	fd842783          	lw	a5,-40(s0)
    3bb8:	00178713          	addi	a4,a5,1
    3bbc:	fce42c23          	sw	a4,-40(s0)
    3bc0:	00078783          	lb	a5,0(a5)
    3bc4:	07c2                	slli	a5,a5,0x10
    3bc6:	83c1                	srli	a5,a5,0x10
    3bc8:	85be                	mv	a1,a5
    3bca:	8536                	mv	a0,a3
    3bcc:	9e1fe0ef          	jal	ra,25ac <USART_SendData>
D:\Car\sure code\slave_school\obj/../Libraries/board/board.c:27 (discriminator 2)
    for(i=0; i<size; i++)
    3bd0:	fec42783          	lw	a5,-20(s0)
    3bd4:	0785                	addi	a5,a5,1
    3bd6:	fef42623          	sw	a5,-20(s0)
D:\Car\sure code\slave_school\obj/../Libraries/board/board.c:27 (discriminator 1)
    3bda:	fec42703          	lw	a4,-20(s0)
    3bde:	fd442783          	lw	a5,-44(s0)
    3be2:	faf748e3          	blt	a4,a5,3b92 <_write+0x1a>
D:\Car\sure code\slave_school\obj/../Libraries/board/board.c:32
    }
    return size;
    3be6:	fd442783          	lw	a5,-44(s0)
D:\Car\sure code\slave_school\obj/../Libraries/board/board.c:33
}
    3bea:	853e                	mv	a0,a5
    3bec:	50b2                	lw	ra,44(sp)
    3bee:	5422                	lw	s0,40(sp)
    3bf0:	6145                	addi	sp,sp,48
    3bf2:	8082                	ret

00003bf4 <SetSysClock>:
SetSysClock():
D:\Car\sure code\slave_school\obj/../Libraries/board/clock_config.c:11
* Description    : Sets System clock frequency to 72MHz and configure HCLK, PCLK2 and PCLK1 prescalers.
* Input          : None
* Return         : None
*******************************************************************************************/
static void SetSysClock(void)
{
    3bf4:	1101                	addi	sp,sp,-32
    3bf6:	ce22                	sw	s0,28(sp)
    3bf8:	1000                	addi	s0,sp,32
D:\Car\sure code\slave_school\obj/../Libraries/board/clock_config.c:12
    __IO uint32_t StartUpCounter = 0, HSEStatus = 0;
    3bfa:	fe042623          	sw	zero,-20(s0)
    3bfe:	fe042423          	sw	zero,-24(s0)
D:\Car\sure code\slave_school\obj/../Libraries/board/clock_config.c:14

    RCC->CTLR |= ((uint32_t)RCC_HSEON);
    3c02:	400217b7          	lui	a5,0x40021
    3c06:	4394                	lw	a3,0(a5)
    3c08:	400217b7          	lui	a5,0x40021
    3c0c:	6741                	lui	a4,0x10
    3c0e:	8f55                	or	a4,a4,a3
    3c10:	c398                	sw	a4,0(a5)
D:\Car\sure code\slave_school\obj/../Libraries/board/clock_config.c:19 (discriminator 2)

    /* Wait till HSE is ready and if Time out is reached exit */
    do
    {
        HSEStatus = RCC->CTLR & RCC_HSERDY;
    3c12:	400217b7          	lui	a5,0x40021
    3c16:	4398                	lw	a4,0(a5)
    3c18:	000207b7          	lui	a5,0x20
    3c1c:	8ff9                	and	a5,a5,a4
    3c1e:	fef42423          	sw	a5,-24(s0)
D:\Car\sure code\slave_school\obj/../Libraries/board/clock_config.c:20 (discriminator 2)
        StartUpCounter++;
    3c22:	fec42783          	lw	a5,-20(s0)
    3c26:	0785                	addi	a5,a5,1
    3c28:	fef42623          	sw	a5,-20(s0)
D:\Car\sure code\slave_school\obj/../Libraries/board/clock_config.c:21 (discriminator 2)
    } while((HSEStatus == 0) && (StartUpCounter != HSE_STARTUP_TIMEOUT));
    3c2c:	fe842783          	lw	a5,-24(s0)
    3c30:	e799                	bnez	a5,3c3e <SetSysClock+0x4a>
D:\Car\sure code\slave_school\obj/../Libraries/board/clock_config.c:21 (discriminator 1)
    3c32:	fec42703          	lw	a4,-20(s0)
    3c36:	50000793          	li	a5,1280
    3c3a:	fcf71ce3          	bne	a4,a5,3c12 <SetSysClock+0x1e>
D:\Car\sure code\slave_school\obj/../Libraries/board/clock_config.c:23

    if ((RCC->CTLR & RCC_HSERDY) != RESET)
    3c3e:	400217b7          	lui	a5,0x40021
    3c42:	4398                	lw	a4,0(a5)
    3c44:	000207b7          	lui	a5,0x20
    3c48:	8ff9                	and	a5,a5,a4
    3c4a:	c789                	beqz	a5,3c54 <SetSysClock+0x60>
D:\Car\sure code\slave_school\obj/../Libraries/board/clock_config.c:25
    {
        HSEStatus = (uint32_t)0x01;
    3c4c:	4785                	li	a5,1
    3c4e:	fef42423          	sw	a5,-24(s0)
    3c52:	a019                	j	3c58 <SetSysClock+0x64>
D:\Car\sure code\slave_school\obj/../Libraries/board/clock_config.c:29
    }
    else
    {
        HSEStatus = (uint32_t)0x00;
    3c54:	fe042423          	sw	zero,-24(s0)
D:\Car\sure code\slave_school\obj/../Libraries/board/clock_config.c:32
    }

    if (HSEStatus == (uint32_t)0x01)
    3c58:	fe842703          	lw	a4,-24(s0)
    3c5c:	4785                	li	a5,1
    3c5e:	0cf71763          	bne	a4,a5,3d2c <SetSysClock+0x138>
D:\Car\sure code\slave_school\obj/../Libraries/board/clock_config.c:35
    {
        /* Enable Prefetch Buffer */
        FLASH->ACTLR |= FLASH_ACTLR_PRFTBE;
    3c62:	400227b7          	lui	a5,0x40022
    3c66:	4398                	lw	a4,0(a5)
    3c68:	400227b7          	lui	a5,0x40022
    3c6c:	01076713          	ori	a4,a4,16
    3c70:	c398                	sw	a4,0(a5)
D:\Car\sure code\slave_school\obj/../Libraries/board/clock_config.c:38

        /* Flash 2 wait state */
        FLASH->ACTLR &= (uint32_t)((uint32_t)~FLASH_ACTLR_LATENCY);
    3c72:	400227b7          	lui	a5,0x40022
    3c76:	4398                	lw	a4,0(a5)
    3c78:	400227b7          	lui	a5,0x40022
    3c7c:	9b71                	andi	a4,a4,-4
    3c7e:	c398                	sw	a4,0(a5)
D:\Car\sure code\slave_school\obj/../Libraries/board/clock_config.c:39
        FLASH->ACTLR |= (uint32_t)FLASH_ACTLR_LATENCY_2;
    3c80:	400227b7          	lui	a5,0x40022
    3c84:	4398                	lw	a4,0(a5)
    3c86:	400227b7          	lui	a5,0x40022
    3c8a:	00276713          	ori	a4,a4,2
    3c8e:	c398                	sw	a4,0(a5)
D:\Car\sure code\slave_school\obj/../Libraries/board/clock_config.c:42

        /* HCLK = SYSCLK */
        RCC->CFGR0 |= (uint32_t)RCC_HPRE_DIV1;
    3c90:	40021737          	lui	a4,0x40021
    3c94:	400217b7          	lui	a5,0x40021
    3c98:	4358                	lw	a4,4(a4)
    3c9a:	c3d8                	sw	a4,4(a5)
D:\Car\sure code\slave_school\obj/../Libraries/board/clock_config.c:44
        /* PCLK2 = HCLK */
        RCC->CFGR0 |= (uint32_t)RCC_PPRE2_DIV1;
    3c9c:	40021737          	lui	a4,0x40021
    3ca0:	400217b7          	lui	a5,0x40021
    3ca4:	4358                	lw	a4,4(a4)
    3ca6:	c3d8                	sw	a4,4(a5)
D:\Car\sure code\slave_school\obj/../Libraries/board/clock_config.c:46
        /* PCLK1 = HCLK */
        RCC->CFGR0 |= (uint32_t)RCC_PPRE1_DIV1;
    3ca8:	40021737          	lui	a4,0x40021
    3cac:	400217b7          	lui	a5,0x40021
    3cb0:	4358                	lw	a4,4(a4)
    3cb2:	c3d8                	sw	a4,4(a5)
D:\Car\sure code\slave_school\obj/../Libraries/board/clock_config.c:49


        RCC->CFGR0 &= (uint32_t)((uint32_t)~(RCC_PLLSRC | RCC_PLLXTPRE |
    3cb4:	400217b7          	lui	a5,0x40021
    3cb8:	43d4                	lw	a3,4(a5)
    3cba:	400217b7          	lui	a5,0x40021
    3cbe:	ffc10737          	lui	a4,0xffc10
    3cc2:	177d                	addi	a4,a4,-1
    3cc4:	8f75                	and	a4,a4,a3
    3cc6:	c3d8                	sw	a4,4(a5)
D:\Car\sure code\slave_school\obj/../Libraries/board/clock_config.c:52
                                            RCC_PLLMULL));
        /*  PLL configuration: PLLCLK = HSE * ?  */
        RCC->CFGR0 |= (uint32_t)(RCC_PLLSRC_HSE | RCC_PLLMULL11);
    3cc8:	400217b7          	lui	a5,0x40021
    3ccc:	43d4                	lw	a3,4(a5)
    3cce:	400217b7          	lui	a5,0x40021
    3cd2:	00250737          	lui	a4,0x250
    3cd6:	8f55                	or	a4,a4,a3
    3cd8:	c3d8                	sw	a4,4(a5)
D:\Car\sure code\slave_school\obj/../Libraries/board/clock_config.c:54
        /* Enable PLL */
        RCC->CTLR |= RCC_PLLON;
    3cda:	400217b7          	lui	a5,0x40021
    3cde:	4394                	lw	a3,0(a5)
    3ce0:	400217b7          	lui	a5,0x40021
    3ce4:	01000737          	lui	a4,0x1000
    3ce8:	8f55                	or	a4,a4,a3
    3cea:	c398                	sw	a4,0(a5)
D:\Car\sure code\slave_school\obj/../Libraries/board/clock_config.c:56
        /* Wait till PLL is ready */
        while((RCC->CTLR & RCC_PLLRDY) == 0)
    3cec:	0001                	nop
D:\Car\sure code\slave_school\obj/../Libraries/board/clock_config.c:56 (discriminator 1)
    3cee:	400217b7          	lui	a5,0x40021
    3cf2:	4398                	lw	a4,0(a5)
    3cf4:	020007b7          	lui	a5,0x2000
    3cf8:	8ff9                	and	a5,a5,a4
    3cfa:	dbf5                	beqz	a5,3cee <SetSysClock+0xfa>
D:\Car\sure code\slave_school\obj/../Libraries/board/clock_config.c:60
        {
        }
        /* Select PLL as system clock source */
        RCC->CFGR0 &= (uint32_t)((uint32_t)~(RCC_SW));
    3cfc:	400217b7          	lui	a5,0x40021
    3d00:	43d8                	lw	a4,4(a5)
    3d02:	400217b7          	lui	a5,0x40021
    3d06:	9b71                	andi	a4,a4,-4
    3d08:	c3d8                	sw	a4,4(a5)
D:\Car\sure code\slave_school\obj/../Libraries/board/clock_config.c:61
        RCC->CFGR0 |= (uint32_t)RCC_SW_PLL;
    3d0a:	400217b7          	lui	a5,0x40021
    3d0e:	43d8                	lw	a4,4(a5)
    3d10:	400217b7          	lui	a5,0x40021
    3d14:	00276713          	ori	a4,a4,2
    3d18:	c3d8                	sw	a4,4(a5)
D:\Car\sure code\slave_school\obj/../Libraries/board/clock_config.c:63
        /* Wait till PLL is used as system clock source */
        while ((RCC->CFGR0 & (uint32_t)RCC_SWS) != (uint32_t)0x08)
    3d1a:	0001                	nop
D:\Car\sure code\slave_school\obj/../Libraries/board/clock_config.c:63 (discriminator 1)
    3d1c:	400217b7          	lui	a5,0x40021
    3d20:	43dc                	lw	a5,4(a5)
    3d22:	00c7f713          	andi	a4,a5,12
    3d26:	47a1                	li	a5,8
    3d28:	fef71ae3          	bne	a4,a5,3d1c <SetSysClock+0x128>
D:\Car\sure code\slave_school\obj/../Libraries/board/clock_config.c:74
        /*
         * If HSE fails to start-up, the application will have wrong clock
     * configuration. User can add here some code to deal with this error
         */
    }
}
    3d2c:	0001                	nop
    3d2e:	4472                	lw	s0,28(sp)
    3d30:	6105                	addi	sp,sp,32
    3d32:	8082                	ret

00003d34 <SystemInit>:
SystemInit():
D:\Car\sure code\slave_school\obj/../Libraries/board/clock_config.c:84
*                  the PLL and update the SystemCoreClock variable.
* Input          : None
* Return         : None
*******************************************************************************************/
void SystemInit (void)
{
    3d34:	1141                	addi	sp,sp,-16
    3d36:	c606                	sw	ra,12(sp)
    3d38:	c422                	sw	s0,8(sp)
    3d3a:	0800                	addi	s0,sp,16
D:\Car\sure code\slave_school\obj/../Libraries/board/clock_config.c:85
    RCC->CTLR |= (uint32_t)0x00000001;
    3d3c:	400217b7          	lui	a5,0x40021
    3d40:	4398                	lw	a4,0(a5)
    3d42:	400217b7          	lui	a5,0x40021
    3d46:	00176713          	ori	a4,a4,1
    3d4a:	c398                	sw	a4,0(a5)
D:\Car\sure code\slave_school\obj/../Libraries/board/clock_config.c:86
    RCC->CFGR0 &= (uint32_t)0xF8FF0000;
    3d4c:	400217b7          	lui	a5,0x40021
    3d50:	43d4                	lw	a3,4(a5)
    3d52:	400217b7          	lui	a5,0x40021
    3d56:	f8ff0737          	lui	a4,0xf8ff0
    3d5a:	8f75                	and	a4,a4,a3
    3d5c:	c3d8                	sw	a4,4(a5)
D:\Car\sure code\slave_school\obj/../Libraries/board/clock_config.c:87
    RCC->CTLR &= (uint32_t)0xFEF6FFFF;
    3d5e:	400217b7          	lui	a5,0x40021
    3d62:	4394                	lw	a3,0(a5)
    3d64:	400217b7          	lui	a5,0x40021
    3d68:	fef70737          	lui	a4,0xfef70
    3d6c:	177d                	addi	a4,a4,-1
    3d6e:	8f75                	and	a4,a4,a3
    3d70:	c398                	sw	a4,0(a5)
D:\Car\sure code\slave_school\obj/../Libraries/board/clock_config.c:88
    RCC->CTLR &= (uint32_t)0xFFFBFFFF;
    3d72:	400217b7          	lui	a5,0x40021
    3d76:	4394                	lw	a3,0(a5)
    3d78:	400217b7          	lui	a5,0x40021
    3d7c:	fffc0737          	lui	a4,0xfffc0
    3d80:	177d                	addi	a4,a4,-1
    3d82:	8f75                	and	a4,a4,a3
    3d84:	c398                	sw	a4,0(a5)
D:\Car\sure code\slave_school\obj/../Libraries/board/clock_config.c:89
    RCC->CFGR0 &= (uint32_t)0xFF80FFFF;
    3d86:	400217b7          	lui	a5,0x40021
    3d8a:	43d4                	lw	a3,4(a5)
    3d8c:	400217b7          	lui	a5,0x40021
    3d90:	ff810737          	lui	a4,0xff810
    3d94:	177d                	addi	a4,a4,-1
    3d96:	8f75                	and	a4,a4,a3
    3d98:	c3d8                	sw	a4,4(a5)
D:\Car\sure code\slave_school\obj/../Libraries/board/clock_config.c:90
    RCC->INTR = 0x009F0000;
    3d9a:	400217b7          	lui	a5,0x40021
    3d9e:	009f0737          	lui	a4,0x9f0
    3da2:	c798                	sw	a4,8(a5)
D:\Car\sure code\slave_school\obj/../Libraries/board/clock_config.c:91
    SetSysClock();
    3da4:	e51ff0ef          	jal	ra,3bf4 <SetSysClock>
D:\Car\sure code\slave_school\obj/../Libraries/board/clock_config.c:92
}
    3da8:	0001                	nop
    3daa:	40b2                	lw	ra,12(sp)
    3dac:	4422                	lw	s0,8(sp)
    3dae:	0141                	addi	sp,sp,16
    3db0:	8082                	ret

00003db2 <button_init>:
button_init():
D:\Car\sure code\slave_school\obj/../CODE/multi_button.c:21
  * @param  pin_level: read the HAL GPIO of the connet button level.
  * @param  active_level: pressed GPIO level.
  * @retval None
  */
void button_init(struct Button* handle, uint8_t(*pin_level)(), uint8_t active_level)
{
    3db2:	1101                	addi	sp,sp,-32
    3db4:	ce06                	sw	ra,28(sp)
    3db6:	cc22                	sw	s0,24(sp)
    3db8:	1000                	addi	s0,sp,32
    3dba:	fea42623          	sw	a0,-20(s0)
    3dbe:	feb42423          	sw	a1,-24(s0)
    3dc2:	87b2                	mv	a5,a2
    3dc4:	fef403a3          	sb	a5,-25(s0)
D:\Car\sure code\slave_school\obj/../CODE/multi_button.c:22
	memset(handle, 0, sizeof(struct Button));
    3dc8:	02800613          	li	a2,40
    3dcc:	4581                	li	a1,0
    3dce:	fec42503          	lw	a0,-20(s0)
    3dd2:	b6efc0ef          	jal	ra,140 <memset>
D:\Car\sure code\slave_school\obj/../CODE/multi_button.c:23
	handle->event = (uint8_t)NONE_PRESS;
    3dd6:	fec42783          	lw	a5,-20(s0)
    3dda:	0027d703          	lhu	a4,2(a5) # 40021002 <_eusrstack+0x2001c002>
    3dde:	f0f77713          	andi	a4,a4,-241
    3de2:	08076713          	ori	a4,a4,128
    3de6:	00e79123          	sh	a4,2(a5)
D:\Car\sure code\slave_school\obj/../CODE/multi_button.c:24
	handle->hal_button_Level = pin_level;
    3dea:	fec42783          	lw	a5,-20(s0)
    3dee:	fe842703          	lw	a4,-24(s0)
    3df2:	c3d8                	sw	a4,4(a5)
D:\Car\sure code\slave_school\obj/../CODE/multi_button.c:25
	handle->button_level = handle->hal_button_Level();
    3df4:	fec42783          	lw	a5,-20(s0)
    3df8:	43dc                	lw	a5,4(a5)
    3dfa:	9782                	jalr	a5
    3dfc:	87aa                	mv	a5,a0
    3dfe:	8b85                	andi	a5,a5,1
    3e00:	0ff7f713          	andi	a4,a5,255
    3e04:	fec42783          	lw	a5,-20(s0)
    3e08:	00f71613          	slli	a2,a4,0xf
    3e0c:	0027d683          	lhu	a3,2(a5)
    3e10:	6721                	lui	a4,0x8
    3e12:	177d                	addi	a4,a4,-1
    3e14:	8f75                	and	a4,a4,a3
    3e16:	86ba                	mv	a3,a4
    3e18:	8732                	mv	a4,a2
    3e1a:	8f55                	or	a4,a4,a3
    3e1c:	00e79123          	sh	a4,2(a5)
D:\Car\sure code\slave_school\obj/../CODE/multi_button.c:26
	handle->active_level = active_level;
    3e20:	fe744783          	lbu	a5,-25(s0)
    3e24:	8b85                	andi	a5,a5,1
    3e26:	0ff7f713          	andi	a4,a5,255
    3e2a:	fec42783          	lw	a5,-20(s0)
    3e2e:	8b05                	andi	a4,a4,1
    3e30:	00e71613          	slli	a2,a4,0xe
    3e34:	0027d683          	lhu	a3,2(a5)
    3e38:	7771                	lui	a4,0xffffc
    3e3a:	177d                	addi	a4,a4,-1
    3e3c:	8f75                	and	a4,a4,a3
    3e3e:	86ba                	mv	a3,a4
    3e40:	8732                	mv	a4,a2
    3e42:	8f55                	or	a4,a4,a3
    3e44:	00e79123          	sh	a4,2(a5)
D:\Car\sure code\slave_school\obj/../CODE/multi_button.c:27
}
    3e48:	0001                	nop
    3e4a:	40f2                	lw	ra,28(sp)
    3e4c:	4462                	lw	s0,24(sp)
    3e4e:	6105                	addi	sp,sp,32
    3e50:	8082                	ret

00003e52 <button_attach>:
button_attach():
D:\Car\sure code\slave_school\obj/../CODE/multi_button.c:37
  * @param  event: trigger event type.
  * @param  cb: callback function.
  * @retval None
  */
void button_attach(struct Button* handle, PressEvent event, BtnCallback cb)
{
    3e52:	1101                	addi	sp,sp,-32
    3e54:	ce22                	sw	s0,28(sp)
    3e56:	1000                	addi	s0,sp,32
    3e58:	fea42623          	sw	a0,-20(s0)
    3e5c:	feb42423          	sw	a1,-24(s0)
    3e60:	fec42223          	sw	a2,-28(s0)
D:\Car\sure code\slave_school\obj/../CODE/multi_button.c:38
	handle->cb[event] = cb;
    3e64:	fec42703          	lw	a4,-20(s0)
    3e68:	fe842783          	lw	a5,-24(s0)
    3e6c:	078a                	slli	a5,a5,0x2
    3e6e:	97ba                	add	a5,a5,a4
    3e70:	fe442703          	lw	a4,-28(s0)
    3e74:	c798                	sw	a4,8(a5)
D:\Car\sure code\slave_school\obj/../CODE/multi_button.c:39
}
    3e76:	0001                	nop
    3e78:	4472                	lw	s0,28(sp)
    3e7a:	6105                	addi	sp,sp,32
    3e7c:	8082                	ret

00003e7e <button_handler>:
button_handler():
D:\Car\sure code\slave_school\obj/../CODE/multi_button.c:57
  * @brief  Button driver core function, driver state machine.
  * @param  handle: the button handle strcut.
  * @retval None
  */
void button_handler(struct Button* handle)
{
    3e7e:	7179                	addi	sp,sp,-48
    3e80:	d606                	sw	ra,44(sp)
    3e82:	d422                	sw	s0,40(sp)
    3e84:	1800                	addi	s0,sp,48
    3e86:	fca42e23          	sw	a0,-36(s0)
D:\Car\sure code\slave_school\obj/../CODE/multi_button.c:58
	uint8_t read_gpio_level = handle->hal_button_Level();
    3e8a:	fdc42783          	lw	a5,-36(s0)
    3e8e:	43dc                	lw	a5,4(a5)
    3e90:	9782                	jalr	a5
    3e92:	87aa                	mv	a5,a0
    3e94:	fef407a3          	sb	a5,-17(s0)
D:\Car\sure code\slave_school\obj/../CODE/multi_button.c:61

	//ticks counter working..
	if((handle->state) > 0) handle->ticks++;
    3e98:	fdc42783          	lw	a5,-36(s0)
    3e9c:	0027d783          	lhu	a5,2(a5)
    3ea0:	7007f793          	andi	a5,a5,1792
    3ea4:	07c2                	slli	a5,a5,0x10
    3ea6:	83c1                	srli	a5,a5,0x10
    3ea8:	cf89                	beqz	a5,3ec2 <button_handler+0x44>
D:\Car\sure code\slave_school\obj/../CODE/multi_button.c:61 (discriminator 1)
    3eaa:	fdc42783          	lw	a5,-36(s0)
    3eae:	0007d783          	lhu	a5,0(a5)
    3eb2:	0785                	addi	a5,a5,1
    3eb4:	01079713          	slli	a4,a5,0x10
    3eb8:	8341                	srli	a4,a4,0x10
    3eba:	fdc42783          	lw	a5,-36(s0)
    3ebe:	00e79023          	sh	a4,0(a5)
D:\Car\sure code\slave_school\obj/../CODE/multi_button.c:64

	/*------------button debounce handle---------------*/
	if(read_gpio_level != handle->button_level) { //not equal to prev one
    3ec2:	fdc42783          	lw	a5,-36(s0)
    3ec6:	439c                	lw	a5,0(a5)
    3ec8:	83fd                	srli	a5,a5,0x1f
    3eca:	0ff7f793          	andi	a5,a5,255
    3ece:	873e                	mv	a4,a5
    3ed0:	fef44783          	lbu	a5,-17(s0)
    3ed4:	08e78563          	beq	a5,a4,3f5e <button_handler+0xe0>
D:\Car\sure code\slave_school\obj/../CODE/multi_button.c:66
		//continue read 3 times same new level change
		if(++(handle->debounce_cnt) >= DEBOUNCE_TICKS) {
    3ed8:	fdc42783          	lw	a5,-36(s0)
    3edc:	439c                	lw	a5,0(a5)
    3ede:	83ed                	srli	a5,a5,0x1b
    3ee0:	8b9d                	andi	a5,a5,7
    3ee2:	0ff7f793          	andi	a5,a5,255
    3ee6:	0785                	addi	a5,a5,1
    3ee8:	8b9d                	andi	a5,a5,7
    3eea:	0ff7f713          	andi	a4,a5,255
    3eee:	fdc42783          	lw	a5,-36(s0)
    3ef2:	8b1d                	andi	a4,a4,7
    3ef4:	00b71613          	slli	a2,a4,0xb
    3ef8:	0027d683          	lhu	a3,2(a5)
    3efc:	7771                	lui	a4,0xffffc
    3efe:	7ff70713          	addi	a4,a4,2047 # ffffc7ff <_eusrstack+0xdfff77ff>
    3f02:	8f75                	and	a4,a4,a3
    3f04:	86ba                	mv	a3,a4
    3f06:	8732                	mv	a4,a2
    3f08:	8f55                	or	a4,a4,a3
    3f0a:	00e79123          	sh	a4,2(a5)
    3f0e:	fdc42783          	lw	a5,-36(s0)
    3f12:	439c                	lw	a5,0(a5)
    3f14:	83ed                	srli	a5,a5,0x1b
    3f16:	8b9d                	andi	a5,a5,7
    3f18:	0ff7f713          	andi	a4,a5,255
    3f1c:	4789                	li	a5,2
    3f1e:	04e7fa63          	bgeu	a5,a4,3f72 <button_handler+0xf4>
D:\Car\sure code\slave_school\obj/../CODE/multi_button.c:67
			handle->button_level = read_gpio_level;
    3f22:	fef44783          	lbu	a5,-17(s0)
    3f26:	8b85                	andi	a5,a5,1
    3f28:	0ff7f713          	andi	a4,a5,255
    3f2c:	fdc42783          	lw	a5,-36(s0)
    3f30:	00f71613          	slli	a2,a4,0xf
    3f34:	0027d683          	lhu	a3,2(a5)
    3f38:	6721                	lui	a4,0x8
    3f3a:	177d                	addi	a4,a4,-1
    3f3c:	8f75                	and	a4,a4,a3
    3f3e:	86ba                	mv	a3,a4
    3f40:	8732                	mv	a4,a2
    3f42:	8f55                	or	a4,a4,a3
    3f44:	00e79123          	sh	a4,2(a5)
D:\Car\sure code\slave_school\obj/../CODE/multi_button.c:68
			handle->debounce_cnt = 0;
    3f48:	fdc42783          	lw	a5,-36(s0)
    3f4c:	0027d683          	lhu	a3,2(a5)
    3f50:	7771                	lui	a4,0xffffc
    3f52:	7ff70713          	addi	a4,a4,2047 # ffffc7ff <_eusrstack+0xdfff77ff>
    3f56:	8f75                	and	a4,a4,a3
    3f58:	00e79123          	sh	a4,2(a5)
    3f5c:	a819                	j	3f72 <button_handler+0xf4>
D:\Car\sure code\slave_school\obj/../CODE/multi_button.c:71
		}
	} else { //leved not change ,counter reset.
		handle->debounce_cnt = 0;
    3f5e:	fdc42783          	lw	a5,-36(s0)
    3f62:	0027d683          	lhu	a3,2(a5)
    3f66:	7771                	lui	a4,0xffffc
    3f68:	7ff70713          	addi	a4,a4,2047 # ffffc7ff <_eusrstack+0xdfff77ff>
    3f6c:	8f75                	and	a4,a4,a3
    3f6e:	00e79123          	sh	a4,2(a5)
D:\Car\sure code\slave_school\obj/../CODE/multi_button.c:75
	}

	/*-----------------State machine-------------------*/
	switch (handle->state) {
    3f72:	fdc42783          	lw	a5,-36(s0)
    3f76:	439c                	lw	a5,0(a5)
    3f78:	83e1                	srli	a5,a5,0x18
    3f7a:	8b9d                	andi	a5,a5,7
    3f7c:	0ff7f793          	andi	a5,a5,255
    3f80:	4715                	li	a4,5
    3f82:	3af76363          	bltu	a4,a5,4328 <button_handler+0x4aa>
    3f86:	00279713          	slli	a4,a5,0x2
    3f8a:	6795                	lui	a5,0x5
    3f8c:	6d078793          	addi	a5,a5,1744 # 56d0 <UARTN+0x10>
    3f90:	97ba                	add	a5,a5,a4
    3f92:	439c                	lw	a5,0(a5)
    3f94:	8782                	jr	a5
D:\Car\sure code\slave_school\obj/../CODE/multi_button.c:77
	case 0:
		if(handle->button_level == handle->active_level) {	//start press down
    3f96:	fdc42783          	lw	a5,-36(s0)
    3f9a:	439c                	lw	a5,0(a5)
    3f9c:	83fd                	srli	a5,a5,0x1f
    3f9e:	0ff7f713          	andi	a4,a5,255
    3fa2:	fdc42783          	lw	a5,-36(s0)
    3fa6:	439c                	lw	a5,0(a5)
    3fa8:	83f9                	srli	a5,a5,0x1e
    3faa:	8b85                	andi	a5,a5,1
    3fac:	0ff7f793          	andi	a5,a5,255
    3fb0:	04f71c63          	bne	a4,a5,4008 <button_handler+0x18a>
D:\Car\sure code\slave_school\obj/../CODE/multi_button.c:78
			handle->event = (uint8_t)PRESS_DOWN;
    3fb4:	fdc42783          	lw	a5,-36(s0)
    3fb8:	0027d703          	lhu	a4,2(a5)
    3fbc:	f0f77713          	andi	a4,a4,-241
    3fc0:	00e79123          	sh	a4,2(a5)
D:\Car\sure code\slave_school\obj/../CODE/multi_button.c:79
			EVENT_CB(PRESS_DOWN);
    3fc4:	fdc42783          	lw	a5,-36(s0)
    3fc8:	479c                	lw	a5,8(a5)
    3fca:	c799                	beqz	a5,3fd8 <button_handler+0x15a>
D:\Car\sure code\slave_school\obj/../CODE/multi_button.c:79 (discriminator 1)
    3fcc:	fdc42783          	lw	a5,-36(s0)
    3fd0:	479c                	lw	a5,8(a5)
    3fd2:	fdc42503          	lw	a0,-36(s0)
    3fd6:	9782                	jalr	a5
D:\Car\sure code\slave_school\obj/../CODE/multi_button.c:80
			handle->ticks = 0;
    3fd8:	fdc42783          	lw	a5,-36(s0)
    3fdc:	00079023          	sh	zero,0(a5)
D:\Car\sure code\slave_school\obj/../CODE/multi_button.c:81
			handle->repeat = 1;
    3fe0:	fdc42783          	lw	a5,-36(s0)
    3fe4:	0027d703          	lhu	a4,2(a5)
    3fe8:	9b41                	andi	a4,a4,-16
    3fea:	00176713          	ori	a4,a4,1
    3fee:	00e79123          	sh	a4,2(a5)
D:\Car\sure code\slave_school\obj/../CODE/multi_button.c:82
			handle->state = 1;
    3ff2:	fdc42783          	lw	a5,-36(s0)
    3ff6:	0027d703          	lhu	a4,2(a5)
    3ffa:	8ff77713          	andi	a4,a4,-1793
    3ffe:	10076713          	ori	a4,a4,256
    4002:	00e79123          	sh	a4,2(a5)
D:\Car\sure code\slave_school\obj/../CODE/multi_button.c:86
		} else {
			handle->event = (uint8_t)NONE_PRESS;
		}
		break;
    4006:	a60d                	j	4328 <button_handler+0x4aa>
D:\Car\sure code\slave_school\obj/../CODE/multi_button.c:84
			handle->event = (uint8_t)NONE_PRESS;
    4008:	fdc42783          	lw	a5,-36(s0)
    400c:	0027d703          	lhu	a4,2(a5)
    4010:	f0f77713          	andi	a4,a4,-241
    4014:	08076713          	ori	a4,a4,128
    4018:	00e79123          	sh	a4,2(a5)
D:\Car\sure code\slave_school\obj/../CODE/multi_button.c:86
		break;
    401c:	a631                	j	4328 <button_handler+0x4aa>
D:\Car\sure code\slave_school\obj/../CODE/multi_button.c:89

	case 1:
		if(handle->button_level != handle->active_level) { //released press up
    401e:	fdc42783          	lw	a5,-36(s0)
    4022:	439c                	lw	a5,0(a5)
    4024:	83fd                	srli	a5,a5,0x1f
    4026:	0ff7f713          	andi	a4,a5,255
    402a:	fdc42783          	lw	a5,-36(s0)
    402e:	439c                	lw	a5,0(a5)
    4030:	83f9                	srli	a5,a5,0x1e
    4032:	8b85                	andi	a5,a5,1
    4034:	0ff7f793          	andi	a5,a5,255
    4038:	04f70563          	beq	a4,a5,4082 <button_handler+0x204>
D:\Car\sure code\slave_school\obj/../CODE/multi_button.c:90
			handle->event = (uint8_t)PRESS_UP;
    403c:	fdc42783          	lw	a5,-36(s0)
    4040:	0027d703          	lhu	a4,2(a5)
    4044:	f0f77713          	andi	a4,a4,-241
    4048:	01076713          	ori	a4,a4,16
    404c:	00e79123          	sh	a4,2(a5)
D:\Car\sure code\slave_school\obj/../CODE/multi_button.c:91
			EVENT_CB(PRESS_UP);
    4050:	fdc42783          	lw	a5,-36(s0)
    4054:	47dc                	lw	a5,12(a5)
    4056:	c799                	beqz	a5,4064 <button_handler+0x1e6>
D:\Car\sure code\slave_school\obj/../CODE/multi_button.c:91 (discriminator 1)
    4058:	fdc42783          	lw	a5,-36(s0)
    405c:	47dc                	lw	a5,12(a5)
    405e:	fdc42503          	lw	a0,-36(s0)
    4062:	9782                	jalr	a5
D:\Car\sure code\slave_school\obj/../CODE/multi_button.c:92
			handle->ticks = 0;
    4064:	fdc42783          	lw	a5,-36(s0)
    4068:	00079023          	sh	zero,0(a5)
D:\Car\sure code\slave_school\obj/../CODE/multi_button.c:93
			handle->state = 2;
    406c:	fdc42783          	lw	a5,-36(s0)
    4070:	0027d703          	lhu	a4,2(a5)
    4074:	8ff77713          	andi	a4,a4,-1793
    4078:	20076713          	ori	a4,a4,512
    407c:	00e79123          	sh	a4,2(a5)
D:\Car\sure code\slave_school\obj/../CODE/multi_button.c:100
		} else if(handle->ticks > LONG_TICKS) {
			handle->event = (uint8_t)LONG_PRESS_START;
			EVENT_CB(LONG_PRESS_START);
			handle->state = 5;
		}
		break;
    4080:	ac69                	j	431a <button_handler+0x49c>
D:\Car\sure code\slave_school\obj/../CODE/multi_button.c:95
		} else if(handle->ticks > LONG_TICKS) {
    4082:	fdc42783          	lw	a5,-36(s0)
    4086:	0007d703          	lhu	a4,0(a5)
    408a:	0c800793          	li	a5,200
    408e:	28e7f663          	bgeu	a5,a4,431a <button_handler+0x49c>
D:\Car\sure code\slave_school\obj/../CODE/multi_button.c:96
			handle->event = (uint8_t)LONG_PRESS_START;
    4092:	fdc42783          	lw	a5,-36(s0)
    4096:	0027d703          	lhu	a4,2(a5)
    409a:	f0f77713          	andi	a4,a4,-241
    409e:	05076713          	ori	a4,a4,80
    40a2:	00e79123          	sh	a4,2(a5)
D:\Car\sure code\slave_school\obj/../CODE/multi_button.c:97
			EVENT_CB(LONG_PRESS_START);
    40a6:	fdc42783          	lw	a5,-36(s0)
    40aa:	4fdc                	lw	a5,28(a5)
    40ac:	c799                	beqz	a5,40ba <button_handler+0x23c>
D:\Car\sure code\slave_school\obj/../CODE/multi_button.c:97 (discriminator 1)
    40ae:	fdc42783          	lw	a5,-36(s0)
    40b2:	4fdc                	lw	a5,28(a5)
    40b4:	fdc42503          	lw	a0,-36(s0)
    40b8:	9782                	jalr	a5
D:\Car\sure code\slave_school\obj/../CODE/multi_button.c:98
			handle->state = 5;
    40ba:	fdc42783          	lw	a5,-36(s0)
    40be:	0027d703          	lhu	a4,2(a5)
    40c2:	8ff77713          	andi	a4,a4,-1793
    40c6:	50076713          	ori	a4,a4,1280
    40ca:	00e79123          	sh	a4,2(a5)
D:\Car\sure code\slave_school\obj/../CODE/multi_button.c:100
		break;
    40ce:	a4b1                	j	431a <button_handler+0x49c>
D:\Car\sure code\slave_school\obj/../CODE/multi_button.c:103

	case 2:
		if(handle->button_level == handle->active_level) { //press down again
    40d0:	fdc42783          	lw	a5,-36(s0)
    40d4:	439c                	lw	a5,0(a5)
    40d6:	83fd                	srli	a5,a5,0x1f
    40d8:	0ff7f713          	andi	a4,a5,255
    40dc:	fdc42783          	lw	a5,-36(s0)
    40e0:	439c                	lw	a5,0(a5)
    40e2:	83f9                	srli	a5,a5,0x1e
    40e4:	8b85                	andi	a5,a5,1
    40e6:	0ff7f793          	andi	a5,a5,255
    40ea:	08f71463          	bne	a4,a5,4172 <button_handler+0x2f4>
D:\Car\sure code\slave_school\obj/../CODE/multi_button.c:104
			handle->event = (uint8_t)PRESS_DOWN;
    40ee:	fdc42783          	lw	a5,-36(s0)
    40f2:	0027d703          	lhu	a4,2(a5)
    40f6:	f0f77713          	andi	a4,a4,-241
    40fa:	00e79123          	sh	a4,2(a5)
D:\Car\sure code\slave_school\obj/../CODE/multi_button.c:105
			EVENT_CB(PRESS_DOWN);
    40fe:	fdc42783          	lw	a5,-36(s0)
    4102:	479c                	lw	a5,8(a5)
    4104:	c799                	beqz	a5,4112 <button_handler+0x294>
D:\Car\sure code\slave_school\obj/../CODE/multi_button.c:105 (discriminator 1)
    4106:	fdc42783          	lw	a5,-36(s0)
    410a:	479c                	lw	a5,8(a5)
    410c:	fdc42503          	lw	a0,-36(s0)
    4110:	9782                	jalr	a5
D:\Car\sure code\slave_school\obj/../CODE/multi_button.c:106
			handle->repeat++;
    4112:	fdc42783          	lw	a5,-36(s0)
    4116:	439c                	lw	a5,0(a5)
    4118:	83c1                	srli	a5,a5,0x10
    411a:	8bbd                	andi	a5,a5,15
    411c:	0ff7f793          	andi	a5,a5,255
    4120:	0785                	addi	a5,a5,1
    4122:	8bbd                	andi	a5,a5,15
    4124:	0ff7f713          	andi	a4,a5,255
    4128:	fdc42783          	lw	a5,-36(s0)
    412c:	00f77613          	andi	a2,a4,15
    4130:	0027d703          	lhu	a4,2(a5)
    4134:	9b41                	andi	a4,a4,-16
    4136:	86ba                	mv	a3,a4
    4138:	8732                	mv	a4,a2
    413a:	8f55                	or	a4,a4,a3
    413c:	00e79123          	sh	a4,2(a5)
D:\Car\sure code\slave_school\obj/../CODE/multi_button.c:107
			EVENT_CB(PRESS_REPEAT); // repeat hit
    4140:	fdc42783          	lw	a5,-36(s0)
    4144:	4b9c                	lw	a5,16(a5)
    4146:	c799                	beqz	a5,4154 <button_handler+0x2d6>
D:\Car\sure code\slave_school\obj/../CODE/multi_button.c:107 (discriminator 1)
    4148:	fdc42783          	lw	a5,-36(s0)
    414c:	4b9c                	lw	a5,16(a5)
    414e:	fdc42503          	lw	a0,-36(s0)
    4152:	9782                	jalr	a5
D:\Car\sure code\slave_school\obj/../CODE/multi_button.c:108
			handle->ticks = 0;
    4154:	fdc42783          	lw	a5,-36(s0)
    4158:	00079023          	sh	zero,0(a5)
D:\Car\sure code\slave_school\obj/../CODE/multi_button.c:109
			handle->state = 3;
    415c:	fdc42783          	lw	a5,-36(s0)
    4160:	0027d703          	lhu	a4,2(a5)
    4164:	8ff77713          	andi	a4,a4,-1793
    4168:	30076713          	ori	a4,a4,768
    416c:	00e79123          	sh	a4,2(a5)
D:\Car\sure code\slave_school\obj/../CODE/multi_button.c:120
				handle->event = (uint8_t)DOUBLE_CLICK;
				EVENT_CB(DOUBLE_CLICK); // repeat hit
			}
			handle->state = 0;
		}
		break;
    4170:	a27d                	j	431e <button_handler+0x4a0>
D:\Car\sure code\slave_school\obj/../CODE/multi_button.c:110
		} else if(handle->ticks > SHORT_TICKS) { //released timeout
    4172:	fdc42783          	lw	a5,-36(s0)
    4176:	0007d703          	lhu	a4,0(a5)
    417a:	03c00793          	li	a5,60
    417e:	1ae7f063          	bgeu	a5,a4,431e <button_handler+0x4a0>
D:\Car\sure code\slave_school\obj/../CODE/multi_button.c:111
			if(handle->repeat == 1) {
    4182:	fdc42783          	lw	a5,-36(s0)
    4186:	0027d783          	lhu	a5,2(a5)
    418a:	8bbd                	andi	a5,a5,15
    418c:	01079713          	slli	a4,a5,0x10
    4190:	8341                	srli	a4,a4,0x10
    4192:	4785                	li	a5,1
    4194:	02f71763          	bne	a4,a5,41c2 <button_handler+0x344>
D:\Car\sure code\slave_school\obj/../CODE/multi_button.c:112
				handle->event = (uint8_t)SINGLE_CLICK;
    4198:	fdc42783          	lw	a5,-36(s0)
    419c:	0027d703          	lhu	a4,2(a5)
    41a0:	f0f77713          	andi	a4,a4,-241
    41a4:	03076713          	ori	a4,a4,48
    41a8:	00e79123          	sh	a4,2(a5)
D:\Car\sure code\slave_school\obj/../CODE/multi_button.c:113
				EVENT_CB(SINGLE_CLICK);
    41ac:	fdc42783          	lw	a5,-36(s0)
    41b0:	4bdc                	lw	a5,20(a5)
    41b2:	c7b9                	beqz	a5,4200 <button_handler+0x382>
D:\Car\sure code\slave_school\obj/../CODE/multi_button.c:113 (discriminator 1)
    41b4:	fdc42783          	lw	a5,-36(s0)
    41b8:	4bdc                	lw	a5,20(a5)
    41ba:	fdc42503          	lw	a0,-36(s0)
    41be:	9782                	jalr	a5
    41c0:	a081                	j	4200 <button_handler+0x382>
D:\Car\sure code\slave_school\obj/../CODE/multi_button.c:114
			} else if(handle->repeat == 2) {
    41c2:	fdc42783          	lw	a5,-36(s0)
    41c6:	0027d783          	lhu	a5,2(a5)
    41ca:	8bbd                	andi	a5,a5,15
    41cc:	01079713          	slli	a4,a5,0x10
    41d0:	8341                	srli	a4,a4,0x10
    41d2:	4789                	li	a5,2
    41d4:	02f71663          	bne	a4,a5,4200 <button_handler+0x382>
D:\Car\sure code\slave_school\obj/../CODE/multi_button.c:115
				handle->event = (uint8_t)DOUBLE_CLICK;
    41d8:	fdc42783          	lw	a5,-36(s0)
    41dc:	0027d703          	lhu	a4,2(a5)
    41e0:	f0f77713          	andi	a4,a4,-241
    41e4:	04076713          	ori	a4,a4,64
    41e8:	00e79123          	sh	a4,2(a5)
D:\Car\sure code\slave_school\obj/../CODE/multi_button.c:116
				EVENT_CB(DOUBLE_CLICK); // repeat hit
    41ec:	fdc42783          	lw	a5,-36(s0)
    41f0:	4f9c                	lw	a5,24(a5)
    41f2:	c799                	beqz	a5,4200 <button_handler+0x382>
D:\Car\sure code\slave_school\obj/../CODE/multi_button.c:116 (discriminator 1)
    41f4:	fdc42783          	lw	a5,-36(s0)
    41f8:	4f9c                	lw	a5,24(a5)
    41fa:	fdc42503          	lw	a0,-36(s0)
    41fe:	9782                	jalr	a5
D:\Car\sure code\slave_school\obj/../CODE/multi_button.c:118
			handle->state = 0;
    4200:	fdc42783          	lw	a5,-36(s0)
    4204:	0027d703          	lhu	a4,2(a5)
    4208:	8ff77713          	andi	a4,a4,-1793
    420c:	00e79123          	sh	a4,2(a5)
D:\Car\sure code\slave_school\obj/../CODE/multi_button.c:120
		break;
    4210:	a239                	j	431e <button_handler+0x4a0>
D:\Car\sure code\slave_school\obj/../CODE/multi_button.c:123

	case 3:
		if(handle->button_level != handle->active_level) { //released press up
    4212:	fdc42783          	lw	a5,-36(s0)
    4216:	439c                	lw	a5,0(a5)
    4218:	83fd                	srli	a5,a5,0x1f
    421a:	0ff7f713          	andi	a4,a5,255
    421e:	fdc42783          	lw	a5,-36(s0)
    4222:	439c                	lw	a5,0(a5)
    4224:	83f9                	srli	a5,a5,0x1e
    4226:	8b85                	andi	a5,a5,1
    4228:	0ff7f793          	andi	a5,a5,255
    422c:	0ef70b63          	beq	a4,a5,4322 <button_handler+0x4a4>
D:\Car\sure code\slave_school\obj/../CODE/multi_button.c:124
			handle->event = (uint8_t)PRESS_UP;
    4230:	fdc42783          	lw	a5,-36(s0)
    4234:	0027d703          	lhu	a4,2(a5)
    4238:	f0f77713          	andi	a4,a4,-241
    423c:	01076713          	ori	a4,a4,16
    4240:	00e79123          	sh	a4,2(a5)
D:\Car\sure code\slave_school\obj/../CODE/multi_button.c:125
			EVENT_CB(PRESS_UP);
    4244:	fdc42783          	lw	a5,-36(s0)
    4248:	47dc                	lw	a5,12(a5)
    424a:	c799                	beqz	a5,4258 <button_handler+0x3da>
D:\Car\sure code\slave_school\obj/../CODE/multi_button.c:125 (discriminator 1)
    424c:	fdc42783          	lw	a5,-36(s0)
    4250:	47dc                	lw	a5,12(a5)
    4252:	fdc42503          	lw	a0,-36(s0)
    4256:	9782                	jalr	a5
D:\Car\sure code\slave_school\obj/../CODE/multi_button.c:126
			if(handle->ticks < SHORT_TICKS) {
    4258:	fdc42783          	lw	a5,-36(s0)
    425c:	0007d703          	lhu	a4,0(a5)
    4260:	03b00793          	li	a5,59
    4264:	02e7e163          	bltu	a5,a4,4286 <button_handler+0x408>
D:\Car\sure code\slave_school\obj/../CODE/multi_button.c:127
				handle->ticks = 0;
    4268:	fdc42783          	lw	a5,-36(s0)
    426c:	00079023          	sh	zero,0(a5)
D:\Car\sure code\slave_school\obj/../CODE/multi_button.c:128
				handle->state = 2; //repeat press
    4270:	fdc42783          	lw	a5,-36(s0)
    4274:	0027d703          	lhu	a4,2(a5)
    4278:	8ff77713          	andi	a4,a4,-1793
    427c:	20076713          	ori	a4,a4,512
    4280:	00e79123          	sh	a4,2(a5)
D:\Car\sure code\slave_school\obj/../CODE/multi_button.c:133
			} else {
				handle->state = 0;
			}
		}
		break;
    4284:	a879                	j	4322 <button_handler+0x4a4>
D:\Car\sure code\slave_school\obj/../CODE/multi_button.c:130
				handle->state = 0;
    4286:	fdc42783          	lw	a5,-36(s0)
    428a:	0027d703          	lhu	a4,2(a5)
    428e:	8ff77713          	andi	a4,a4,-1793
    4292:	00e79123          	sh	a4,2(a5)
D:\Car\sure code\slave_school\obj/../CODE/multi_button.c:133
		break;
    4296:	a071                	j	4322 <button_handler+0x4a4>
D:\Car\sure code\slave_school\obj/../CODE/multi_button.c:136

	case 5:
		if(handle->button_level == handle->active_level) {
    4298:	fdc42783          	lw	a5,-36(s0)
    429c:	439c                	lw	a5,0(a5)
    429e:	83fd                	srli	a5,a5,0x1f
    42a0:	0ff7f713          	andi	a4,a5,255
    42a4:	fdc42783          	lw	a5,-36(s0)
    42a8:	439c                	lw	a5,0(a5)
    42aa:	83f9                	srli	a5,a5,0x1e
    42ac:	8b85                	andi	a5,a5,1
    42ae:	0ff7f793          	andi	a5,a5,255
    42b2:	02f71763          	bne	a4,a5,42e0 <button_handler+0x462>
D:\Car\sure code\slave_school\obj/../CODE/multi_button.c:138
			//continue hold trigger
			handle->event = (uint8_t)LONG_PRESS_HOLD;
    42b6:	fdc42783          	lw	a5,-36(s0)
    42ba:	0027d703          	lhu	a4,2(a5)
    42be:	f0f77713          	andi	a4,a4,-241
    42c2:	06076713          	ori	a4,a4,96
    42c6:	00e79123          	sh	a4,2(a5)
D:\Car\sure code\slave_school\obj/../CODE/multi_button.c:139
			EVENT_CB(LONG_PRESS_HOLD);
    42ca:	fdc42783          	lw	a5,-36(s0)
    42ce:	539c                	lw	a5,32(a5)
    42d0:	cbb9                	beqz	a5,4326 <button_handler+0x4a8>
D:\Car\sure code\slave_school\obj/../CODE/multi_button.c:139 (discriminator 1)
    42d2:	fdc42783          	lw	a5,-36(s0)
    42d6:	539c                	lw	a5,32(a5)
    42d8:	fdc42503          	lw	a0,-36(s0)
    42dc:	9782                	jalr	a5
D:\Car\sure code\slave_school\obj/../CODE/multi_button.c:146 (discriminator 1)
		} else { //releasd
			handle->event = (uint8_t)PRESS_UP;
			EVENT_CB(PRESS_UP);
			handle->state = 0; //reset
		}
		break;
    42de:	a0a1                	j	4326 <button_handler+0x4a8>
D:\Car\sure code\slave_school\obj/../CODE/multi_button.c:142
			handle->event = (uint8_t)PRESS_UP;
    42e0:	fdc42783          	lw	a5,-36(s0)
    42e4:	0027d703          	lhu	a4,2(a5)
    42e8:	f0f77713          	andi	a4,a4,-241
    42ec:	01076713          	ori	a4,a4,16
    42f0:	00e79123          	sh	a4,2(a5)
D:\Car\sure code\slave_school\obj/../CODE/multi_button.c:143
			EVENT_CB(PRESS_UP);
    42f4:	fdc42783          	lw	a5,-36(s0)
    42f8:	47dc                	lw	a5,12(a5)
    42fa:	c799                	beqz	a5,4308 <button_handler+0x48a>
D:\Car\sure code\slave_school\obj/../CODE/multi_button.c:143 (discriminator 1)
    42fc:	fdc42783          	lw	a5,-36(s0)
    4300:	47dc                	lw	a5,12(a5)
    4302:	fdc42503          	lw	a0,-36(s0)
    4306:	9782                	jalr	a5
D:\Car\sure code\slave_school\obj/../CODE/multi_button.c:144
			handle->state = 0; //reset
    4308:	fdc42783          	lw	a5,-36(s0)
    430c:	0027d703          	lhu	a4,2(a5)
    4310:	8ff77713          	andi	a4,a4,-1793
    4314:	00e79123          	sh	a4,2(a5)
D:\Car\sure code\slave_school\obj/../CODE/multi_button.c:146
		break;
    4318:	a039                	j	4326 <button_handler+0x4a8>
D:\Car\sure code\slave_school\obj/../CODE/multi_button.c:100
		break;
    431a:	0001                	nop
    431c:	a031                	j	4328 <button_handler+0x4aa>
D:\Car\sure code\slave_school\obj/../CODE/multi_button.c:120
		break;
    431e:	0001                	nop
    4320:	a021                	j	4328 <button_handler+0x4aa>
D:\Car\sure code\slave_school\obj/../CODE/multi_button.c:133
		break;
    4322:	0001                	nop
    4324:	a011                	j	4328 <button_handler+0x4aa>
D:\Car\sure code\slave_school\obj/../CODE/multi_button.c:146
		break;
    4326:	0001                	nop
D:\Car\sure code\slave_school\obj/../CODE/multi_button.c:148
	}
}
    4328:	0001                	nop
    432a:	50b2                	lw	ra,44(sp)
    432c:	5422                	lw	s0,40(sp)
    432e:	6145                	addi	sp,sp,48
    4330:	8082                	ret

00004332 <button_start>:
button_start():
D:\Car\sure code\slave_school\obj/../CODE/multi_button.c:156
  * @brief  Start the button work, add the handle into work list.
  * @param  handle: target handle strcut.
  * @retval 0: succeed. -1: already exist.
  */
int button_start(struct Button* handle)
{
    4332:	7179                	addi	sp,sp,-48
    4334:	d622                	sw	s0,44(sp)
    4336:	1800                	addi	s0,sp,48
    4338:	fca42e23          	sw	a0,-36(s0)
D:\Car\sure code\slave_school\obj/../CODE/multi_button.c:157
	struct Button* target = head_handle;
    433c:	8401a783          	lw	a5,-1984(gp) # 200000f8 <head_handle>
    4340:	fef42623          	sw	a5,-20(s0)
D:\Car\sure code\slave_school\obj/../CODE/multi_button.c:158
	while(target) {
    4344:	a831                	j	4360 <button_start+0x2e>
D:\Car\sure code\slave_school\obj/../CODE/multi_button.c:159
		if(target == handle) return -1;	//already exist.
    4346:	fec42703          	lw	a4,-20(s0)
    434a:	fdc42783          	lw	a5,-36(s0)
    434e:	00f71463          	bne	a4,a5,4356 <button_start+0x24>
D:\Car\sure code\slave_school\obj/../CODE/multi_button.c:159 (discriminator 1)
    4352:	57fd                	li	a5,-1
    4354:	a01d                	j	437a <button_start+0x48>
D:\Car\sure code\slave_school\obj/../CODE/multi_button.c:160
		target = target->next;
    4356:	fec42783          	lw	a5,-20(s0)
    435a:	53dc                	lw	a5,36(a5)
    435c:	fef42623          	sw	a5,-20(s0)
D:\Car\sure code\slave_school\obj/../CODE/multi_button.c:158
	while(target) {
    4360:	fec42783          	lw	a5,-20(s0)
    4364:	f3ed                	bnez	a5,4346 <button_start+0x14>
D:\Car\sure code\slave_school\obj/../CODE/multi_button.c:162
	}
	handle->next = head_handle;
    4366:	8401a703          	lw	a4,-1984(gp) # 200000f8 <head_handle>
    436a:	fdc42783          	lw	a5,-36(s0)
    436e:	d3d8                	sw	a4,36(a5)
D:\Car\sure code\slave_school\obj/../CODE/multi_button.c:163
	head_handle = handle;
    4370:	fdc42703          	lw	a4,-36(s0)
    4374:	84e1a023          	sw	a4,-1984(gp) # 200000f8 <head_handle>
D:\Car\sure code\slave_school\obj/../CODE/multi_button.c:164
	return 0;
    4378:	4781                	li	a5,0
D:\Car\sure code\slave_school\obj/../CODE/multi_button.c:165
}
    437a:	853e                	mv	a0,a5
    437c:	5432                	lw	s0,44(sp)
    437e:	6145                	addi	sp,sp,48
    4380:	8082                	ret

00004382 <button_ticks>:
button_ticks():
D:\Car\sure code\slave_school\obj/../CODE/multi_button.c:191
  * @brief  background ticks, timer repeat invoking interval 5ms.
  * @param  None.
  * @retval None
  */
void button_ticks()
{
    4382:	1101                	addi	sp,sp,-32
    4384:	ce06                	sw	ra,28(sp)
    4386:	cc22                	sw	s0,24(sp)
    4388:	1000                	addi	s0,sp,32
D:\Car\sure code\slave_school\obj/../CODE/multi_button.c:193
	struct Button* target;
	for(target=head_handle; target; target=target->next) {
    438a:	8401a783          	lw	a5,-1984(gp) # 200000f8 <head_handle>
    438e:	fef42623          	sw	a5,-20(s0)
    4392:	a811                	j	43a6 <button_ticks+0x24>
D:\Car\sure code\slave_school\obj/../CODE/multi_button.c:194 (discriminator 3)
		button_handler(target);
    4394:	fec42503          	lw	a0,-20(s0)
    4398:	ae7ff0ef          	jal	ra,3e7e <button_handler>
D:\Car\sure code\slave_school\obj/../CODE/multi_button.c:193 (discriminator 3)
	for(target=head_handle; target; target=target->next) {
    439c:	fec42783          	lw	a5,-20(s0)
    43a0:	53dc                	lw	a5,36(a5)
    43a2:	fef42623          	sw	a5,-20(s0)
D:\Car\sure code\slave_school\obj/../CODE/multi_button.c:193 (discriminator 1)
    43a6:	fec42783          	lw	a5,-20(s0)
    43aa:	f7ed                	bnez	a5,4394 <button_ticks+0x12>
D:\Car\sure code\slave_school\obj/../CODE/multi_button.c:196
	}
}
    43ac:	0001                	nop
    43ae:	40f2                	lw	ra,28(sp)
    43b0:	4462                	lw	s0,24(sp)
    43b2:	6105                	addi	sp,sp,32
    43b4:	8082                	ret

000043b6 <__assert_func>:
__assert_func():
    43b6:	80c18793          	addi	a5,gp,-2036 # 200000c4 <_impure_ptr>
    43ba:	439c                	lw	a5,0(a5)
    43bc:	1141                	addi	sp,sp,-16
    43be:	8832                	mv	a6,a2
    43c0:	c606                	sw	ra,12(sp)
    43c2:	88aa                	mv	a7,a0
    43c4:	872e                	mv	a4,a1
    43c6:	47c8                	lw	a0,12(a5)
    43c8:	8636                	mv	a2,a3
    43ca:	00001797          	auipc	a5,0x1
    43ce:	31e78793          	addi	a5,a5,798 # 56e8 <UARTN+0x28>
    43d2:	00081763          	bnez	a6,43e0 <__assert_func+0x2a>
    43d6:	00001797          	auipc	a5,0x1
    43da:	31e78793          	addi	a5,a5,798 # 56f4 <UARTN+0x34>
    43de:	883e                	mv	a6,a5
    43e0:	86c6                	mv	a3,a7
    43e2:	00001597          	auipc	a1,0x1
    43e6:	31658593          	addi	a1,a1,790 # 56f8 <UARTN+0x38>
    43ea:	2019                	jal	43f0 <fiprintf>
    43ec:	0af000ef          	jal	ra,4c9a <abort>

000043f0 <fiprintf>:
fprintf():
    43f0:	7139                	addi	sp,sp,-64
    43f2:	d432                	sw	a2,40(sp)
    43f4:	d636                	sw	a3,44(sp)
    43f6:	da3e                	sw	a5,52(sp)
    43f8:	d83a                	sw	a4,48(sp)
    43fa:	dc42                	sw	a6,56(sp)
    43fc:	de46                	sw	a7,60(sp)
    43fe:	80c18793          	addi	a5,gp,-2036 # 200000c4 <_impure_ptr>
    4402:	862e                	mv	a2,a1
    4404:	85aa                	mv	a1,a0
    4406:	4388                	lw	a0,0(a5)
    4408:	1034                	addi	a3,sp,40
    440a:	ce06                	sw	ra,28(sp)
    440c:	c636                	sw	a3,12(sp)
    440e:	288d                	jal	4480 <_vfiprintf_r>
    4410:	40f2                	lw	ra,28(sp)
    4412:	6121                	addi	sp,sp,64
    4414:	8082                	ret

00004416 <__sfputc_r>:
__sfputc_r():
    4416:	461c                	lw	a5,8(a2)
    4418:	17fd                	addi	a5,a5,-1
    441a:	c61c                	sw	a5,8(a2)
    441c:	0007d963          	bgez	a5,442e <__sfputc_r+0x18>
    4420:	4e18                	lw	a4,24(a2)
    4422:	00e7c563          	blt	a5,a4,442c <__sfputc_r+0x16>
    4426:	47a9                	li	a5,10
    4428:	00f59363          	bne	a1,a5,442e <__sfputc_r+0x18>
    442c:	a54d                	j	4ace <__swbuf_r>
    442e:	421c                	lw	a5,0(a2)
    4430:	852e                	mv	a0,a1
    4432:	00178713          	addi	a4,a5,1
    4436:	c218                	sw	a4,0(a2)
    4438:	00b78023          	sb	a1,0(a5)
    443c:	8082                	ret

0000443e <__sfputs_r>:
__sfputs_r():
    443e:	1101                	addi	sp,sp,-32
    4440:	cc22                	sw	s0,24(sp)
    4442:	ca26                	sw	s1,20(sp)
    4444:	c84a                	sw	s2,16(sp)
    4446:	c64e                	sw	s3,12(sp)
    4448:	c452                	sw	s4,8(sp)
    444a:	ce06                	sw	ra,28(sp)
    444c:	892a                	mv	s2,a0
    444e:	89ae                	mv	s3,a1
    4450:	8432                	mv	s0,a2
    4452:	00d604b3          	add	s1,a2,a3
    4456:	5a7d                	li	s4,-1
    4458:	00941463          	bne	s0,s1,4460 <__sfputs_r+0x22>
    445c:	4501                	li	a0,0
    445e:	a809                	j	4470 <__sfputs_r+0x32>
    4460:	00044583          	lbu	a1,0(s0)
    4464:	864e                	mv	a2,s3
    4466:	854a                	mv	a0,s2
    4468:	377d                	jal	4416 <__sfputc_r>
    446a:	0405                	addi	s0,s0,1
    446c:	ff4516e3          	bne	a0,s4,4458 <__sfputs_r+0x1a>
    4470:	40f2                	lw	ra,28(sp)
    4472:	4462                	lw	s0,24(sp)
    4474:	44d2                	lw	s1,20(sp)
    4476:	4942                	lw	s2,16(sp)
    4478:	49b2                	lw	s3,12(sp)
    447a:	4a22                	lw	s4,8(sp)
    447c:	6105                	addi	sp,sp,32
    447e:	8082                	ret

00004480 <_vfiprintf_r>:
_vfiprintf_r():
    4480:	7135                	addi	sp,sp,-160
    4482:	cd22                	sw	s0,152(sp)
    4484:	cb26                	sw	s1,148(sp)
    4486:	c94a                	sw	s2,144(sp)
    4488:	c74e                	sw	s3,140(sp)
    448a:	cf06                	sw	ra,156(sp)
    448c:	c552                	sw	s4,136(sp)
    448e:	c356                	sw	s5,132(sp)
    4490:	c15a                	sw	s6,128(sp)
    4492:	dede                	sw	s7,124(sp)
    4494:	dce2                	sw	s8,120(sp)
    4496:	dae6                	sw	s9,116(sp)
    4498:	89aa                	mv	s3,a0
    449a:	84ae                	mv	s1,a1
    449c:	8932                	mv	s2,a2
    449e:	8436                	mv	s0,a3
    44a0:	c509                	beqz	a0,44aa <_vfiprintf_r+0x2a>
    44a2:	4d1c                	lw	a5,24(a0)
    44a4:	e399                	bnez	a5,44aa <_vfiprintf_r+0x2a>
    44a6:	25f000ef          	jal	ra,4f04 <__sinit>
    44aa:	00001797          	auipc	a5,0x1
    44ae:	2da78793          	addi	a5,a5,730 # 5784 <__sf_fake_stdin>
    44b2:	0cf49c63          	bne	s1,a5,458a <_vfiprintf_r+0x10a>
    44b6:	0049a483          	lw	s1,4(s3)
    44ba:	00c4d783          	lhu	a5,12(s1)
    44be:	8ba1                	andi	a5,a5,8
    44c0:	c7fd                	beqz	a5,45ae <_vfiprintf_r+0x12e>
    44c2:	489c                	lw	a5,16(s1)
    44c4:	c7ed                	beqz	a5,45ae <_vfiprintf_r+0x12e>
    44c6:	02000793          	li	a5,32
    44ca:	02f104a3          	sb	a5,41(sp)
    44ce:	03000793          	li	a5,48
    44d2:	d202                	sw	zero,36(sp)
    44d4:	02f10523          	sb	a5,42(sp)
    44d8:	c622                	sw	s0,12(sp)
    44da:	02500b93          	li	s7,37
    44de:	00001a97          	auipc	s5,0x1
    44e2:	24aa8a93          	addi	s5,s5,586 # 5728 <UARTN+0x68>
    44e6:	4c05                	li	s8,1
    44e8:	4b29                	li	s6,10
    44ea:	844a                	mv	s0,s2
    44ec:	00044783          	lbu	a5,0(s0)
    44f0:	c399                	beqz	a5,44f6 <_vfiprintf_r+0x76>
    44f2:	0f779063          	bne	a5,s7,45d2 <_vfiprintf_r+0x152>
    44f6:	41240cb3          	sub	s9,s0,s2
    44fa:	000c8d63          	beqz	s9,4514 <_vfiprintf_r+0x94>
    44fe:	86e6                	mv	a3,s9
    4500:	864a                	mv	a2,s2
    4502:	85a6                	mv	a1,s1
    4504:	854e                	mv	a0,s3
    4506:	3f25                	jal	443e <__sfputs_r>
    4508:	57fd                	li	a5,-1
    450a:	1ef50863          	beq	a0,a5,46fa <_vfiprintf_r+0x27a>
    450e:	5692                	lw	a3,36(sp)
    4510:	96e6                	add	a3,a3,s9
    4512:	d236                	sw	a3,36(sp)
    4514:	00044783          	lbu	a5,0(s0)
    4518:	1e078163          	beqz	a5,46fa <_vfiprintf_r+0x27a>
    451c:	57fd                	li	a5,-1
    451e:	00140913          	addi	s2,s0,1
    4522:	c802                	sw	zero,16(sp)
    4524:	ce02                	sw	zero,28(sp)
    4526:	ca3e                	sw	a5,20(sp)
    4528:	cc02                	sw	zero,24(sp)
    452a:	040109a3          	sb	zero,83(sp)
    452e:	d482                	sw	zero,104(sp)
    4530:	00094583          	lbu	a1,0(s2)
    4534:	4615                	li	a2,5
    4536:	8556                	mv	a0,s5
    4538:	439000ef          	jal	ra,5170 <memchr>
    453c:	00190413          	addi	s0,s2,1
    4540:	47c2                	lw	a5,16(sp)
    4542:	e951                	bnez	a0,45d6 <_vfiprintf_r+0x156>
    4544:	0107f713          	andi	a4,a5,16
    4548:	c709                	beqz	a4,4552 <_vfiprintf_r+0xd2>
    454a:	02000713          	li	a4,32
    454e:	04e109a3          	sb	a4,83(sp)
    4552:	0087f713          	andi	a4,a5,8
    4556:	c709                	beqz	a4,4560 <_vfiprintf_r+0xe0>
    4558:	02b00713          	li	a4,43
    455c:	04e109a3          	sb	a4,83(sp)
    4560:	00094683          	lbu	a3,0(s2)
    4564:	02a00713          	li	a4,42
    4568:	06e68f63          	beq	a3,a4,45e6 <_vfiprintf_r+0x166>
    456c:	47f2                	lw	a5,28(sp)
    456e:	844a                	mv	s0,s2
    4570:	4681                	li	a3,0
    4572:	4625                	li	a2,9
    4574:	00044703          	lbu	a4,0(s0)
    4578:	00140593          	addi	a1,s0,1
    457c:	fd070713          	addi	a4,a4,-48
    4580:	0ae67863          	bgeu	a2,a4,4630 <_vfiprintf_r+0x1b0>
    4584:	caad                	beqz	a3,45f6 <_vfiprintf_r+0x176>
    4586:	ce3e                	sw	a5,28(sp)
    4588:	a0bd                	j	45f6 <_vfiprintf_r+0x176>
    458a:	00001797          	auipc	a5,0x1
    458e:	21a78793          	addi	a5,a5,538 # 57a4 <__sf_fake_stdout>
    4592:	00f49563          	bne	s1,a5,459c <_vfiprintf_r+0x11c>
    4596:	0089a483          	lw	s1,8(s3)
    459a:	b705                	j	44ba <_vfiprintf_r+0x3a>
    459c:	00001797          	auipc	a5,0x1
    45a0:	1c878793          	addi	a5,a5,456 # 5764 <__sf_fake_stderr>
    45a4:	f0f49be3          	bne	s1,a5,44ba <_vfiprintf_r+0x3a>
    45a8:	00c9a483          	lw	s1,12(s3)
    45ac:	b739                	j	44ba <_vfiprintf_r+0x3a>
    45ae:	85a6                	mv	a1,s1
    45b0:	854e                	mv	a0,s3
    45b2:	2bf1                	jal	4b8e <__swsetup_r>
    45b4:	d909                	beqz	a0,44c6 <_vfiprintf_r+0x46>
    45b6:	557d                	li	a0,-1
    45b8:	40fa                	lw	ra,156(sp)
    45ba:	446a                	lw	s0,152(sp)
    45bc:	44da                	lw	s1,148(sp)
    45be:	494a                	lw	s2,144(sp)
    45c0:	49ba                	lw	s3,140(sp)
    45c2:	4a2a                	lw	s4,136(sp)
    45c4:	4a9a                	lw	s5,132(sp)
    45c6:	4b0a                	lw	s6,128(sp)
    45c8:	5bf6                	lw	s7,124(sp)
    45ca:	5c66                	lw	s8,120(sp)
    45cc:	5cd6                	lw	s9,116(sp)
    45ce:	610d                	addi	sp,sp,160
    45d0:	8082                	ret
    45d2:	0405                	addi	s0,s0,1
    45d4:	bf21                	j	44ec <_vfiprintf_r+0x6c>
    45d6:	41550533          	sub	a0,a0,s5
    45da:	00ac1533          	sll	a0,s8,a0
    45de:	8fc9                	or	a5,a5,a0
    45e0:	c83e                	sw	a5,16(sp)
    45e2:	8922                	mv	s2,s0
    45e4:	b7b1                	j	4530 <_vfiprintf_r+0xb0>
    45e6:	4732                	lw	a4,12(sp)
    45e8:	00470693          	addi	a3,a4,4
    45ec:	4318                	lw	a4,0(a4)
    45ee:	c636                	sw	a3,12(sp)
    45f0:	02074963          	bltz	a4,4622 <_vfiprintf_r+0x1a2>
    45f4:	ce3a                	sw	a4,28(sp)
    45f6:	00044703          	lbu	a4,0(s0)
    45fa:	02e00793          	li	a5,46
    45fe:	04f71f63          	bne	a4,a5,465c <_vfiprintf_r+0x1dc>
    4602:	00144703          	lbu	a4,1(s0)
    4606:	02a00793          	li	a5,42
    460a:	02f71b63          	bne	a4,a5,4640 <_vfiprintf_r+0x1c0>
    460e:	47b2                	lw	a5,12(sp)
    4610:	0409                	addi	s0,s0,2
    4612:	00478713          	addi	a4,a5,4
    4616:	439c                	lw	a5,0(a5)
    4618:	c63a                	sw	a4,12(sp)
    461a:	0207c163          	bltz	a5,463c <_vfiprintf_r+0x1bc>
    461e:	ca3e                	sw	a5,20(sp)
    4620:	a835                	j	465c <_vfiprintf_r+0x1dc>
    4622:	40e00733          	neg	a4,a4
    4626:	0027e793          	ori	a5,a5,2
    462a:	ce3a                	sw	a4,28(sp)
    462c:	c83e                	sw	a5,16(sp)
    462e:	b7e1                	j	45f6 <_vfiprintf_r+0x176>
    4630:	036787b3          	mul	a5,a5,s6
    4634:	4685                	li	a3,1
    4636:	842e                	mv	s0,a1
    4638:	97ba                	add	a5,a5,a4
    463a:	bf2d                	j	4574 <_vfiprintf_r+0xf4>
    463c:	57fd                	li	a5,-1
    463e:	b7c5                	j	461e <_vfiprintf_r+0x19e>
    4640:	0405                	addi	s0,s0,1
    4642:	ca02                	sw	zero,20(sp)
    4644:	4681                	li	a3,0
    4646:	4781                	li	a5,0
    4648:	4625                	li	a2,9
    464a:	00044703          	lbu	a4,0(s0)
    464e:	00140593          	addi	a1,s0,1
    4652:	fd070713          	addi	a4,a4,-48
    4656:	06e67863          	bgeu	a2,a4,46c6 <_vfiprintf_r+0x246>
    465a:	f2f1                	bnez	a3,461e <_vfiprintf_r+0x19e>
    465c:	00044583          	lbu	a1,0(s0)
    4660:	460d                	li	a2,3
    4662:	00001517          	auipc	a0,0x1
    4666:	0ce50513          	addi	a0,a0,206 # 5730 <UARTN+0x70>
    466a:	307000ef          	jal	ra,5170 <memchr>
    466e:	cd11                	beqz	a0,468a <_vfiprintf_r+0x20a>
    4670:	00001797          	auipc	a5,0x1
    4674:	0c078793          	addi	a5,a5,192 # 5730 <UARTN+0x70>
    4678:	8d1d                	sub	a0,a0,a5
    467a:	04000793          	li	a5,64
    467e:	00a797b3          	sll	a5,a5,a0
    4682:	4542                	lw	a0,16(sp)
    4684:	0405                	addi	s0,s0,1
    4686:	8d5d                	or	a0,a0,a5
    4688:	c82a                	sw	a0,16(sp)
    468a:	00044583          	lbu	a1,0(s0)
    468e:	4619                	li	a2,6
    4690:	00001517          	auipc	a0,0x1
    4694:	0a450513          	addi	a0,a0,164 # 5734 <UARTN+0x74>
    4698:	00140913          	addi	s2,s0,1
    469c:	02b10423          	sb	a1,40(sp)
    46a0:	2d1000ef          	jal	ra,5170 <memchr>
    46a4:	c13d                	beqz	a0,470a <_vfiprintf_r+0x28a>
    46a6:	ffffc797          	auipc	a5,0xffffc
    46aa:	95a78793          	addi	a5,a5,-1702 # 0 <_sinit>
    46ae:	e795                	bnez	a5,46da <_vfiprintf_r+0x25a>
    46b0:	4742                	lw	a4,16(sp)
    46b2:	47b2                	lw	a5,12(sp)
    46b4:	10077713          	andi	a4,a4,256
    46b8:	cf09                	beqz	a4,46d2 <_vfiprintf_r+0x252>
    46ba:	0791                	addi	a5,a5,4
    46bc:	c63e                	sw	a5,12(sp)
    46be:	5792                	lw	a5,36(sp)
    46c0:	97d2                	add	a5,a5,s4
    46c2:	d23e                	sw	a5,36(sp)
    46c4:	b51d                	j	44ea <_vfiprintf_r+0x6a>
    46c6:	036787b3          	mul	a5,a5,s6
    46ca:	4685                	li	a3,1
    46cc:	842e                	mv	s0,a1
    46ce:	97ba                	add	a5,a5,a4
    46d0:	bfad                	j	464a <_vfiprintf_r+0x1ca>
    46d2:	079d                	addi	a5,a5,7
    46d4:	9be1                	andi	a5,a5,-8
    46d6:	07a1                	addi	a5,a5,8
    46d8:	b7d5                	j	46bc <_vfiprintf_r+0x23c>
    46da:	0078                	addi	a4,sp,12
    46dc:	00000697          	auipc	a3,0x0
    46e0:	d6268693          	addi	a3,a3,-670 # 443e <__sfputs_r>
    46e4:	8626                	mv	a2,s1
    46e6:	080c                	addi	a1,sp,16
    46e8:	854e                	mv	a0,s3
    46ea:	00000097          	auipc	ra,0x0
    46ee:	000000e7          	jalr	zero # 0 <_sinit>
    46f2:	57fd                	li	a5,-1
    46f4:	8a2a                	mv	s4,a0
    46f6:	fcf514e3          	bne	a0,a5,46be <_vfiprintf_r+0x23e>
    46fa:	00c4d783          	lhu	a5,12(s1)
    46fe:	0407f793          	andi	a5,a5,64
    4702:	ea079ae3          	bnez	a5,45b6 <_vfiprintf_r+0x136>
    4706:	5512                	lw	a0,36(sp)
    4708:	bd45                	j	45b8 <_vfiprintf_r+0x138>
    470a:	0078                	addi	a4,sp,12
    470c:	00000697          	auipc	a3,0x0
    4710:	d3268693          	addi	a3,a3,-718 # 443e <__sfputs_r>
    4714:	8626                	mv	a2,s1
    4716:	080c                	addi	a1,sp,16
    4718:	854e                	mv	a0,s3
    471a:	2a01                	jal	482a <_printf_i>
    471c:	bfd9                	j	46f2 <_vfiprintf_r+0x272>

0000471e <_printf_common>:
_printf_common():
    471e:	7179                	addi	sp,sp,-48
    4720:	ca56                	sw	s5,20(sp)
    4722:	499c                	lw	a5,16(a1)
    4724:	8aba                	mv	s5,a4
    4726:	4598                	lw	a4,8(a1)
    4728:	d422                	sw	s0,40(sp)
    472a:	d226                	sw	s1,36(sp)
    472c:	ce4e                	sw	s3,28(sp)
    472e:	cc52                	sw	s4,24(sp)
    4730:	d606                	sw	ra,44(sp)
    4732:	d04a                	sw	s2,32(sp)
    4734:	c85a                	sw	s6,16(sp)
    4736:	c65e                	sw	s7,12(sp)
    4738:	89aa                	mv	s3,a0
    473a:	842e                	mv	s0,a1
    473c:	84b2                	mv	s1,a2
    473e:	8a36                	mv	s4,a3
    4740:	00e7d363          	bge	a5,a4,4746 <_printf_common+0x28>
    4744:	87ba                	mv	a5,a4
    4746:	c09c                	sw	a5,0(s1)
    4748:	04344703          	lbu	a4,67(s0)
    474c:	c319                	beqz	a4,4752 <_printf_common+0x34>
    474e:	0785                	addi	a5,a5,1
    4750:	c09c                	sw	a5,0(s1)
    4752:	401c                	lw	a5,0(s0)
    4754:	0207f793          	andi	a5,a5,32
    4758:	c781                	beqz	a5,4760 <_printf_common+0x42>
    475a:	409c                	lw	a5,0(s1)
    475c:	0789                	addi	a5,a5,2
    475e:	c09c                	sw	a5,0(s1)
    4760:	00042903          	lw	s2,0(s0)
    4764:	00697913          	andi	s2,s2,6
    4768:	00091a63          	bnez	s2,477c <_printf_common+0x5e>
    476c:	01940b13          	addi	s6,s0,25
    4770:	5bfd                	li	s7,-1
    4772:	445c                	lw	a5,12(s0)
    4774:	4098                	lw	a4,0(s1)
    4776:	8f99                	sub	a5,a5,a4
    4778:	04f94c63          	blt	s2,a5,47d0 <_printf_common+0xb2>
    477c:	401c                	lw	a5,0(s0)
    477e:	04344683          	lbu	a3,67(s0)
    4782:	0207f793          	andi	a5,a5,32
    4786:	00d036b3          	snez	a3,a3
    478a:	eba5                	bnez	a5,47fa <_printf_common+0xdc>
    478c:	04340613          	addi	a2,s0,67
    4790:	85d2                	mv	a1,s4
    4792:	854e                	mv	a0,s3
    4794:	9a82                	jalr	s5
    4796:	57fd                	li	a5,-1
    4798:	04f50363          	beq	a0,a5,47de <_printf_common+0xc0>
    479c:	401c                	lw	a5,0(s0)
    479e:	4611                	li	a2,4
    47a0:	4098                	lw	a4,0(s1)
    47a2:	8b99                	andi	a5,a5,6
    47a4:	4454                	lw	a3,12(s0)
    47a6:	4481                	li	s1,0
    47a8:	00c79763          	bne	a5,a2,47b6 <_printf_common+0x98>
    47ac:	40e684b3          	sub	s1,a3,a4
    47b0:	0004d363          	bgez	s1,47b6 <_printf_common+0x98>
    47b4:	4481                	li	s1,0
    47b6:	441c                	lw	a5,8(s0)
    47b8:	4818                	lw	a4,16(s0)
    47ba:	00f75463          	bge	a4,a5,47c2 <_printf_common+0xa4>
    47be:	8f99                	sub	a5,a5,a4
    47c0:	94be                	add	s1,s1,a5
    47c2:	4901                	li	s2,0
    47c4:	0469                	addi	s0,s0,26
    47c6:	5b7d                	li	s6,-1
    47c8:	05249863          	bne	s1,s2,4818 <_printf_common+0xfa>
    47cc:	4501                	li	a0,0
    47ce:	a809                	j	47e0 <_printf_common+0xc2>
    47d0:	4685                	li	a3,1
    47d2:	865a                	mv	a2,s6
    47d4:	85d2                	mv	a1,s4
    47d6:	854e                	mv	a0,s3
    47d8:	9a82                	jalr	s5
    47da:	01751e63          	bne	a0,s7,47f6 <_printf_common+0xd8>
    47de:	557d                	li	a0,-1
    47e0:	50b2                	lw	ra,44(sp)
    47e2:	5422                	lw	s0,40(sp)
    47e4:	5492                	lw	s1,36(sp)
    47e6:	5902                	lw	s2,32(sp)
    47e8:	49f2                	lw	s3,28(sp)
    47ea:	4a62                	lw	s4,24(sp)
    47ec:	4ad2                	lw	s5,20(sp)
    47ee:	4b42                	lw	s6,16(sp)
    47f0:	4bb2                	lw	s7,12(sp)
    47f2:	6145                	addi	sp,sp,48
    47f4:	8082                	ret
    47f6:	0905                	addi	s2,s2,1
    47f8:	bfad                	j	4772 <_printf_common+0x54>
    47fa:	00d40733          	add	a4,s0,a3
    47fe:	03000613          	li	a2,48
    4802:	04c701a3          	sb	a2,67(a4)
    4806:	04544703          	lbu	a4,69(s0)
    480a:	00168793          	addi	a5,a3,1
    480e:	97a2                	add	a5,a5,s0
    4810:	0689                	addi	a3,a3,2
    4812:	04e781a3          	sb	a4,67(a5)
    4816:	bf9d                	j	478c <_printf_common+0x6e>
    4818:	4685                	li	a3,1
    481a:	8622                	mv	a2,s0
    481c:	85d2                	mv	a1,s4
    481e:	854e                	mv	a0,s3
    4820:	9a82                	jalr	s5
    4822:	fb650ee3          	beq	a0,s6,47de <_printf_common+0xc0>
    4826:	0905                	addi	s2,s2,1
    4828:	b745                	j	47c8 <_printf_common+0xaa>

0000482a <_printf_i>:
_printf_i():
    482a:	7179                	addi	sp,sp,-48
    482c:	d422                	sw	s0,40(sp)
    482e:	d226                	sw	s1,36(sp)
    4830:	d04a                	sw	s2,32(sp)
    4832:	ce4e                	sw	s3,28(sp)
    4834:	d606                	sw	ra,44(sp)
    4836:	cc52                	sw	s4,24(sp)
    4838:	ca56                	sw	s5,20(sp)
    483a:	c85a                	sw	s6,16(sp)
    483c:	89b6                	mv	s3,a3
    483e:	0185c683          	lbu	a3,24(a1)
    4842:	06e00793          	li	a5,110
    4846:	8932                	mv	s2,a2
    4848:	84aa                	mv	s1,a0
    484a:	842e                	mv	s0,a1
    484c:	04358613          	addi	a2,a1,67
    4850:	1ef68163          	beq	a3,a5,4a32 <_printf_i+0x208>
    4854:	06d7e263          	bltu	a5,a3,48b8 <_printf_i+0x8e>
    4858:	06300793          	li	a5,99
    485c:	0af68263          	beq	a3,a5,4900 <_printf_i+0xd6>
    4860:	00d7ed63          	bltu	a5,a3,487a <_printf_i+0x50>
    4864:	1e068b63          	beqz	a3,4a5a <_printf_i+0x230>
    4868:	05800793          	li	a5,88
    486c:	16f68763          	beq	a3,a5,49da <_printf_i+0x1b0>
    4870:	04240a93          	addi	s5,s0,66
    4874:	04d40123          	sb	a3,66(s0)
    4878:	a869                	j	4912 <_printf_i+0xe8>
    487a:	06400793          	li	a5,100
    487e:	00f68663          	beq	a3,a5,488a <_printf_i+0x60>
    4882:	06900793          	li	a5,105
    4886:	fef695e3          	bne	a3,a5,4870 <_printf_i+0x46>
    488a:	401c                	lw	a5,0(s0)
    488c:	4308                	lw	a0,0(a4)
    488e:	0807f693          	andi	a3,a5,128
    4892:	00450593          	addi	a1,a0,4
    4896:	c2c1                	beqz	a3,4916 <_printf_i+0xec>
    4898:	411c                	lw	a5,0(a0)
    489a:	c30c                	sw	a1,0(a4)
    489c:	0007d863          	bgez	a5,48ac <_printf_i+0x82>
    48a0:	02d00713          	li	a4,45
    48a4:	40f007b3          	neg	a5,a5
    48a8:	04e401a3          	sb	a4,67(s0)
    48ac:	00001697          	auipc	a3,0x1
    48b0:	e9068693          	addi	a3,a3,-368 # 573c <UARTN+0x7c>
    48b4:	4729                	li	a4,10
    48b6:	a065                	j	495e <_printf_i+0x134>
    48b8:	07300793          	li	a5,115
    48bc:	1af68363          	beq	a3,a5,4a62 <_printf_i+0x238>
    48c0:	00d7ef63          	bltu	a5,a3,48de <_printf_i+0xb4>
    48c4:	06f00793          	li	a5,111
    48c8:	04f68f63          	beq	a3,a5,4926 <_printf_i+0xfc>
    48cc:	07000793          	li	a5,112
    48d0:	faf690e3          	bne	a3,a5,4870 <_printf_i+0x46>
    48d4:	419c                	lw	a5,0(a1)
    48d6:	0207e793          	ori	a5,a5,32
    48da:	c19c                	sw	a5,0(a1)
    48dc:	a809                	j	48ee <_printf_i+0xc4>
    48de:	07500793          	li	a5,117
    48e2:	04f68263          	beq	a3,a5,4926 <_printf_i+0xfc>
    48e6:	07800793          	li	a5,120
    48ea:	f8f693e3          	bne	a3,a5,4870 <_printf_i+0x46>
    48ee:	07800793          	li	a5,120
    48f2:	04f402a3          	sb	a5,69(s0)
    48f6:	00001697          	auipc	a3,0x1
    48fa:	e5a68693          	addi	a3,a3,-422 # 5750 <UARTN+0x90>
    48fe:	a0e5                	j	49e6 <_printf_i+0x1bc>
    4900:	431c                	lw	a5,0(a4)
    4902:	04258a93          	addi	s5,a1,66
    4906:	00478693          	addi	a3,a5,4
    490a:	439c                	lw	a5,0(a5)
    490c:	c314                	sw	a3,0(a4)
    490e:	04f58123          	sb	a5,66(a1)
    4912:	4785                	li	a5,1
    4914:	a2b5                	j	4a80 <_printf_i+0x256>
    4916:	0407f693          	andi	a3,a5,64
    491a:	411c                	lw	a5,0(a0)
    491c:	c30c                	sw	a1,0(a4)
    491e:	debd                	beqz	a3,489c <_printf_i+0x72>
    4920:	07c2                	slli	a5,a5,0x10
    4922:	87c1                	srai	a5,a5,0x10
    4924:	bfa5                	j	489c <_printf_i+0x72>
    4926:	400c                	lw	a1,0(s0)
    4928:	431c                	lw	a5,0(a4)
    492a:	0805f813          	andi	a6,a1,128
    492e:	00478513          	addi	a0,a5,4
    4932:	00080563          	beqz	a6,493c <_printf_i+0x112>
    4936:	c308                	sw	a0,0(a4)
    4938:	439c                	lw	a5,0(a5)
    493a:	a039                	j	4948 <_printf_i+0x11e>
    493c:	0405f593          	andi	a1,a1,64
    4940:	c308                	sw	a0,0(a4)
    4942:	d9fd                	beqz	a1,4938 <_printf_i+0x10e>
    4944:	0007d783          	lhu	a5,0(a5)
    4948:	06f00713          	li	a4,111
    494c:	0ce68b63          	beq	a3,a4,4a22 <_printf_i+0x1f8>
    4950:	00001697          	auipc	a3,0x1
    4954:	dec68693          	addi	a3,a3,-532 # 573c <UARTN+0x7c>
    4958:	4729                	li	a4,10
    495a:	040401a3          	sb	zero,67(s0)
    495e:	404c                	lw	a1,4(s0)
    4960:	c40c                	sw	a1,8(s0)
    4962:	0005c563          	bltz	a1,496c <_printf_i+0x142>
    4966:	4008                	lw	a0,0(s0)
    4968:	996d                	andi	a0,a0,-5
    496a:	c008                	sw	a0,0(s0)
    496c:	e399                	bnez	a5,4972 <_printf_i+0x148>
    496e:	8ab2                	mv	s5,a2
    4970:	cd91                	beqz	a1,498c <_printf_i+0x162>
    4972:	8ab2                	mv	s5,a2
    4974:	02e7f5b3          	remu	a1,a5,a4
    4978:	1afd                	addi	s5,s5,-1
    497a:	95b6                	add	a1,a1,a3
    497c:	0005c583          	lbu	a1,0(a1)
    4980:	00ba8023          	sb	a1,0(s5)
    4984:	02e7d5b3          	divu	a1,a5,a4
    4988:	0ae7f363          	bgeu	a5,a4,4a2e <_printf_i+0x204>
    498c:	47a1                	li	a5,8
    498e:	00f71e63          	bne	a4,a5,49aa <_printf_i+0x180>
    4992:	401c                	lw	a5,0(s0)
    4994:	8b85                	andi	a5,a5,1
    4996:	cb91                	beqz	a5,49aa <_printf_i+0x180>
    4998:	4058                	lw	a4,4(s0)
    499a:	481c                	lw	a5,16(s0)
    499c:	00e7c763          	blt	a5,a4,49aa <_printf_i+0x180>
    49a0:	03000793          	li	a5,48
    49a4:	fefa8fa3          	sb	a5,-1(s5)
    49a8:	1afd                	addi	s5,s5,-1
    49aa:	41560633          	sub	a2,a2,s5
    49ae:	c810                	sw	a2,16(s0)
    49b0:	874e                	mv	a4,s3
    49b2:	86ca                	mv	a3,s2
    49b4:	0070                	addi	a2,sp,12
    49b6:	85a2                	mv	a1,s0
    49b8:	8526                	mv	a0,s1
    49ba:	d65ff0ef          	jal	ra,471e <_printf_common>
    49be:	5a7d                	li	s4,-1
    49c0:	0d451463          	bne	a0,s4,4a88 <_printf_i+0x25e>
    49c4:	557d                	li	a0,-1
    49c6:	50b2                	lw	ra,44(sp)
    49c8:	5422                	lw	s0,40(sp)
    49ca:	5492                	lw	s1,36(sp)
    49cc:	5902                	lw	s2,32(sp)
    49ce:	49f2                	lw	s3,28(sp)
    49d0:	4a62                	lw	s4,24(sp)
    49d2:	4ad2                	lw	s5,20(sp)
    49d4:	4b42                	lw	s6,16(sp)
    49d6:	6145                	addi	sp,sp,48
    49d8:	8082                	ret
    49da:	04d582a3          	sb	a3,69(a1)
    49de:	00001697          	auipc	a3,0x1
    49e2:	d5e68693          	addi	a3,a3,-674 # 573c <UARTN+0x7c>
    49e6:	400c                	lw	a1,0(s0)
    49e8:	4308                	lw	a0,0(a4)
    49ea:	0805f813          	andi	a6,a1,128
    49ee:	411c                	lw	a5,0(a0)
    49f0:	0511                	addi	a0,a0,4
    49f2:	02080063          	beqz	a6,4a12 <_printf_i+0x1e8>
    49f6:	c308                	sw	a0,0(a4)
    49f8:	0015f713          	andi	a4,a1,1
    49fc:	c701                	beqz	a4,4a04 <_printf_i+0x1da>
    49fe:	0205e593          	ori	a1,a1,32
    4a02:	c00c                	sw	a1,0(s0)
    4a04:	4741                	li	a4,16
    4a06:	fbb1                	bnez	a5,495a <_printf_i+0x130>
    4a08:	400c                	lw	a1,0(s0)
    4a0a:	fdf5f593          	andi	a1,a1,-33
    4a0e:	c00c                	sw	a1,0(s0)
    4a10:	b7a9                	j	495a <_printf_i+0x130>
    4a12:	0405f813          	andi	a6,a1,64
    4a16:	c308                	sw	a0,0(a4)
    4a18:	fe0800e3          	beqz	a6,49f8 <_printf_i+0x1ce>
    4a1c:	07c2                	slli	a5,a5,0x10
    4a1e:	83c1                	srli	a5,a5,0x10
    4a20:	bfe1                	j	49f8 <_printf_i+0x1ce>
    4a22:	00001697          	auipc	a3,0x1
    4a26:	d1a68693          	addi	a3,a3,-742 # 573c <UARTN+0x7c>
    4a2a:	4721                	li	a4,8
    4a2c:	b73d                	j	495a <_printf_i+0x130>
    4a2e:	87ae                	mv	a5,a1
    4a30:	b791                	j	4974 <_printf_i+0x14a>
    4a32:	4194                	lw	a3,0(a1)
    4a34:	431c                	lw	a5,0(a4)
    4a36:	49cc                	lw	a1,20(a1)
    4a38:	0806f813          	andi	a6,a3,128
    4a3c:	00478513          	addi	a0,a5,4
    4a40:	00080663          	beqz	a6,4a4c <_printf_i+0x222>
    4a44:	c308                	sw	a0,0(a4)
    4a46:	439c                	lw	a5,0(a5)
    4a48:	c38c                	sw	a1,0(a5)
    4a4a:	a801                	j	4a5a <_printf_i+0x230>
    4a4c:	c308                	sw	a0,0(a4)
    4a4e:	0406f693          	andi	a3,a3,64
    4a52:	439c                	lw	a5,0(a5)
    4a54:	daf5                	beqz	a3,4a48 <_printf_i+0x21e>
    4a56:	00b79023          	sh	a1,0(a5)
    4a5a:	00042823          	sw	zero,16(s0)
    4a5e:	8ab2                	mv	s5,a2
    4a60:	bf81                	j	49b0 <_printf_i+0x186>
    4a62:	431c                	lw	a5,0(a4)
    4a64:	41d0                	lw	a2,4(a1)
    4a66:	4581                	li	a1,0
    4a68:	00478693          	addi	a3,a5,4
    4a6c:	c314                	sw	a3,0(a4)
    4a6e:	0007aa83          	lw	s5,0(a5)
    4a72:	8556                	mv	a0,s5
    4a74:	2df5                	jal	5170 <memchr>
    4a76:	c501                	beqz	a0,4a7e <_printf_i+0x254>
    4a78:	41550533          	sub	a0,a0,s5
    4a7c:	c048                	sw	a0,4(s0)
    4a7e:	405c                	lw	a5,4(s0)
    4a80:	c81c                	sw	a5,16(s0)
    4a82:	040401a3          	sb	zero,67(s0)
    4a86:	b72d                	j	49b0 <_printf_i+0x186>
    4a88:	4814                	lw	a3,16(s0)
    4a8a:	8656                	mv	a2,s5
    4a8c:	85ca                	mv	a1,s2
    4a8e:	8526                	mv	a0,s1
    4a90:	9982                	jalr	s3
    4a92:	f34509e3          	beq	a0,s4,49c4 <_printf_i+0x19a>
    4a96:	401c                	lw	a5,0(s0)
    4a98:	8b89                	andi	a5,a5,2
    4a9a:	e78d                	bnez	a5,4ac4 <_printf_i+0x29a>
    4a9c:	47b2                	lw	a5,12(sp)
    4a9e:	4448                	lw	a0,12(s0)
    4aa0:	f2f553e3          	bge	a0,a5,49c6 <_printf_i+0x19c>
    4aa4:	853e                	mv	a0,a5
    4aa6:	b705                	j	49c6 <_printf_i+0x19c>
    4aa8:	4685                	li	a3,1
    4aaa:	8656                	mv	a2,s5
    4aac:	85ca                	mv	a1,s2
    4aae:	8526                	mv	a0,s1
    4ab0:	9982                	jalr	s3
    4ab2:	f16509e3          	beq	a0,s6,49c4 <_printf_i+0x19a>
    4ab6:	0a05                	addi	s4,s4,1
    4ab8:	445c                	lw	a5,12(s0)
    4aba:	4732                	lw	a4,12(sp)
    4abc:	8f99                	sub	a5,a5,a4
    4abe:	fefa45e3          	blt	s4,a5,4aa8 <_printf_i+0x27e>
    4ac2:	bfe9                	j	4a9c <_printf_i+0x272>
    4ac4:	4a01                	li	s4,0
    4ac6:	01940a93          	addi	s5,s0,25
    4aca:	5b7d                	li	s6,-1
    4acc:	b7f5                	j	4ab8 <_printf_i+0x28e>

00004ace <__swbuf_r>:
__swbuf_r():
    4ace:	1101                	addi	sp,sp,-32
    4ad0:	cc22                	sw	s0,24(sp)
    4ad2:	ca26                	sw	s1,20(sp)
    4ad4:	c84a                	sw	s2,16(sp)
    4ad6:	ce06                	sw	ra,28(sp)
    4ad8:	c64e                	sw	s3,12(sp)
    4ada:	84aa                	mv	s1,a0
    4adc:	892e                	mv	s2,a1
    4ade:	8432                	mv	s0,a2
    4ae0:	c501                	beqz	a0,4ae8 <__swbuf_r+0x1a>
    4ae2:	4d1c                	lw	a5,24(a0)
    4ae4:	e391                	bnez	a5,4ae8 <__swbuf_r+0x1a>
    4ae6:	2939                	jal	4f04 <__sinit>
    4ae8:	00001797          	auipc	a5,0x1
    4aec:	c9c78793          	addi	a5,a5,-868 # 5784 <__sf_fake_stdin>
    4af0:	06f41963          	bne	s0,a5,4b62 <__swbuf_r+0x94>
    4af4:	40c0                	lw	s0,4(s1)
    4af6:	4c1c                	lw	a5,24(s0)
    4af8:	c41c                	sw	a5,8(s0)
    4afa:	00c45783          	lhu	a5,12(s0)
    4afe:	8ba1                	andi	a5,a5,8
    4b00:	c3c9                	beqz	a5,4b82 <__swbuf_r+0xb4>
    4b02:	481c                	lw	a5,16(s0)
    4b04:	cfbd                	beqz	a5,4b82 <__swbuf_r+0xb4>
    4b06:	481c                	lw	a5,16(s0)
    4b08:	4008                	lw	a0,0(s0)
    4b0a:	0ff97993          	andi	s3,s2,255
    4b0e:	0ff97913          	andi	s2,s2,255
    4b12:	8d1d                	sub	a0,a0,a5
    4b14:	485c                	lw	a5,20(s0)
    4b16:	00f54663          	blt	a0,a5,4b22 <__swbuf_r+0x54>
    4b1a:	85a2                	mv	a1,s0
    4b1c:	8526                	mv	a0,s1
    4b1e:	24d9                	jal	4de4 <_fflush_r>
    4b20:	e52d                	bnez	a0,4b8a <__swbuf_r+0xbc>
    4b22:	441c                	lw	a5,8(s0)
    4b24:	0505                	addi	a0,a0,1
    4b26:	17fd                	addi	a5,a5,-1
    4b28:	c41c                	sw	a5,8(s0)
    4b2a:	401c                	lw	a5,0(s0)
    4b2c:	00178713          	addi	a4,a5,1
    4b30:	c018                	sw	a4,0(s0)
    4b32:	01378023          	sb	s3,0(a5)
    4b36:	485c                	lw	a5,20(s0)
    4b38:	00a78963          	beq	a5,a0,4b4a <__swbuf_r+0x7c>
    4b3c:	00c45783          	lhu	a5,12(s0)
    4b40:	8b85                	andi	a5,a5,1
    4b42:	cb81                	beqz	a5,4b52 <__swbuf_r+0x84>
    4b44:	47a9                	li	a5,10
    4b46:	00f91663          	bne	s2,a5,4b52 <__swbuf_r+0x84>
    4b4a:	85a2                	mv	a1,s0
    4b4c:	8526                	mv	a0,s1
    4b4e:	2c59                	jal	4de4 <_fflush_r>
    4b50:	ed0d                	bnez	a0,4b8a <__swbuf_r+0xbc>
    4b52:	40f2                	lw	ra,28(sp)
    4b54:	4462                	lw	s0,24(sp)
    4b56:	854a                	mv	a0,s2
    4b58:	44d2                	lw	s1,20(sp)
    4b5a:	4942                	lw	s2,16(sp)
    4b5c:	49b2                	lw	s3,12(sp)
    4b5e:	6105                	addi	sp,sp,32
    4b60:	8082                	ret
    4b62:	00001797          	auipc	a5,0x1
    4b66:	c4278793          	addi	a5,a5,-958 # 57a4 <__sf_fake_stdout>
    4b6a:	00f41463          	bne	s0,a5,4b72 <__swbuf_r+0xa4>
    4b6e:	4480                	lw	s0,8(s1)
    4b70:	b759                	j	4af6 <__swbuf_r+0x28>
    4b72:	00001797          	auipc	a5,0x1
    4b76:	bf278793          	addi	a5,a5,-1038 # 5764 <__sf_fake_stderr>
    4b7a:	f6f41ee3          	bne	s0,a5,4af6 <__swbuf_r+0x28>
    4b7e:	44c0                	lw	s0,12(s1)
    4b80:	bf9d                	j	4af6 <__swbuf_r+0x28>
    4b82:	85a2                	mv	a1,s0
    4b84:	8526                	mv	a0,s1
    4b86:	2021                	jal	4b8e <__swsetup_r>
    4b88:	dd3d                	beqz	a0,4b06 <__swbuf_r+0x38>
    4b8a:	597d                	li	s2,-1
    4b8c:	b7d9                	j	4b52 <__swbuf_r+0x84>

00004b8e <__swsetup_r>:
__swsetup_r():
    4b8e:	1141                	addi	sp,sp,-16
    4b90:	80c18793          	addi	a5,gp,-2036 # 200000c4 <_impure_ptr>
    4b94:	c226                	sw	s1,4(sp)
    4b96:	4384                	lw	s1,0(a5)
    4b98:	c422                	sw	s0,8(sp)
    4b9a:	c04a                	sw	s2,0(sp)
    4b9c:	c606                	sw	ra,12(sp)
    4b9e:	892a                	mv	s2,a0
    4ba0:	842e                	mv	s0,a1
    4ba2:	c489                	beqz	s1,4bac <__swsetup_r+0x1e>
    4ba4:	4c9c                	lw	a5,24(s1)
    4ba6:	e399                	bnez	a5,4bac <__swsetup_r+0x1e>
    4ba8:	8526                	mv	a0,s1
    4baa:	2ea9                	jal	4f04 <__sinit>
    4bac:	00001797          	auipc	a5,0x1
    4bb0:	bd878793          	addi	a5,a5,-1064 # 5784 <__sf_fake_stdin>
    4bb4:	02f41c63          	bne	s0,a5,4bec <__swsetup_r+0x5e>
    4bb8:	40c0                	lw	s0,4(s1)
    4bba:	00c41703          	lh	a4,12(s0)
    4bbe:	01071793          	slli	a5,a4,0x10
    4bc2:	83c1                	srli	a5,a5,0x10
    4bc4:	0087f693          	andi	a3,a5,8
    4bc8:	eeb5                	bnez	a3,4c44 <__swsetup_r+0xb6>
    4bca:	0107f693          	andi	a3,a5,16
    4bce:	ee9d                	bnez	a3,4c0c <__swsetup_r+0x7e>
    4bd0:	47a5                	li	a5,9
    4bd2:	00f92023          	sw	a5,0(s2)
    4bd6:	04076713          	ori	a4,a4,64
    4bda:	00e41623          	sh	a4,12(s0)
    4bde:	557d                	li	a0,-1
    4be0:	40b2                	lw	ra,12(sp)
    4be2:	4422                	lw	s0,8(sp)
    4be4:	4492                	lw	s1,4(sp)
    4be6:	4902                	lw	s2,0(sp)
    4be8:	0141                	addi	sp,sp,16
    4bea:	8082                	ret
    4bec:	00001797          	auipc	a5,0x1
    4bf0:	bb878793          	addi	a5,a5,-1096 # 57a4 <__sf_fake_stdout>
    4bf4:	00f41463          	bne	s0,a5,4bfc <__swsetup_r+0x6e>
    4bf8:	4480                	lw	s0,8(s1)
    4bfa:	b7c1                	j	4bba <__swsetup_r+0x2c>
    4bfc:	00001797          	auipc	a5,0x1
    4c00:	b6878793          	addi	a5,a5,-1176 # 5764 <__sf_fake_stderr>
    4c04:	faf41be3          	bne	s0,a5,4bba <__swsetup_r+0x2c>
    4c08:	44c0                	lw	s0,12(s1)
    4c0a:	bf45                	j	4bba <__swsetup_r+0x2c>
    4c0c:	8b91                	andi	a5,a5,4
    4c0e:	c78d                	beqz	a5,4c38 <__swsetup_r+0xaa>
    4c10:	584c                	lw	a1,52(s0)
    4c12:	c989                	beqz	a1,4c24 <__swsetup_r+0x96>
    4c14:	04440793          	addi	a5,s0,68
    4c18:	00f58463          	beq	a1,a5,4c20 <__swsetup_r+0x92>
    4c1c:	854a                	mv	a0,s2
    4c1e:	23b5                	jal	518a <_free_r>
    4c20:	02042a23          	sw	zero,52(s0)
    4c24:	00c45783          	lhu	a5,12(s0)
    4c28:	00042223          	sw	zero,4(s0)
    4c2c:	fdb7f793          	andi	a5,a5,-37
    4c30:	00f41623          	sh	a5,12(s0)
    4c34:	481c                	lw	a5,16(s0)
    4c36:	c01c                	sw	a5,0(s0)
    4c38:	00c45783          	lhu	a5,12(s0)
    4c3c:	0087e793          	ori	a5,a5,8
    4c40:	00f41623          	sh	a5,12(s0)
    4c44:	481c                	lw	a5,16(s0)
    4c46:	ef81                	bnez	a5,4c5e <__swsetup_r+0xd0>
    4c48:	00c45783          	lhu	a5,12(s0)
    4c4c:	20000713          	li	a4,512
    4c50:	2807f793          	andi	a5,a5,640
    4c54:	00e78563          	beq	a5,a4,4c5e <__swsetup_r+0xd0>
    4c58:	85a2                	mv	a1,s0
    4c5a:	854a                	mv	a0,s2
    4c5c:	299d                	jal	50d2 <__smakebuf_r>
    4c5e:	00c45783          	lhu	a5,12(s0)
    4c62:	0017f713          	andi	a4,a5,1
    4c66:	c705                	beqz	a4,4c8e <__swsetup_r+0x100>
    4c68:	485c                	lw	a5,20(s0)
    4c6a:	00042423          	sw	zero,8(s0)
    4c6e:	40f007b3          	neg	a5,a5
    4c72:	cc1c                	sw	a5,24(s0)
    4c74:	481c                	lw	a5,16(s0)
    4c76:	4501                	li	a0,0
    4c78:	f7a5                	bnez	a5,4be0 <__swsetup_r+0x52>
    4c7a:	00c41783          	lh	a5,12(s0)
    4c7e:	0807f713          	andi	a4,a5,128
    4c82:	df39                	beqz	a4,4be0 <__swsetup_r+0x52>
    4c84:	0407e793          	ori	a5,a5,64
    4c88:	00f41623          	sh	a5,12(s0)
    4c8c:	bf89                	j	4bde <__swsetup_r+0x50>
    4c8e:	8b89                	andi	a5,a5,2
    4c90:	4701                	li	a4,0
    4c92:	e391                	bnez	a5,4c96 <__swsetup_r+0x108>
    4c94:	4858                	lw	a4,20(s0)
    4c96:	c418                	sw	a4,8(s0)
    4c98:	bff1                	j	4c74 <__swsetup_r+0xe6>

00004c9a <abort>:
abort():
    4c9a:	1141                	addi	sp,sp,-16
    4c9c:	4519                	li	a0,6
    4c9e:	c606                	sw	ra,12(sp)
    4ca0:	25fd                	jal	538e <raise>
    4ca2:	4505                	li	a0,1
    4ca4:	1ad000ef          	jal	ra,5650 <_exit>

00004ca8 <__sflush_r>:
__sflush_r():
    4ca8:	00c5d783          	lhu	a5,12(a1)
    4cac:	1101                	addi	sp,sp,-32
    4cae:	cc22                	sw	s0,24(sp)
    4cb0:	ca26                	sw	s1,20(sp)
    4cb2:	ce06                	sw	ra,28(sp)
    4cb4:	c84a                	sw	s2,16(sp)
    4cb6:	c64e                	sw	s3,12(sp)
    4cb8:	0087f713          	andi	a4,a5,8
    4cbc:	84aa                	mv	s1,a0
    4cbe:	842e                	mv	s0,a1
    4cc0:	ef71                	bnez	a4,4d9c <__sflush_r+0xf4>
    4cc2:	41d8                	lw	a4,4(a1)
    4cc4:	00e04d63          	bgtz	a4,4cde <__sflush_r+0x36>
    4cc8:	41b8                	lw	a4,64(a1)
    4cca:	00e04a63          	bgtz	a4,4cde <__sflush_r+0x36>
    4cce:	4501                	li	a0,0
    4cd0:	40f2                	lw	ra,28(sp)
    4cd2:	4462                	lw	s0,24(sp)
    4cd4:	44d2                	lw	s1,20(sp)
    4cd6:	4942                	lw	s2,16(sp)
    4cd8:	49b2                	lw	s3,12(sp)
    4cda:	6105                	addi	sp,sp,32
    4cdc:	8082                	ret
    4cde:	5458                	lw	a4,44(s0)
    4ce0:	d77d                	beqz	a4,4cce <__sflush_r+0x26>
    4ce2:	0004a903          	lw	s2,0(s1)
    4ce6:	01379693          	slli	a3,a5,0x13
    4cea:	0004a023          	sw	zero,0(s1)
    4cee:	0606dd63          	bgez	a3,4d68 <__sflush_r+0xc0>
    4cf2:	4870                	lw	a2,84(s0)
    4cf4:	00c45783          	lhu	a5,12(s0)
    4cf8:	8b91                	andi	a5,a5,4
    4cfa:	c799                	beqz	a5,4d08 <__sflush_r+0x60>
    4cfc:	405c                	lw	a5,4(s0)
    4cfe:	8e1d                	sub	a2,a2,a5
    4d00:	585c                	lw	a5,52(s0)
    4d02:	c399                	beqz	a5,4d08 <__sflush_r+0x60>
    4d04:	403c                	lw	a5,64(s0)
    4d06:	8e1d                	sub	a2,a2,a5
    4d08:	545c                	lw	a5,44(s0)
    4d0a:	500c                	lw	a1,32(s0)
    4d0c:	4681                	li	a3,0
    4d0e:	8526                	mv	a0,s1
    4d10:	9782                	jalr	a5
    4d12:	57fd                	li	a5,-1
    4d14:	00c45703          	lhu	a4,12(s0)
    4d18:	00f51d63          	bne	a0,a5,4d32 <__sflush_r+0x8a>
    4d1c:	4094                	lw	a3,0(s1)
    4d1e:	47f5                	li	a5,29
    4d20:	06d7e863          	bltu	a5,a3,4d90 <__sflush_r+0xe8>
    4d24:	204007b7          	lui	a5,0x20400
    4d28:	0785                	addi	a5,a5,1
    4d2a:	00d7d7b3          	srl	a5,a5,a3
    4d2e:	8b85                	andi	a5,a5,1
    4d30:	c3a5                	beqz	a5,4d90 <__sflush_r+0xe8>
    4d32:	481c                	lw	a5,16(s0)
    4d34:	00042223          	sw	zero,4(s0)
    4d38:	c01c                	sw	a5,0(s0)
    4d3a:	01371793          	slli	a5,a4,0x13
    4d3e:	0007d863          	bgez	a5,4d4e <__sflush_r+0xa6>
    4d42:	57fd                	li	a5,-1
    4d44:	00f51463          	bne	a0,a5,4d4c <__sflush_r+0xa4>
    4d48:	409c                	lw	a5,0(s1)
    4d4a:	e391                	bnez	a5,4d4e <__sflush_r+0xa6>
    4d4c:	c868                	sw	a0,84(s0)
    4d4e:	584c                	lw	a1,52(s0)
    4d50:	0124a023          	sw	s2,0(s1)
    4d54:	ddad                	beqz	a1,4cce <__sflush_r+0x26>
    4d56:	04440793          	addi	a5,s0,68
    4d5a:	00f58463          	beq	a1,a5,4d62 <__sflush_r+0xba>
    4d5e:	8526                	mv	a0,s1
    4d60:	212d                	jal	518a <_free_r>
    4d62:	02042a23          	sw	zero,52(s0)
    4d66:	b7a5                	j	4cce <__sflush_r+0x26>
    4d68:	500c                	lw	a1,32(s0)
    4d6a:	4601                	li	a2,0
    4d6c:	4685                	li	a3,1
    4d6e:	8526                	mv	a0,s1
    4d70:	9702                	jalr	a4
    4d72:	57fd                	li	a5,-1
    4d74:	862a                	mv	a2,a0
    4d76:	f6f51fe3          	bne	a0,a5,4cf4 <__sflush_r+0x4c>
    4d7a:	409c                	lw	a5,0(s1)
    4d7c:	dfa5                	beqz	a5,4cf4 <__sflush_r+0x4c>
    4d7e:	4775                	li	a4,29
    4d80:	00e78563          	beq	a5,a4,4d8a <__sflush_r+0xe2>
    4d84:	4759                	li	a4,22
    4d86:	04e79463          	bne	a5,a4,4dce <__sflush_r+0x126>
    4d8a:	0124a023          	sw	s2,0(s1)
    4d8e:	b781                	j	4cce <__sflush_r+0x26>
    4d90:	04076713          	ori	a4,a4,64
    4d94:	00e41623          	sh	a4,12(s0)
    4d98:	557d                	li	a0,-1
    4d9a:	bf1d                	j	4cd0 <__sflush_r+0x28>
    4d9c:	0105a983          	lw	s3,16(a1)
    4da0:	f20987e3          	beqz	s3,4cce <__sflush_r+0x26>
    4da4:	0005a903          	lw	s2,0(a1)
    4da8:	8b8d                	andi	a5,a5,3
    4daa:	0135a023          	sw	s3,0(a1)
    4dae:	41390933          	sub	s2,s2,s3
    4db2:	4701                	li	a4,0
    4db4:	e391                	bnez	a5,4db8 <__sflush_r+0x110>
    4db6:	49d8                	lw	a4,20(a1)
    4db8:	c418                	sw	a4,8(s0)
    4dba:	f1205ae3          	blez	s2,4cce <__sflush_r+0x26>
    4dbe:	541c                	lw	a5,40(s0)
    4dc0:	500c                	lw	a1,32(s0)
    4dc2:	86ca                	mv	a3,s2
    4dc4:	864e                	mv	a2,s3
    4dc6:	8526                	mv	a0,s1
    4dc8:	9782                	jalr	a5
    4dca:	00a04963          	bgtz	a0,4ddc <__sflush_r+0x134>
    4dce:	00c45783          	lhu	a5,12(s0)
    4dd2:	0407e793          	ori	a5,a5,64
    4dd6:	00f41623          	sh	a5,12(s0)
    4dda:	bf7d                	j	4d98 <__sflush_r+0xf0>
    4ddc:	99aa                	add	s3,s3,a0
    4dde:	40a90933          	sub	s2,s2,a0
    4de2:	bfe1                	j	4dba <__sflush_r+0x112>

00004de4 <_fflush_r>:
_fflush_r():
    4de4:	499c                	lw	a5,16(a1)
    4de6:	c3a5                	beqz	a5,4e46 <_fflush_r+0x62>
    4de8:	1101                	addi	sp,sp,-32
    4dea:	cc22                	sw	s0,24(sp)
    4dec:	ce06                	sw	ra,28(sp)
    4dee:	842a                	mv	s0,a0
    4df0:	c511                	beqz	a0,4dfc <_fflush_r+0x18>
    4df2:	4d1c                	lw	a5,24(a0)
    4df4:	e781                	bnez	a5,4dfc <_fflush_r+0x18>
    4df6:	c62e                	sw	a1,12(sp)
    4df8:	2231                	jal	4f04 <__sinit>
    4dfa:	45b2                	lw	a1,12(sp)
    4dfc:	00001797          	auipc	a5,0x1
    4e00:	98878793          	addi	a5,a5,-1656 # 5784 <__sf_fake_stdin>
    4e04:	00f59c63          	bne	a1,a5,4e1c <_fflush_r+0x38>
    4e08:	404c                	lw	a1,4(s0)
    4e0a:	00c59783          	lh	a5,12(a1)
    4e0e:	c79d                	beqz	a5,4e3c <_fflush_r+0x58>
    4e10:	8522                	mv	a0,s0
    4e12:	4462                	lw	s0,24(sp)
    4e14:	40f2                	lw	ra,28(sp)
    4e16:	6105                	addi	sp,sp,32
    4e18:	e91ff06f          	j	4ca8 <__sflush_r>
    4e1c:	00001797          	auipc	a5,0x1
    4e20:	98878793          	addi	a5,a5,-1656 # 57a4 <__sf_fake_stdout>
    4e24:	00f59463          	bne	a1,a5,4e2c <_fflush_r+0x48>
    4e28:	440c                	lw	a1,8(s0)
    4e2a:	b7c5                	j	4e0a <_fflush_r+0x26>
    4e2c:	00001797          	auipc	a5,0x1
    4e30:	93878793          	addi	a5,a5,-1736 # 5764 <__sf_fake_stderr>
    4e34:	fcf59be3          	bne	a1,a5,4e0a <_fflush_r+0x26>
    4e38:	444c                	lw	a1,12(s0)
    4e3a:	bfc1                	j	4e0a <_fflush_r+0x26>
    4e3c:	40f2                	lw	ra,28(sp)
    4e3e:	4462                	lw	s0,24(sp)
    4e40:	4501                	li	a0,0
    4e42:	6105                	addi	sp,sp,32
    4e44:	8082                	ret
    4e46:	4501                	li	a0,0
    4e48:	8082                	ret

00004e4a <std>:
std():
    4e4a:	1141                	addi	sp,sp,-16
    4e4c:	c422                	sw	s0,8(sp)
    4e4e:	c606                	sw	ra,12(sp)
    4e50:	842a                	mv	s0,a0
    4e52:	00b51623          	sh	a1,12(a0)
    4e56:	00c51723          	sh	a2,14(a0)
    4e5a:	00052023          	sw	zero,0(a0)
    4e5e:	00052223          	sw	zero,4(a0)
    4e62:	00052423          	sw	zero,8(a0)
    4e66:	06052223          	sw	zero,100(a0)
    4e6a:	00052823          	sw	zero,16(a0)
    4e6e:	00052a23          	sw	zero,20(a0)
    4e72:	00052c23          	sw	zero,24(a0)
    4e76:	4621                	li	a2,8
    4e78:	4581                	li	a1,0
    4e7a:	05c50513          	addi	a0,a0,92
    4e7e:	ac2fb0ef          	jal	ra,140 <memset>
    4e82:	00000797          	auipc	a5,0x0
    4e86:	54c78793          	addi	a5,a5,1356 # 53ce <__sread>
    4e8a:	d05c                	sw	a5,36(s0)
    4e8c:	00000797          	auipc	a5,0x0
    4e90:	57278793          	addi	a5,a5,1394 # 53fe <__swrite>
    4e94:	d41c                	sw	a5,40(s0)
    4e96:	00000797          	auipc	a5,0x0
    4e9a:	5b678793          	addi	a5,a5,1462 # 544c <__sseek>
    4e9e:	d45c                	sw	a5,44(s0)
    4ea0:	00000797          	auipc	a5,0x0
    4ea4:	5e278793          	addi	a5,a5,1506 # 5482 <__sclose>
    4ea8:	d000                	sw	s0,32(s0)
    4eaa:	d81c                	sw	a5,48(s0)
    4eac:	40b2                	lw	ra,12(sp)
    4eae:	4422                	lw	s0,8(sp)
    4eb0:	0141                	addi	sp,sp,16
    4eb2:	8082                	ret

00004eb4 <_cleanup_r>:
_cleanup_r():
    4eb4:	00000597          	auipc	a1,0x0
    4eb8:	f3058593          	addi	a1,a1,-208 # 4de4 <_fflush_r>
    4ebc:	aa89                	j	500e <_fwalk_reent>

00004ebe <__sfmoreglue>:
__sfmoreglue():
    4ebe:	1141                	addi	sp,sp,-16
    4ec0:	c226                	sw	s1,4(sp)
    4ec2:	06800613          	li	a2,104
    4ec6:	fff58493          	addi	s1,a1,-1
    4eca:	02c484b3          	mul	s1,s1,a2
    4ece:	c04a                	sw	s2,0(sp)
    4ed0:	892e                	mv	s2,a1
    4ed2:	c422                	sw	s0,8(sp)
    4ed4:	c606                	sw	ra,12(sp)
    4ed6:	07448593          	addi	a1,s1,116
    4eda:	2e91                	jal	522e <_malloc_r>
    4edc:	842a                	mv	s0,a0
    4ede:	cd01                	beqz	a0,4ef6 <__sfmoreglue+0x38>
    4ee0:	00052023          	sw	zero,0(a0)
    4ee4:	01252223          	sw	s2,4(a0)
    4ee8:	0531                	addi	a0,a0,12
    4eea:	c408                	sw	a0,8(s0)
    4eec:	06848613          	addi	a2,s1,104
    4ef0:	4581                	li	a1,0
    4ef2:	a4efb0ef          	jal	ra,140 <memset>
    4ef6:	8522                	mv	a0,s0
    4ef8:	40b2                	lw	ra,12(sp)
    4efa:	4422                	lw	s0,8(sp)
    4efc:	4492                	lw	s1,4(sp)
    4efe:	4902                	lw	s2,0(sp)
    4f00:	0141                	addi	sp,sp,16
    4f02:	8082                	ret

00004f04 <__sinit>:
__sinit():
    4f04:	4d1c                	lw	a5,24(a0)
    4f06:	e7a5                	bnez	a5,4f6e <__sinit+0x6a>
    4f08:	1141                	addi	sp,sp,-16
    4f0a:	c606                	sw	ra,12(sp)
    4f0c:	c422                	sw	s0,8(sp)
    4f0e:	00000797          	auipc	a5,0x0
    4f12:	fa678793          	addi	a5,a5,-90 # 4eb4 <_cleanup_r>
    4f16:	d51c                	sw	a5,40(a0)
    4f18:	81018793          	addi	a5,gp,-2032 # 200000c8 <_global_impure_ptr>
    4f1c:	439c                	lw	a5,0(a5)
    4f1e:	04052423          	sw	zero,72(a0)
    4f22:	04052623          	sw	zero,76(a0)
    4f26:	04052823          	sw	zero,80(a0)
    4f2a:	00f51463          	bne	a0,a5,4f32 <__sinit+0x2e>
    4f2e:	4785                	li	a5,1
    4f30:	cd1c                	sw	a5,24(a0)
    4f32:	842a                	mv	s0,a0
    4f34:	2835                	jal	4f70 <__sfp>
    4f36:	c048                	sw	a0,4(s0)
    4f38:	8522                	mv	a0,s0
    4f3a:	281d                	jal	4f70 <__sfp>
    4f3c:	c408                	sw	a0,8(s0)
    4f3e:	8522                	mv	a0,s0
    4f40:	2805                	jal	4f70 <__sfp>
    4f42:	c448                	sw	a0,12(s0)
    4f44:	4048                	lw	a0,4(s0)
    4f46:	4601                	li	a2,0
    4f48:	4591                	li	a1,4
    4f4a:	f01ff0ef          	jal	ra,4e4a <std>
    4f4e:	4408                	lw	a0,8(s0)
    4f50:	4605                	li	a2,1
    4f52:	45a5                	li	a1,9
    4f54:	ef7ff0ef          	jal	ra,4e4a <std>
    4f58:	4448                	lw	a0,12(s0)
    4f5a:	4609                	li	a2,2
    4f5c:	45c9                	li	a1,18
    4f5e:	eedff0ef          	jal	ra,4e4a <std>
    4f62:	4785                	li	a5,1
    4f64:	cc1c                	sw	a5,24(s0)
    4f66:	40b2                	lw	ra,12(sp)
    4f68:	4422                	lw	s0,8(sp)
    4f6a:	0141                	addi	sp,sp,16
    4f6c:	8082                	ret
    4f6e:	8082                	ret

00004f70 <__sfp>:
__sfp():
    4f70:	1141                	addi	sp,sp,-16
    4f72:	81018793          	addi	a5,gp,-2032 # 200000c8 <_global_impure_ptr>
    4f76:	c226                	sw	s1,4(sp)
    4f78:	4384                	lw	s1,0(a5)
    4f7a:	c04a                	sw	s2,0(sp)
    4f7c:	c606                	sw	ra,12(sp)
    4f7e:	4c9c                	lw	a5,24(s1)
    4f80:	c422                	sw	s0,8(sp)
    4f82:	892a                	mv	s2,a0
    4f84:	e399                	bnez	a5,4f8a <__sfp+0x1a>
    4f86:	8526                	mv	a0,s1
    4f88:	3fb5                	jal	4f04 <__sinit>
    4f8a:	04848493          	addi	s1,s1,72
    4f8e:	4480                	lw	s0,8(s1)
    4f90:	40dc                	lw	a5,4(s1)
    4f92:	17fd                	addi	a5,a5,-1
    4f94:	0007d663          	bgez	a5,4fa0 <__sfp+0x30>
    4f98:	409c                	lw	a5,0(s1)
    4f9a:	cfb9                	beqz	a5,4ff8 <__sfp+0x88>
    4f9c:	4084                	lw	s1,0(s1)
    4f9e:	bfc5                	j	4f8e <__sfp+0x1e>
    4fa0:	00c41703          	lh	a4,12(s0)
    4fa4:	e739                	bnez	a4,4ff2 <__sfp+0x82>
    4fa6:	77c1                	lui	a5,0xffff0
    4fa8:	0785                	addi	a5,a5,1
    4faa:	06042223          	sw	zero,100(s0)
    4fae:	00042023          	sw	zero,0(s0)
    4fb2:	00042223          	sw	zero,4(s0)
    4fb6:	00042423          	sw	zero,8(s0)
    4fba:	c45c                	sw	a5,12(s0)
    4fbc:	00042823          	sw	zero,16(s0)
    4fc0:	00042a23          	sw	zero,20(s0)
    4fc4:	00042c23          	sw	zero,24(s0)
    4fc8:	4621                	li	a2,8
    4fca:	4581                	li	a1,0
    4fcc:	05c40513          	addi	a0,s0,92
    4fd0:	970fb0ef          	jal	ra,140 <memset>
    4fd4:	02042a23          	sw	zero,52(s0)
    4fd8:	02042c23          	sw	zero,56(s0)
    4fdc:	04042423          	sw	zero,72(s0)
    4fe0:	04042623          	sw	zero,76(s0)
    4fe4:	8522                	mv	a0,s0
    4fe6:	40b2                	lw	ra,12(sp)
    4fe8:	4422                	lw	s0,8(sp)
    4fea:	4492                	lw	s1,4(sp)
    4fec:	4902                	lw	s2,0(sp)
    4fee:	0141                	addi	sp,sp,16
    4ff0:	8082                	ret
    4ff2:	06840413          	addi	s0,s0,104
    4ff6:	bf71                	j	4f92 <__sfp+0x22>
    4ff8:	4591                	li	a1,4
    4ffa:	854a                	mv	a0,s2
    4ffc:	ec3ff0ef          	jal	ra,4ebe <__sfmoreglue>
    5000:	c088                	sw	a0,0(s1)
    5002:	fd49                	bnez	a0,4f9c <__sfp+0x2c>
    5004:	47b1                	li	a5,12
    5006:	00f92023          	sw	a5,0(s2)
    500a:	4401                	li	s0,0
    500c:	bfe1                	j	4fe4 <__sfp+0x74>

0000500e <_fwalk_reent>:
_fwalk_reent():
    500e:	7179                	addi	sp,sp,-48
    5010:	d422                	sw	s0,40(sp)
    5012:	d04a                	sw	s2,32(sp)
    5014:	cc52                	sw	s4,24(sp)
    5016:	ca56                	sw	s5,20(sp)
    5018:	c85a                	sw	s6,16(sp)
    501a:	c65e                	sw	s7,12(sp)
    501c:	d606                	sw	ra,44(sp)
    501e:	d226                	sw	s1,36(sp)
    5020:	ce4e                	sw	s3,28(sp)
    5022:	8a2a                	mv	s4,a0
    5024:	8aae                	mv	s5,a1
    5026:	04850413          	addi	s0,a0,72
    502a:	4901                	li	s2,0
    502c:	4b05                	li	s6,1
    502e:	5bfd                	li	s7,-1
    5030:	ec09                	bnez	s0,504a <_fwalk_reent+0x3c>
    5032:	50b2                	lw	ra,44(sp)
    5034:	5422                	lw	s0,40(sp)
    5036:	854a                	mv	a0,s2
    5038:	5492                	lw	s1,36(sp)
    503a:	5902                	lw	s2,32(sp)
    503c:	49f2                	lw	s3,28(sp)
    503e:	4a62                	lw	s4,24(sp)
    5040:	4ad2                	lw	s5,20(sp)
    5042:	4b42                	lw	s6,16(sp)
    5044:	4bb2                	lw	s7,12(sp)
    5046:	6145                	addi	sp,sp,48
    5048:	8082                	ret
    504a:	4404                	lw	s1,8(s0)
    504c:	00442983          	lw	s3,4(s0)
    5050:	19fd                	addi	s3,s3,-1
    5052:	0009d463          	bgez	s3,505a <_fwalk_reent+0x4c>
    5056:	4000                	lw	s0,0(s0)
    5058:	bfe1                	j	5030 <_fwalk_reent+0x22>
    505a:	00c4d783          	lhu	a5,12(s1)
    505e:	00fb7b63          	bgeu	s6,a5,5074 <_fwalk_reent+0x66>
    5062:	00e49783          	lh	a5,14(s1)
    5066:	01778763          	beq	a5,s7,5074 <_fwalk_reent+0x66>
    506a:	85a6                	mv	a1,s1
    506c:	8552                	mv	a0,s4
    506e:	9a82                	jalr	s5
    5070:	00a96933          	or	s2,s2,a0
    5074:	06848493          	addi	s1,s1,104
    5078:	bfe1                	j	5050 <_fwalk_reent+0x42>

0000507a <__swhatbuf_r>:
__swhatbuf_r():
    507a:	7119                	addi	sp,sp,-128
    507c:	daa6                	sw	s1,116(sp)
    507e:	84ae                	mv	s1,a1
    5080:	00e59583          	lh	a1,14(a1)
    5084:	dca2                	sw	s0,120(sp)
    5086:	de86                	sw	ra,124(sp)
    5088:	8432                	mv	s0,a2
    508a:	0005dc63          	bgez	a1,50a2 <__swhatbuf_r+0x28>
    508e:	00c4d783          	lhu	a5,12(s1)
    5092:	0006a023          	sw	zero,0(a3)
    5096:	0807f793          	andi	a5,a5,128
    509a:	e39d                	bnez	a5,50c0 <__swhatbuf_r+0x46>
    509c:	40000793          	li	a5,1024
    50a0:	a015                	j	50c4 <__swhatbuf_r+0x4a>
    50a2:	0830                	addi	a2,sp,24
    50a4:	c636                	sw	a3,12(sp)
    50a6:	21a1                	jal	54ee <_fstat_r>
    50a8:	46b2                	lw	a3,12(sp)
    50aa:	fe0542e3          	bltz	a0,508e <__swhatbuf_r+0x14>
    50ae:	4772                	lw	a4,28(sp)
    50b0:	67bd                	lui	a5,0xf
    50b2:	8ff9                	and	a5,a5,a4
    50b4:	7779                	lui	a4,0xffffe
    50b6:	97ba                	add	a5,a5,a4
    50b8:	0017b793          	seqz	a5,a5
    50bc:	c29c                	sw	a5,0(a3)
    50be:	bff9                	j	509c <__swhatbuf_r+0x22>
    50c0:	04000793          	li	a5,64
    50c4:	c01c                	sw	a5,0(s0)
    50c6:	50f6                	lw	ra,124(sp)
    50c8:	5466                	lw	s0,120(sp)
    50ca:	54d6                	lw	s1,116(sp)
    50cc:	4501                	li	a0,0
    50ce:	6109                	addi	sp,sp,128
    50d0:	8082                	ret

000050d2 <__smakebuf_r>:
__smakebuf_r():
    50d2:	00c5d783          	lhu	a5,12(a1)
    50d6:	1101                	addi	sp,sp,-32
    50d8:	cc22                	sw	s0,24(sp)
    50da:	ce06                	sw	ra,28(sp)
    50dc:	ca26                	sw	s1,20(sp)
    50de:	c84a                	sw	s2,16(sp)
    50e0:	8b89                	andi	a5,a5,2
    50e2:	842e                	mv	s0,a1
    50e4:	cf89                	beqz	a5,50fe <__smakebuf_r+0x2c>
    50e6:	04740793          	addi	a5,s0,71
    50ea:	c01c                	sw	a5,0(s0)
    50ec:	c81c                	sw	a5,16(s0)
    50ee:	4785                	li	a5,1
    50f0:	c85c                	sw	a5,20(s0)
    50f2:	40f2                	lw	ra,28(sp)
    50f4:	4462                	lw	s0,24(sp)
    50f6:	44d2                	lw	s1,20(sp)
    50f8:	4942                	lw	s2,16(sp)
    50fa:	6105                	addi	sp,sp,32
    50fc:	8082                	ret
    50fe:	0074                	addi	a3,sp,12
    5100:	0030                	addi	a2,sp,8
    5102:	84aa                	mv	s1,a0
    5104:	f77ff0ef          	jal	ra,507a <__swhatbuf_r>
    5108:	45a2                	lw	a1,8(sp)
    510a:	892a                	mv	s2,a0
    510c:	8526                	mv	a0,s1
    510e:	2205                	jal	522e <_malloc_r>
    5110:	ed01                	bnez	a0,5128 <__smakebuf_r+0x56>
    5112:	00c41783          	lh	a5,12(s0)
    5116:	2007f713          	andi	a4,a5,512
    511a:	ff61                	bnez	a4,50f2 <__smakebuf_r+0x20>
    511c:	9bf1                	andi	a5,a5,-4
    511e:	0027e793          	ori	a5,a5,2
    5122:	00f41623          	sh	a5,12(s0)
    5126:	b7c1                	j	50e6 <__smakebuf_r+0x14>
    5128:	00000797          	auipc	a5,0x0
    512c:	d8c78793          	addi	a5,a5,-628 # 4eb4 <_cleanup_r>
    5130:	d49c                	sw	a5,40(s1)
    5132:	00c45783          	lhu	a5,12(s0)
    5136:	c008                	sw	a0,0(s0)
    5138:	c808                	sw	a0,16(s0)
    513a:	0807e793          	ori	a5,a5,128
    513e:	00f41623          	sh	a5,12(s0)
    5142:	47a2                	lw	a5,8(sp)
    5144:	c85c                	sw	a5,20(s0)
    5146:	47b2                	lw	a5,12(sp)
    5148:	cf89                	beqz	a5,5162 <__smakebuf_r+0x90>
    514a:	00e41583          	lh	a1,14(s0)
    514e:	8526                	mv	a0,s1
    5150:	2ec1                	jal	5520 <_isatty_r>
    5152:	c901                	beqz	a0,5162 <__smakebuf_r+0x90>
    5154:	00c45783          	lhu	a5,12(s0)
    5158:	9bf1                	andi	a5,a5,-4
    515a:	0017e793          	ori	a5,a5,1
    515e:	00f41623          	sh	a5,12(s0)
    5162:	00c45783          	lhu	a5,12(s0)
    5166:	00f96933          	or	s2,s2,a5
    516a:	01241623          	sh	s2,12(s0)
    516e:	b751                	j	50f2 <__smakebuf_r+0x20>

00005170 <memchr>:
memchr():
    5170:	0ff5f593          	andi	a1,a1,255
    5174:	962a                	add	a2,a2,a0
    5176:	00c51463          	bne	a0,a2,517e <memchr+0xe>
    517a:	4501                	li	a0,0
    517c:	8082                	ret
    517e:	00054783          	lbu	a5,0(a0)
    5182:	feb78de3          	beq	a5,a1,517c <memchr+0xc>
    5186:	0505                	addi	a0,a0,1
    5188:	b7fd                	j	5176 <memchr+0x6>

0000518a <_free_r>:
_free_r():
    518a:	c1cd                	beqz	a1,522c <_free_r+0xa2>
    518c:	ffc5a783          	lw	a5,-4(a1)
    5190:	1141                	addi	sp,sp,-16
    5192:	c422                	sw	s0,8(sp)
    5194:	c606                	sw	ra,12(sp)
    5196:	c226                	sw	s1,4(sp)
    5198:	ffc58413          	addi	s0,a1,-4
    519c:	0007d363          	bgez	a5,51a2 <_free_r+0x18>
    51a0:	943e                	add	s0,s0,a5
    51a2:	84aa                	mv	s1,a0
    51a4:	26c5                	jal	5584 <__malloc_lock>
    51a6:	84418793          	addi	a5,gp,-1980 # 200000fc <__malloc_free_list>
    51aa:	439c                	lw	a5,0(a5)
    51ac:	eb99                	bnez	a5,51c2 <_free_r+0x38>
    51ae:	00042223          	sw	zero,4(s0)
    51b2:	8481a223          	sw	s0,-1980(gp) # 200000fc <__malloc_free_list>
    51b6:	4422                	lw	s0,8(sp)
    51b8:	40b2                	lw	ra,12(sp)
    51ba:	8526                	mv	a0,s1
    51bc:	4492                	lw	s1,4(sp)
    51be:	0141                	addi	sp,sp,16
    51c0:	a6d9                	j	5586 <__malloc_unlock>
    51c2:	00f47e63          	bgeu	s0,a5,51de <_free_r+0x54>
    51c6:	4014                	lw	a3,0(s0)
    51c8:	00d40733          	add	a4,s0,a3
    51cc:	00e79663          	bne	a5,a4,51d8 <_free_r+0x4e>
    51d0:	4398                	lw	a4,0(a5)
    51d2:	43dc                	lw	a5,4(a5)
    51d4:	9736                	add	a4,a4,a3
    51d6:	c018                	sw	a4,0(s0)
    51d8:	c05c                	sw	a5,4(s0)
    51da:	bfe1                	j	51b2 <_free_r+0x28>
    51dc:	87ba                	mv	a5,a4
    51de:	43d8                	lw	a4,4(a5)
    51e0:	c319                	beqz	a4,51e6 <_free_r+0x5c>
    51e2:	fee47de3          	bgeu	s0,a4,51dc <_free_r+0x52>
    51e6:	4394                	lw	a3,0(a5)
    51e8:	00d78633          	add	a2,a5,a3
    51ec:	00861f63          	bne	a2,s0,520a <_free_r+0x80>
    51f0:	4010                	lw	a2,0(s0)
    51f2:	96b2                	add	a3,a3,a2
    51f4:	c394                	sw	a3,0(a5)
    51f6:	00d78633          	add	a2,a5,a3
    51fa:	fac71ee3          	bne	a4,a2,51b6 <_free_r+0x2c>
    51fe:	4310                	lw	a2,0(a4)
    5200:	4358                	lw	a4,4(a4)
    5202:	96b2                	add	a3,a3,a2
    5204:	c394                	sw	a3,0(a5)
    5206:	c3d8                	sw	a4,4(a5)
    5208:	b77d                	j	51b6 <_free_r+0x2c>
    520a:	00c47563          	bgeu	s0,a2,5214 <_free_r+0x8a>
    520e:	47b1                	li	a5,12
    5210:	c09c                	sw	a5,0(s1)
    5212:	b755                	j	51b6 <_free_r+0x2c>
    5214:	4010                	lw	a2,0(s0)
    5216:	00c406b3          	add	a3,s0,a2
    521a:	00d71663          	bne	a4,a3,5226 <_free_r+0x9c>
    521e:	4314                	lw	a3,0(a4)
    5220:	4358                	lw	a4,4(a4)
    5222:	96b2                	add	a3,a3,a2
    5224:	c014                	sw	a3,0(s0)
    5226:	c058                	sw	a4,4(s0)
    5228:	c3c0                	sw	s0,4(a5)
    522a:	b771                	j	51b6 <_free_r+0x2c>
    522c:	8082                	ret

0000522e <_malloc_r>:
_malloc_r():
    522e:	1101                	addi	sp,sp,-32
    5230:	ca26                	sw	s1,20(sp)
    5232:	00358493          	addi	s1,a1,3
    5236:	98f1                	andi	s1,s1,-4
    5238:	ce06                	sw	ra,28(sp)
    523a:	cc22                	sw	s0,24(sp)
    523c:	c84a                	sw	s2,16(sp)
    523e:	c64e                	sw	s3,12(sp)
    5240:	04a1                	addi	s1,s1,8
    5242:	47b1                	li	a5,12
    5244:	04f4f163          	bgeu	s1,a5,5286 <_malloc_r+0x58>
    5248:	44b1                	li	s1,12
    524a:	04b4e063          	bltu	s1,a1,528a <_malloc_r+0x5c>
    524e:	892a                	mv	s2,a0
    5250:	2e15                	jal	5584 <__malloc_lock>
    5252:	84418793          	addi	a5,gp,-1980 # 200000fc <__malloc_free_list>
    5256:	4398                	lw	a4,0(a5)
    5258:	843a                	mv	s0,a4
    525a:	e031                	bnez	s0,529e <_malloc_r+0x70>
    525c:	84818793          	addi	a5,gp,-1976 # 20000100 <__malloc_sbrk_start>
    5260:	439c                	lw	a5,0(a5)
    5262:	e791                	bnez	a5,526e <_malloc_r+0x40>
    5264:	4581                	li	a1,0
    5266:	854a                	mv	a0,s2
    5268:	2851                	jal	52fc <_sbrk_r>
    526a:	84a1a423          	sw	a0,-1976(gp) # 20000100 <__malloc_sbrk_start>
    526e:	85a6                	mv	a1,s1
    5270:	854a                	mv	a0,s2
    5272:	2069                	jal	52fc <_sbrk_r>
    5274:	59fd                	li	s3,-1
    5276:	07351763          	bne	a0,s3,52e4 <_malloc_r+0xb6>
    527a:	47b1                	li	a5,12
    527c:	00f92023          	sw	a5,0(s2)
    5280:	854a                	mv	a0,s2
    5282:	2611                	jal	5586 <__malloc_unlock>
    5284:	a029                	j	528e <_malloc_r+0x60>
    5286:	fc04d2e3          	bgez	s1,524a <_malloc_r+0x1c>
    528a:	47b1                	li	a5,12
    528c:	c11c                	sw	a5,0(a0)
    528e:	4501                	li	a0,0
    5290:	40f2                	lw	ra,28(sp)
    5292:	4462                	lw	s0,24(sp)
    5294:	44d2                	lw	s1,20(sp)
    5296:	4942                	lw	s2,16(sp)
    5298:	49b2                	lw	s3,12(sp)
    529a:	6105                	addi	sp,sp,32
    529c:	8082                	ret
    529e:	401c                	lw	a5,0(s0)
    52a0:	8f85                	sub	a5,a5,s1
    52a2:	0207ce63          	bltz	a5,52de <_malloc_r+0xb0>
    52a6:	46ad                	li	a3,11
    52a8:	00f6f663          	bgeu	a3,a5,52b4 <_malloc_r+0x86>
    52ac:	c01c                	sw	a5,0(s0)
    52ae:	943e                	add	s0,s0,a5
    52b0:	c004                	sw	s1,0(s0)
    52b2:	a031                	j	52be <_malloc_r+0x90>
    52b4:	405c                	lw	a5,4(s0)
    52b6:	02871263          	bne	a4,s0,52da <_malloc_r+0xac>
    52ba:	84f1a223          	sw	a5,-1980(gp) # 200000fc <__malloc_free_list>
    52be:	854a                	mv	a0,s2
    52c0:	24d9                	jal	5586 <__malloc_unlock>
    52c2:	00b40513          	addi	a0,s0,11
    52c6:	00440793          	addi	a5,s0,4
    52ca:	9961                	andi	a0,a0,-8
    52cc:	40f50733          	sub	a4,a0,a5
    52d0:	d361                	beqz	a4,5290 <_malloc_r+0x62>
    52d2:	943a                	add	s0,s0,a4
    52d4:	8f89                	sub	a5,a5,a0
    52d6:	c01c                	sw	a5,0(s0)
    52d8:	bf65                	j	5290 <_malloc_r+0x62>
    52da:	c35c                	sw	a5,4(a4)
    52dc:	b7cd                	j	52be <_malloc_r+0x90>
    52de:	8722                	mv	a4,s0
    52e0:	4040                	lw	s0,4(s0)
    52e2:	bfa5                	j	525a <_malloc_r+0x2c>
    52e4:	00350413          	addi	s0,a0,3
    52e8:	9871                	andi	s0,s0,-4
    52ea:	fc8503e3          	beq	a0,s0,52b0 <_malloc_r+0x82>
    52ee:	40a405b3          	sub	a1,s0,a0
    52f2:	854a                	mv	a0,s2
    52f4:	2021                	jal	52fc <_sbrk_r>
    52f6:	fb351de3          	bne	a0,s3,52b0 <_malloc_r+0x82>
    52fa:	b741                	j	527a <_malloc_r+0x4c>

000052fc <_sbrk_r>:
_sbrk_r():
    52fc:	1141                	addi	sp,sp,-16
    52fe:	c422                	sw	s0,8(sp)
    5300:	842a                	mv	s0,a0
    5302:	852e                	mv	a0,a1
    5304:	1fffd797          	auipc	a5,0x1fffd
    5308:	3807ae23          	sw	zero,924(a5) # 200026a0 <errno>
    530c:	c606                	sw	ra,12(sp)
    530e:	2e39                	jal	562c <_sbrk>
    5310:	57fd                	li	a5,-1
    5312:	00f51963          	bne	a0,a5,5324 <_sbrk_r+0x28>
    5316:	1fffd797          	auipc	a5,0x1fffd
    531a:	38a78793          	addi	a5,a5,906 # 200026a0 <errno>
    531e:	439c                	lw	a5,0(a5)
    5320:	c391                	beqz	a5,5324 <_sbrk_r+0x28>
    5322:	c01c                	sw	a5,0(s0)
    5324:	40b2                	lw	ra,12(sp)
    5326:	4422                	lw	s0,8(sp)
    5328:	0141                	addi	sp,sp,16
    532a:	8082                	ret

0000532c <_raise_r>:
_raise_r():
    532c:	47fd                	li	a5,31
    532e:	00b7f663          	bgeu	a5,a1,533a <_raise_r+0xe>
    5332:	47d9                	li	a5,22
    5334:	c11c                	sw	a5,0(a0)
    5336:	557d                	li	a0,-1
    5338:	8082                	ret
    533a:	417c                	lw	a5,68(a0)
    533c:	1101                	addi	sp,sp,-32
    533e:	cc22                	sw	s0,24(sp)
    5340:	ce06                	sw	ra,28(sp)
    5342:	862e                	mv	a2,a1
    5344:	842a                	mv	s0,a0
    5346:	c791                	beqz	a5,5352 <_raise_r+0x26>
    5348:	00259713          	slli	a4,a1,0x2
    534c:	97ba                	add	a5,a5,a4
    534e:	4398                	lw	a4,0(a5)
    5350:	eb19                	bnez	a4,5366 <_raise_r+0x3a>
    5352:	8522                	mv	a0,s0
    5354:	c632                	sw	a2,12(sp)
    5356:	289d                	jal	53cc <_getpid_r>
    5358:	85aa                	mv	a1,a0
    535a:	8522                	mv	a0,s0
    535c:	4462                	lw	s0,24(sp)
    535e:	4632                	lw	a2,12(sp)
    5360:	40f2                	lw	ra,28(sp)
    5362:	6105                	addi	sp,sp,32
    5364:	a81d                	j	539a <_kill_r>
    5366:	4685                	li	a3,1
    5368:	4501                	li	a0,0
    536a:	00d70863          	beq	a4,a3,537a <_raise_r+0x4e>
    536e:	56fd                	li	a3,-1
    5370:	00d71963          	bne	a4,a3,5382 <_raise_r+0x56>
    5374:	47d9                	li	a5,22
    5376:	c01c                	sw	a5,0(s0)
    5378:	4505                	li	a0,1
    537a:	40f2                	lw	ra,28(sp)
    537c:	4462                	lw	s0,24(sp)
    537e:	6105                	addi	sp,sp,32
    5380:	8082                	ret
    5382:	852e                	mv	a0,a1
    5384:	0007a023          	sw	zero,0(a5)
    5388:	9702                	jalr	a4
    538a:	4501                	li	a0,0
    538c:	b7fd                	j	537a <_raise_r+0x4e>

0000538e <raise>:
raise():
    538e:	80c18793          	addi	a5,gp,-2036 # 200000c4 <_impure_ptr>
    5392:	85aa                	mv	a1,a0
    5394:	4388                	lw	a0,0(a5)
    5396:	f97ff06f          	j	532c <_raise_r>

0000539a <_kill_r>:
_kill_r():
    539a:	1141                	addi	sp,sp,-16
    539c:	c422                	sw	s0,8(sp)
    539e:	842a                	mv	s0,a0
    53a0:	852e                	mv	a0,a1
    53a2:	85b2                	mv	a1,a2
    53a4:	1fffd797          	auipc	a5,0x1fffd
    53a8:	2e07ae23          	sw	zero,764(a5) # 200026a0 <errno>
    53ac:	c606                	sw	ra,12(sp)
    53ae:	24b9                	jal	55fc <_kill>
    53b0:	57fd                	li	a5,-1
    53b2:	00f51963          	bne	a0,a5,53c4 <_kill_r+0x2a>
    53b6:	1fffd797          	auipc	a5,0x1fffd
    53ba:	2ea78793          	addi	a5,a5,746 # 200026a0 <errno>
    53be:	439c                	lw	a5,0(a5)
    53c0:	c391                	beqz	a5,53c4 <_kill_r+0x2a>
    53c2:	c01c                	sw	a5,0(s0)
    53c4:	40b2                	lw	ra,12(sp)
    53c6:	4422                	lw	s0,8(sp)
    53c8:	0141                	addi	sp,sp,16
    53ca:	8082                	ret

000053cc <_getpid_r>:
_getpid_r():
    53cc:	ac01                	j	55dc <_getpid>

000053ce <__sread>:
__sread():
    53ce:	1141                	addi	sp,sp,-16
    53d0:	c422                	sw	s0,8(sp)
    53d2:	842e                	mv	s0,a1
    53d4:	00e59583          	lh	a1,14(a1)
    53d8:	c606                	sw	ra,12(sp)
    53da:	227d                	jal	5588 <_read_r>
    53dc:	00054963          	bltz	a0,53ee <__sread+0x20>
    53e0:	487c                	lw	a5,84(s0)
    53e2:	97aa                	add	a5,a5,a0
    53e4:	c87c                	sw	a5,84(s0)
    53e6:	40b2                	lw	ra,12(sp)
    53e8:	4422                	lw	s0,8(sp)
    53ea:	0141                	addi	sp,sp,16
    53ec:	8082                	ret
    53ee:	00c45783          	lhu	a5,12(s0)
    53f2:	777d                	lui	a4,0xfffff
    53f4:	177d                	addi	a4,a4,-1
    53f6:	8ff9                	and	a5,a5,a4
    53f8:	00f41623          	sh	a5,12(s0)
    53fc:	b7ed                	j	53e6 <__sread+0x18>

000053fe <__swrite>:
__swrite():
    53fe:	00c5d783          	lhu	a5,12(a1)
    5402:	1101                	addi	sp,sp,-32
    5404:	cc22                	sw	s0,24(sp)
    5406:	ca26                	sw	s1,20(sp)
    5408:	c84a                	sw	s2,16(sp)
    540a:	c64e                	sw	s3,12(sp)
    540c:	ce06                	sw	ra,28(sp)
    540e:	1007f793          	andi	a5,a5,256
    5412:	84aa                	mv	s1,a0
    5414:	842e                	mv	s0,a1
    5416:	8932                	mv	s2,a2
    5418:	89b6                	mv	s3,a3
    541a:	c791                	beqz	a5,5426 <__swrite+0x28>
    541c:	00e59583          	lh	a1,14(a1)
    5420:	4689                	li	a3,2
    5422:	4601                	li	a2,0
    5424:	2235                	jal	5550 <_lseek_r>
    5426:	00c45783          	lhu	a5,12(s0)
    542a:	777d                	lui	a4,0xfffff
    542c:	177d                	addi	a4,a4,-1
    542e:	8ff9                	and	a5,a5,a4
    5430:	00f41623          	sh	a5,12(s0)
    5434:	00e41583          	lh	a1,14(s0)
    5438:	4462                	lw	s0,24(sp)
    543a:	40f2                	lw	ra,28(sp)
    543c:	86ce                	mv	a3,s3
    543e:	864a                	mv	a2,s2
    5440:	49b2                	lw	s3,12(sp)
    5442:	4942                	lw	s2,16(sp)
    5444:	8526                	mv	a0,s1
    5446:	44d2                	lw	s1,20(sp)
    5448:	6105                	addi	sp,sp,32
    544a:	a83d                	j	5488 <_write_r>

0000544c <__sseek>:
__sseek():
    544c:	1141                	addi	sp,sp,-16
    544e:	c422                	sw	s0,8(sp)
    5450:	842e                	mv	s0,a1
    5452:	00e59583          	lh	a1,14(a1)
    5456:	c606                	sw	ra,12(sp)
    5458:	28e5                	jal	5550 <_lseek_r>
    545a:	57fd                	li	a5,-1
    545c:	00c45703          	lhu	a4,12(s0)
    5460:	00f51b63          	bne	a0,a5,5476 <__sseek+0x2a>
    5464:	77fd                	lui	a5,0xfffff
    5466:	17fd                	addi	a5,a5,-1
    5468:	8ff9                	and	a5,a5,a4
    546a:	00f41623          	sh	a5,12(s0)
    546e:	40b2                	lw	ra,12(sp)
    5470:	4422                	lw	s0,8(sp)
    5472:	0141                	addi	sp,sp,16
    5474:	8082                	ret
    5476:	6785                	lui	a5,0x1
    5478:	8fd9                	or	a5,a5,a4
    547a:	00f41623          	sh	a5,12(s0)
    547e:	c868                	sw	a0,84(s0)
    5480:	b7fd                	j	546e <__sseek+0x22>

00005482 <__sclose>:
__sclose():
    5482:	00e59583          	lh	a1,14(a1)
    5486:	a825                	j	54be <_close_r>

00005488 <_write_r>:
_write_r():
    5488:	1141                	addi	sp,sp,-16
    548a:	c422                	sw	s0,8(sp)
    548c:	842a                	mv	s0,a0
    548e:	852e                	mv	a0,a1
    5490:	85b2                	mv	a1,a2
    5492:	8636                	mv	a2,a3
    5494:	1fffd797          	auipc	a5,0x1fffd
    5498:	2007a623          	sw	zero,524(a5) # 200026a0 <errno>
    549c:	c606                	sw	ra,12(sp)
    549e:	edafe0ef          	jal	ra,3b78 <_write>
    54a2:	57fd                	li	a5,-1
    54a4:	00f51963          	bne	a0,a5,54b6 <_write_r+0x2e>
    54a8:	1fffd797          	auipc	a5,0x1fffd
    54ac:	1f878793          	addi	a5,a5,504 # 200026a0 <errno>
    54b0:	439c                	lw	a5,0(a5)
    54b2:	c391                	beqz	a5,54b6 <_write_r+0x2e>
    54b4:	c01c                	sw	a5,0(s0)
    54b6:	40b2                	lw	ra,12(sp)
    54b8:	4422                	lw	s0,8(sp)
    54ba:	0141                	addi	sp,sp,16
    54bc:	8082                	ret

000054be <_close_r>:
_close_r():
    54be:	1141                	addi	sp,sp,-16
    54c0:	c422                	sw	s0,8(sp)
    54c2:	842a                	mv	s0,a0
    54c4:	852e                	mv	a0,a1
    54c6:	1fffd797          	auipc	a5,0x1fffd
    54ca:	1c07ad23          	sw	zero,474(a5) # 200026a0 <errno>
    54ce:	c606                	sw	ra,12(sp)
    54d0:	20f5                	jal	55bc <_close>
    54d2:	57fd                	li	a5,-1
    54d4:	00f51963          	bne	a0,a5,54e6 <_close_r+0x28>
    54d8:	1fffd797          	auipc	a5,0x1fffd
    54dc:	1c878793          	addi	a5,a5,456 # 200026a0 <errno>
    54e0:	439c                	lw	a5,0(a5)
    54e2:	c391                	beqz	a5,54e6 <_close_r+0x28>
    54e4:	c01c                	sw	a5,0(s0)
    54e6:	40b2                	lw	ra,12(sp)
    54e8:	4422                	lw	s0,8(sp)
    54ea:	0141                	addi	sp,sp,16
    54ec:	8082                	ret

000054ee <_fstat_r>:
_fstat_r():
    54ee:	1141                	addi	sp,sp,-16
    54f0:	c422                	sw	s0,8(sp)
    54f2:	842a                	mv	s0,a0
    54f4:	852e                	mv	a0,a1
    54f6:	85b2                	mv	a1,a2
    54f8:	1fffd797          	auipc	a5,0x1fffd
    54fc:	1a07a423          	sw	zero,424(a5) # 200026a0 <errno>
    5500:	c606                	sw	ra,12(sp)
    5502:	20e9                	jal	55cc <_fstat>
    5504:	57fd                	li	a5,-1
    5506:	00f51963          	bne	a0,a5,5518 <_fstat_r+0x2a>
    550a:	1fffd797          	auipc	a5,0x1fffd
    550e:	19678793          	addi	a5,a5,406 # 200026a0 <errno>
    5512:	439c                	lw	a5,0(a5)
    5514:	c391                	beqz	a5,5518 <_fstat_r+0x2a>
    5516:	c01c                	sw	a5,0(s0)
    5518:	40b2                	lw	ra,12(sp)
    551a:	4422                	lw	s0,8(sp)
    551c:	0141                	addi	sp,sp,16
    551e:	8082                	ret

00005520 <_isatty_r>:
_isatty_r():
    5520:	1141                	addi	sp,sp,-16
    5522:	c422                	sw	s0,8(sp)
    5524:	842a                	mv	s0,a0
    5526:	852e                	mv	a0,a1
    5528:	1fffd797          	auipc	a5,0x1fffd
    552c:	1607ac23          	sw	zero,376(a5) # 200026a0 <errno>
    5530:	c606                	sw	ra,12(sp)
    5532:	286d                	jal	55ec <_isatty>
    5534:	57fd                	li	a5,-1
    5536:	00f51963          	bne	a0,a5,5548 <_isatty_r+0x28>
    553a:	1fffd797          	auipc	a5,0x1fffd
    553e:	16678793          	addi	a5,a5,358 # 200026a0 <errno>
    5542:	439c                	lw	a5,0(a5)
    5544:	c391                	beqz	a5,5548 <_isatty_r+0x28>
    5546:	c01c                	sw	a5,0(s0)
    5548:	40b2                	lw	ra,12(sp)
    554a:	4422                	lw	s0,8(sp)
    554c:	0141                	addi	sp,sp,16
    554e:	8082                	ret

00005550 <_lseek_r>:
_lseek_r():
    5550:	1141                	addi	sp,sp,-16
    5552:	c422                	sw	s0,8(sp)
    5554:	842a                	mv	s0,a0
    5556:	852e                	mv	a0,a1
    5558:	85b2                	mv	a1,a2
    555a:	8636                	mv	a2,a3
    555c:	1fffd797          	auipc	a5,0x1fffd
    5560:	1407a223          	sw	zero,324(a5) # 200026a0 <errno>
    5564:	c606                	sw	ra,12(sp)
    5566:	205d                	jal	560c <_lseek>
    5568:	57fd                	li	a5,-1
    556a:	00f51963          	bne	a0,a5,557c <_lseek_r+0x2c>
    556e:	1fffd797          	auipc	a5,0x1fffd
    5572:	13278793          	addi	a5,a5,306 # 200026a0 <errno>
    5576:	439c                	lw	a5,0(a5)
    5578:	c391                	beqz	a5,557c <_lseek_r+0x2c>
    557a:	c01c                	sw	a5,0(s0)
    557c:	40b2                	lw	ra,12(sp)
    557e:	4422                	lw	s0,8(sp)
    5580:	0141                	addi	sp,sp,16
    5582:	8082                	ret

00005584 <__malloc_lock>:
__malloc_lock():
    5584:	8082                	ret

00005586 <__malloc_unlock>:
__malloc_unlock():
    5586:	8082                	ret

00005588 <_read_r>:
_read_r():
    5588:	1141                	addi	sp,sp,-16
    558a:	c422                	sw	s0,8(sp)
    558c:	842a                	mv	s0,a0
    558e:	852e                	mv	a0,a1
    5590:	85b2                	mv	a1,a2
    5592:	8636                	mv	a2,a3
    5594:	1fffd797          	auipc	a5,0x1fffd
    5598:	1007a623          	sw	zero,268(a5) # 200026a0 <errno>
    559c:	c606                	sw	ra,12(sp)
    559e:	28bd                	jal	561c <_read>
    55a0:	57fd                	li	a5,-1
    55a2:	00f51963          	bne	a0,a5,55b4 <_read_r+0x2c>
    55a6:	1fffd797          	auipc	a5,0x1fffd
    55aa:	0fa78793          	addi	a5,a5,250 # 200026a0 <errno>
    55ae:	439c                	lw	a5,0(a5)
    55b0:	c391                	beqz	a5,55b4 <_read_r+0x2c>
    55b2:	c01c                	sw	a5,0(s0)
    55b4:	40b2                	lw	ra,12(sp)
    55b6:	4422                	lw	s0,8(sp)
    55b8:	0141                	addi	sp,sp,16
    55ba:	8082                	ret

000055bc <_close>:
_close():
    55bc:	05800793          	li	a5,88
    55c0:	1fffd717          	auipc	a4,0x1fffd
    55c4:	0ef72023          	sw	a5,224(a4) # 200026a0 <errno>
    55c8:	557d                	li	a0,-1
    55ca:	8082                	ret

000055cc <_fstat>:
_fstat():
    55cc:	05800793          	li	a5,88
    55d0:	1fffd717          	auipc	a4,0x1fffd
    55d4:	0cf72823          	sw	a5,208(a4) # 200026a0 <errno>
    55d8:	557d                	li	a0,-1
    55da:	8082                	ret

000055dc <_getpid>:
_getpid():
    55dc:	05800793          	li	a5,88
    55e0:	1fffd717          	auipc	a4,0x1fffd
    55e4:	0cf72023          	sw	a5,192(a4) # 200026a0 <errno>
    55e8:	557d                	li	a0,-1
    55ea:	8082                	ret

000055ec <_isatty>:
_isatty():
    55ec:	05800793          	li	a5,88
    55f0:	1fffd717          	auipc	a4,0x1fffd
    55f4:	0af72823          	sw	a5,176(a4) # 200026a0 <errno>
    55f8:	4501                	li	a0,0
    55fa:	8082                	ret

000055fc <_kill>:
_kill():
    55fc:	05800793          	li	a5,88
    5600:	1fffd717          	auipc	a4,0x1fffd
    5604:	0af72023          	sw	a5,160(a4) # 200026a0 <errno>
    5608:	557d                	li	a0,-1
    560a:	8082                	ret

0000560c <_lseek>:
_lseek():
    560c:	05800793          	li	a5,88
    5610:	1fffd717          	auipc	a4,0x1fffd
    5614:	08f72823          	sw	a5,144(a4) # 200026a0 <errno>
    5618:	557d                	li	a0,-1
    561a:	8082                	ret

0000561c <_read>:
_read():
    561c:	05800793          	li	a5,88
    5620:	1fffd717          	auipc	a4,0x1fffd
    5624:	08f72023          	sw	a5,128(a4) # 200026a0 <errno>
    5628:	557d                	li	a0,-1
    562a:	8082                	ret

0000562c <_sbrk>:
_sbrk():
    562c:	84c18793          	addi	a5,gp,-1972 # 20000104 <heap_end.1518>
    5630:	439c                	lw	a5,0(a5)
    5632:	c791                	beqz	a5,563e <_sbrk+0x12>
    5634:	953e                	add	a0,a0,a5
    5636:	84a1a623          	sw	a0,-1972(gp) # 20000104 <heap_end.1518>
    563a:	853e                	mv	a0,a5
    563c:	8082                	ret
    563e:	1fffd797          	auipc	a5,0x1fffd
    5642:	06678793          	addi	a5,a5,102 # 200026a4 <_ebss>
    5646:	953e                	add	a0,a0,a5
    5648:	84a1a623          	sw	a0,-1972(gp) # 20000104 <heap_end.1518>
    564c:	853e                	mv	a0,a5
    564e:	8082                	ret

00005650 <_exit>:
_exit():
    5650:	a001                	j	5650 <_exit>
    5652:	0000                	unimp
    5654:	736d                	lui	t1,0xffffb
    5656:	0000                	unimp
    5658:	2e2e                	fld	ft8,200(sp)
    565a:	62694c2f          	0x62694c2f
    565e:	6172                	flw	ft2,28(sp)
    5660:	6972                	flw	fs2,28(sp)
    5662:	7365                	lui	t1,0xffff9
    5664:	6565732f          	0x6565732f
    5668:	6572666b          	0x6572666b
    566c:	5f65                	li	t5,-7
    566e:	696c                	flw	fa1,84(a0)
    5670:	7262                	flw	ft4,56(sp)
    5672:	7261                	lui	tp,0xffff8
    5674:	6569                	lui	a0,0x1a
    5676:	667a2f73          	csrrs	t5,0x667,s4
    567a:	705f 7469 632e      	0x632e7469705f
    5680:	0000                	unimp
    5682:	0000                	unimp
    5684:	7375                	lui	t1,0xffffd
	...

00005688 <GPION>:
    5688:	0800 4001 0c00 4001 1000 4001 1400 4001     ...@...@...@...@

00005698 <__func__.3548>:
    5698:	6974 656d 5f72 6970 5f74 6e69 6574 7272     timer_pit_interr
    56a8:	7075 5f74 736d 0000                         upt_ms..

000056b0 <TIMERN>:
    56b0:	2c00 4001 0000 4000 0400 4000 0800 4000     .,.@...@...@...@

000056c0 <UARTN>:
    56c0:	3800 4001 4400 4000 4800 4000 4c00 4000     .8.@.D.@.H.@.L.@
    56d0:	3f96 0000 401e 0000 40d0 0000 4212 0000     .?...@...@...B..
    56e0:	4328 0000 4298 0000 202c 7566 636e 6974     (C...B.., functi
    56f0:	6e6f 203a 0000 0000 7361 6573 7472 6f69     on: ....assertio
    5700:	206e 2522 2273 6620 6961 656c 3a64 6620     n "%s" failed: f
    5710:	6c69 2065 2522 2273 202c 696c 656e 2520     ile "%s", line %
    5720:	2564 2573 0a73 0000 2d23 2b30 0020 0000     d%s%s...#-0+ ...
    5730:	6c68 004c 6665 4567 4746 0000 3130 3332     hlL.efgEFG..0123
    5740:	3534 3736 3938 4241 4443 4645 0000 0000     456789ABCDEF....
    5750:	3130 3332 3534 3736 3938 6261 6463 6665     0123456789abcdef
    5760:	0000 0000                                   ....

00005764 <__sf_fake_stderr>:
	...

00005784 <__sf_fake_stdin>:
	...

000057a4 <__sf_fake_stdout>:
	...
